(dp1
S'<pad>'
p2
I0
sV 
I5
sV1
I7
sV0
I11
sV3
I17
sV2
I10
sV5
I25
sV4
I31
sV7
I26
sV6
I9
sV9
I8
sV8
I32
sS'a'
I18
sVc
I15
sVb
I21
sVe
I4
sVd
I28
sVg
I30
sVf
I27
sVi
I2
sVh
I16
sS'k'
I19
sS'j'
I34
sVm
I24
sVl
I3
sVo
I13
sS'n'
I20
sVq
I37
sVp
I33
sVs
I14
sVr
I12
sVu
I29
sVt
I6
sVw
I1
sVv
I23
sVy
I22
sVx
I36
sS'z'
I35
s.