(dp1
crdflib.term
URIRef
p2
(Vprop:width
tRp3
I126
sg2
(Vprop:live
tRp4
I205
sg2
(Vprop:peak15e
tRp5
I202
sg2
(Vprop:peak15f
tRp6
I637
sg2
(Vprop:ep
tRp7
I363
sg2
(Vprop:peak15a
tRp8
I601
sg2
(Vprop:peak15c
tRp9
I315
sg2
(Vprop:frequency
tRp10
I692
sg2
(Vprop:muchmusicw
tRp11
I457
sg2
(Vprop:en
tRp12
I672
sg2
(Vprop:sign
tRp13
I566
sg2
(Vprop:muchmusicn
tRp14
I285
sg2
(Vprop:almamater
tRp15
I493
sg2
(Vprop:allalbums
tRp16
I390
sg2
(Vprop:jargon
tRp17
I583
sg2
(Vprop:inappropriatetone
tRp18
I748
sg2
(Vprop:salign
tRp19
I248
sg2
(Vprop:albumcode
tRp20
I686
sg2
(Vprop:agency
tRp21
I749
sg2
(Vprop:peak6a
tRp22
I201
sg2
(Vprop:peak7a
tRp23
I538
sg2
(Vprop:references
tRp24
I552
sg2
(Vprop:rrstage
tRp25
I335
sg2
(Vprop:notablesongs
tRp26
I352
sg2
(Vhttp://www.w3.org/2003/01/geo/wgs84_pos#long
tRp27
I669
sg2
(Vprop:rev21score
tRp28
I561
sg2
(Vprop:jn
tRp29
I167
sg2
(Vdbo:writer
tRp30
I520
sg2
(Vhttp://www.w3.org/2003/01/geo/wgs84_pos#lat
tRp31
I246
sg2
(Vprop:citizenship
tRp32
I480
sg2
(Vprop:peak14a
tRp33
I441
sg2
(Vprop:reviews
tRp34
I71
sg2
(Vprop:nationalcaps
tRp35
I739
sg2
(Vprop:family
tRp36
I688
sg2
(Vprop:wptmoneyfinishes
tRp37
I708
sg2
(Vprop:residence
tRp38
I324
sg2
(Vprop:estimatedwealth
tRp39
I706
sg2
(Vprop:peak12i
tRp40
I671
sg2
(Vprop:starsign
tRp41
I575
sg2
(Vprop:title
tRp42
I175
sg2
(Vprop:ariaw
tRp43
I454
sg2
(Vprop:peak12a
tRp44
I422
sg2
(Vprop:lccn
tRp45
I180
sg2
(Vprop:charts
tRp46
I333
sg2
(Vprop:peak12e
tRp47
I750
sg2
(Vprop:peak12d
tRp48
I391
sg2
(Vprop:url
tRp49
I239
sg2
(Vprop:peak12f
tRp50
I720
sg2
(Vprop:longtype
tRp51
I680
sg2
(Vprop:group
tRp52
I291
sg2
(Vhttp://www.georss.org/georss/point
tRp53
I417
sg2
(Vprop:header
tRp54
I204
sg2
(Vprop:parents
tRp55
I247
sg2
(Vprop:peak1b
tRp56
I584
sg2
(Vprop:brothers
tRp57
I223
sg2
(Vprop:february
tRp58
I413
sg2
(Vprop:bestfinish
tRp59
I471
sg2
(Vhttp://purl.org/dc/elements/1.1/description
tRp60
I39
sg2
(Vprop:mtvaustraliaw
tRp61
I544
sg2
(Vdbo:facilityid
tRp62
I444
sg2
(Vprop:chartf
tRp63
I225
sg2
(Vprop:degrees
tRp64
I644
sg2
(Vprop:extra
tRp65
I50
sg2
(Vdbo:wikipageredirects
tRp66
I18
sg2
(Vprop:name
tRp67
I190
sg2
(Vprop:region
tRp68
I93
sg2
(Vprop:thistour
tRp69
I650
sg2
(Vprop:bridge
tRp70
I733
sg2
(Vprop:instrument
tRp71
I58
sg2
(Vprop:extracolumn
tRp72
I147
sg2
(Vprop:issue
tRp73
I128
sg2
(Vprop:followedby
tRp74
I114
sg2
(Vprop:tab
tRp75
I713
sg2
(Vprop:refimproveblp
tRp76
I736
sg2
(Vprop:logo
tRp77
I542
sg2
(Vprop:cause
tRp78
I198
sg2
(Vprop:jw
tRp79
I682
sg2
(Vdbo:relative
tRp80
I237
sg2
(Vprop:relatives
tRp81
I400
sg2
(Vdbo:broadcaststationclass
tRp82
I519
sg2
(Vprop:border
tRp83
I166
sg2
(Vprop:episodenumber
tRp84
I486
sg2
(Vprop:author
tRp85
I113
sg2
(Vprop:recorded
tRp86
I91
sg2
(Vdbo:recordlabel
tRp87
I141
sg2
(Vprop:section
tRp88
I562
sg2
(Vprop:footeralign
tRp89
I405
sg2
(Vprop:bordercolor
tRp90
I427
sg2
(Vprop:related
tRp91
I337
sg2
(Vprop:imagesize
tRp92
I72
sg2
(Vprop:hanja
tRp93
I773
sg2
(Vprop:primarysources
tRp94
I388
sg2
(Vprop:notablerole
tRp95
I393
sg2
(Vprop:soulw
tRp96
I494
sg2
(Vprop:influences
tRp97
I97
sg2
(Vprop:souln
tRp98
I609
sg2
(Vprop:albumname
tRp99
I653
sg2
(Vprop:rev7score
tRp100
I240
sg2
(Vprop:peak11a
tRp101
I528
sg2
(Vprop:peak11b
tRp102
I740
sg2
(Vprop:peak11c
tRp103
I670
sg2
(Vdbo:individualisedpnd
tRp104
I440
sg2
(Vprop:imagebg
tRp105
I715
sg2
(Vprop:wsopbraceletcount
tRp106
I436
sg2
(Vprop:optioncolor
tRp107
I314
sg2
(Vdbo:person/weight
tRp108
I447
sg2
(Vprop:numberofshows
tRp109
I640
sg2
(Vprop:eyetothetelescope
tRp110
I697
sg2
(Vprop:networth
tRp111
I432
sg2
(Vprop:source
tRp112
I110
sg2
(Vprop:weight
tRp113
I292
sg2
(Vdbo:recordedin
tRp114
I618
sg2
(Vprop:worldw
tRp115
I593
sg2
(Vdbo:subsequentwork
tRp116
I63
sg2
(Vprop:single2date
tRp117
I548
sg2
(Vprop:peak2b
tRp118
I624
sg2
(Vprop:peak2a
tRp119
I171
sg2
(Vprop:timeslot
tRp120
I446
sg2
(Vprop:certification
tRp121
I357
sg2
(Vdbo:numberofseasons
tRp122
I140
sg2
(Vprop:shortsummary
tRp123
I439
sg2
(Vprop:associatedwork
tRp124
I368
sg2
(Vprop:starring
tRp125
I196
sg2
(Vprop:dateofdeath
tRp126
I107
sg2
(Vprop:fancruft
tRp127
I630
sg2
(Vprop:captsize
tRp128
I421
sg2
(Vprop:image
tRp129
I212
sg2
(Vprop:power
tRp130
I737
sg2
(Vprop:termstart
tRp131
I261
sg2
(Vprop:placeofdeath
tRp132
I85
sg2
(Vprop:cite
tRp133
I533
sg2
(Vprop:instruments
tRp134
I81
sg2
(Vprop:listepisodes
tRp135
I586
sg2
(Vdbo:birthyear
tRp136
I77
sg2
(Vprop:yearspan
tRp137
I165
sg2
(Vdbo:runtime
tRp138
I17
sg2
(Vprop:peak12h
tRp139
I683
sg2
(Vprop:pickups
tRp140
I360
sg2
(Vprop:confusing
tRp141
I632
sg2
(Vprop:age
tRp142
I409
sg2
(Vprop:after
tRp143
I89
sg2
(Vprop:judges
tRp144
I512
sg2
(Vprop:labels
tRp145
I222
sg2
(Vprop:quoted
tRp146
I227
sg2
(Vprop:hangul
tRp147
I377
sg2
(Vprop:aux
tRp148
I532
sg2
(Vprop:writingcredits
tRp149
I117
sg2
(Vprop:toolong
tRp150
I602
sg2
(Vrdfs:comment
tRp151
I9
sg2
(Vdbo:weight
tRp152
I527
sg2
(Vprop:peoplesn
tRp153
I769
sg2
(Vprop:lowercaption
tRp154
I281
sg2
(Vprop:firstalbum
tRp155
I351
sg2
(Vdbo:showjudge
tRp156
I485
sg2
(Vprop:collaborators
tRp157
I184
sg2
(Vprop:single3date
tRp158
I723
sg2
(Vprop:quote
tRp159
I138
sg2
(Vprop:musicvideos
tRp160
I479
sg2
(Vprop:eyecolor
tRp161
I420
sg2
(Vprop:lyrics
tRp162
I92
sg2
(Vprop:nosales
tRp163
I307
sg2
(Vprop:signature
tRp164
I347
sg2
(Vprop:collapsed
tRp165
I84
sg2
(Vprop:spouse
tRp166
I119
sg2
(Vprop:award
tRp167
I189
sg2
(Vprop:mrstage
tRp168
I378
sg2
(Vprop:leadmissing
tRp169
I662
sg2
(Vprop:unofficialmembers
tRp170
I702
sg2
(Vprop:losses
tRp171
I144
sg2
(Vprop:othernames
tRp172
I265
sg2
(Vhttp://www.w3.org/2003/01/geo/wgs84_pos#geometry
tRp173
I355
sg2
(Vprop:district
tRp174
I477
sg2
(Vprop:nominations
tRp175
I279
sg2
(Vprop:award4w
tRp176
I592
sg2
(Vprop:journal
tRp177
I474
sg2
(Vprop:note
tRp178
I37
sg2
(Vdbo:hometown
tRp179
I554
sg2
(Vprop:abilities
tRp180
I664
sg2
(Vprop:povcheck
tRp181
I172
sg2
(Vprop:peoplesw
tRp182
I722
sg2
(Vdbo:person/height
tRp183
I607
sg2
(Vprop:award4n
tRp184
I410
sg2
(Vprop:imgagesize
tRp185
I282
sg2
(Vprop:prodcode
tRp186
I300
sg2
(Vdbo:knownfor
tRp187
I263
sg2
(Vprop:state
tRp188
I139
sg2
(Vhttp://open.vocab.org/terms/sortlabel
tRp189
I1
sg2
(Vprop:peak16d
tRp190
I681
sg2
(Vprop:imgwidth
tRp191
I614
sg2
(Vprop:goals
tRp192
I526
sg2
(Vprop:list
tRp193
I283
sg2
(Vprop:wins
tRp194
I608
sg2
(Vprop:headeralign
tRp195
I318
sg2
(Vprop:trivia
tRp196
I695
sg2
(Vprop:weasel
tRp197
I220
sg2
(Vprop:vocaltype
tRp198
I305
sg2
(Vprop:names
tRp199
I188
sg2
(Vprop:rows
tRp200
I155
sg2
(Vdbo:numberofepisodes
tRp201
I232
sg2
(Vhttp://xmlns.com/foaf/0.1/name
tRp202
I13
sg2
(Vdbo:compiler
tRp203
I631
sg2
(Vprop:executiveproducer
tRp204
I689
sg2
(Vprop:c
tRp205
I628
sg2
(Vprop:youthyears
tRp206
I513
sg2
(Vprop:genre
tRp207
I49
sg2
(Vprop:site
tRp208
I757
sg2
(Vprop:imdb
tRp209
I364
sg2
(Vdbo:genre
tRp210
I502
sg2
(Vprop:viaf
tRp211
I94
sg2
(Vprop:previousmembers
tRp212
I459
sg2
(Vprop:blprefimprove
tRp213
I690
sg2
(Vprop:simpchinesename
tRp214
I397
sg2
(Vprop:peak12c
tRp215
I531
sg2
(Vprop:assosciatedacts
tRp216
I551
sg2
(Vprop:billboardw
tRp217
I626
sg2
(Vprop:hkfcsawards
tRp218
I361
sg2
(Vprop:peak12b
tRp219
I334
sg2
(Vprop:disputed
tRp220
I639
sg2
(Vprop:dresssize
tRp221
I423
sg2
(Vdbo:activeyearsenddate
tRp222
I406
sg2
(Vprop:ref
tRp223
I118
sg2
(Vprop:nocert
tRp224
I276
sg2
(Vhttp://purl.org/vocab/relationship/spouseof
tRp225
I132
sg2
(Vdbo:foundingyear
tRp226
I435
sg2
(Vdbo:notablework
tRp227
I564
sg2
(Vprop:billboardn
tRp228
I599
sg2
(Vprop:rev
tRp229
I21
sg2
(Vprop:alias
tRp230
I75
sg2
(Vprop:peak9f
tRp231
I716
sg2
(Vprop:dead
tRp232
I476
sg2
(Vprop:peak9d
tRp233
I674
sg2
(Vprop:peak9e
tRp234
I545
sg2
(Vprop:peak9b
tRp235
I464
sg2
(Vprop:peak9c
tRp236
I553
sg2
(Vprop:peak9a
tRp237
I404
sg2
(Vprop:peak9h
tRp238
I758
sg2
(Vprop:peak9i
tRp239
I317
sg2
(Vprop:noprose
tRp240
I116
sg2
(Vprop:termend
tRp241
I560
sg2
(Vprop:rev14score
tRp242
I411
sg2
(Vprop:rev28score
tRp243
I556
sg2
(Vprop:totalcaps
tRp244
I679
sg2
(Vprop:wpttitles
tRp245
I177
sg2
(Vprop:imgcapt
tRp246
I611
sg2
(Vprop:benha
tRp247
I473
sg2
(Vprop:rr
tRp248
I381
sg2
(Vprop:outofdate
tRp249
I673
sg2
(Vprop:mvlink
tRp250
I747
sg2
(Vprop:award3n
tRp251
I469
sg2
(Vprop:heightinpopularity
tRp252
I613
sg2
(Vprop:award1w
tRp253
I428
sg2
(Vprop:rev26score
tRp254
I694
sg2
(Vprop:rev2score
tRp255
I136
sg2
(Vprop:education
tRp256
I655
sg2
(Vprop:award1n
tRp257
I375
sg2
(Vprop:rev16score
tRp258
I659
sg2
(Vprop:medium
tRp259
I342
sg2
(Vdbo:occupation
tRp260
I280
sg2
(Vdbo:orderinoffice
tRp261
I635
sg2
(Vprop:direction
tRp262
I328
sg2
(Vprop:includefootnote
tRp263
I350
sg2
(Vprop:additionalmembers
tRp264
I455
sg2
(Vprop:arian
tRp265
I746
sg2
(Vhttp://xmlns.com/foaf/0.1/made
tRp266
I125
sg2
(Vprop:hometown
tRp267
I587
sg2
(Vprop:qalign
tRp268
I615
sg2
(Vprop:restingplace
tRp269
I371
sg2
(Vprop:chronology
tRp270
I208
sg2
(Vprop:status
tRp271
I228
sg2
(Vprop:released
tRp272
I45
sg2
(Vdbo:producer
tRp273
I24
sg2
(Vprop:rev9score
tRp274
I199
sg2
(Vprop:restructure
tRp275
I505
sg2
(Vprop:advert
tRp276
I219
sg2
(Vprop:born
tRp277
I34
sg2
(Vprop:height
tRp278
I289
sg2
(Vprop:rev18score
tRp279
I582
sg2
(Vprop:concerttourname
tRp280
I594
sg2
(Vprop:backgroun
tRp281
I430
sg2
(Vprop:peak14c
tRp282
I319
sg2
(Vprop:producers
tRp283
I302
sg2
(Vprop:allwriting
tRp284
I104
sg2
(Vprop:drumtech
tRp285
I338
sg2
(Vprop:relatedacts
tRp286
I159
sg2
(Vprop:type
tRp287
I106
sg2
(Vprop:fg
tRp288
I576
sg2
(Vprop:britn
tRp289
I500
sg2
(Vprop:mr
tRp290
I379
sg2
(Vprop:placeofdeat
tRp291
I192
sg2
(Vprop:peak7b
tRp292
I179
sg2
(Vprop:peak7d
tRp293
I741
sg2
(Vprop:work
tRp294
I373
sg2
(Vprop:videolink
tRp295
I297
sg2
(Vprop:mc
tRp296
I322
sg2
(Vprop:total
tRp297
I606
sg2
(Vprop:onesource
tRp298
I465
sg2
(Vprop:qn
tRp299
I623
sg2
(Vprop:peak1a
tRp300
I408
sg2
(Vprop:linecolor
tRp301
I448
sg2
(Vprop:img
tRp302
I540
sg2
(Vprop:epttitles
tRp303
I370
sg2
(Vprop:bodytype
tRp304
I434
sg2
(Vprop:wsopmoneyfinishes
tRp305
I705
sg2
(Vprop:peak20a
tRp306
I621
sg2
(Vprop:release
tRp307
I481
sg2
(Vprop:relmonth
tRp308
I557
sg2
(Vdbo:partner
tRp309
I109
sg2
(Vprop:rev4score
tRp310
I127
sg2
(Vdbo:abstract
tRp311
I27
sg2
(Vprop:newsrelease
tRp312
I295
sg2
(Vprop:thisalbum
tRp313
I44
sg2
(Vprop:lyricscredits
tRp314
I426
sg2
(Vprop:location
tRp315
I518
sg2
(Vprop:nextalbum
tRp316
I74
sg2
(Vprop:year
tRp317
I40
sg2
(Vprop:influencedby
tRp318
I516
sg2
(Vdbo:deathyear
tRp319
I277
sg2
(Vprop:contributingartists
tRp320
I299
sg2
(Vprop:tradchinesename
tRp321
I398
sg2
(Vdbo:position
tRp322
I649
sg2
(Vprop:wsopmaineventbestfinishrank
tRp323
I523
sg2
(Vprop:office
tRp324
I327
sg2
(Vprop:langtitle
tRp325
I569
sg2
(Vprop:singles
tRp326
I78
sg2
(Vdbo:previouswork
tRp327
I41
sg2
(Vprop:isbn
tRp328
I133
sg2
(Vprop:before
tRp329
I56
sg2
(Vprop:othername
tRp330
I301
sg2
(Vprop:executiveproducers
tRp331
I703
sg2
(Vprop:coi
tRp332
I503
sg2
(Vprop:nationality
tRp333
I130
sg2
(Vprop:review
tRp334
I466
sg2
(Vprop:pictureformat
tRp335
I596
sg2
(Vprop:placeof
tRp336
I661
sg2
(Vprop:promoter
tRp337
I752
sg2
(Vdbo:status
tRp338
I243
sg2
(Vprop:option
tRp339
I95
sg2
(Vprop:albumlength
tRp340
I549
sS'<NONE>'
p341
I0
sg2
(Vdbo:work/runtime
tRp342
I64
sg2
(Vprop:face
tRp343
I366
sg2
(Vprop:id
tRp344
I20
sg2
(Vprop:junow
tRp345
I412
sg2
(Vprop:npov
tRp346
I600
sg2
(Vprop:numberoflegs
tRp347
I460
sg2
(Vdbo:height
tRp348
I470
sg2
(Vprop:lastaired
tRp349
I215
sg2
(Vprop:worldn
tRp350
I734
sg2
(Vprop:cover
tRp351
I65
sg2
(Vprop:religion
tRp352
I233
sg2
(Vprop:associateproducer
tRp353
I547
sg2
(Vprop:rev12score
tRp354
I218
sg2
(Vprop:cinematography
tRp355
I727
sg2
(Vprop:expiry
tRp356
I310
sg2
(Vprop:junon
tRp357
I443
sg2
(Vprop:music
tRp358
I61
sg2
(Vprop:classwins
tRp359
I595
sg2
(Vprop:tmfn
tRp360
I272
sg2
(Vprop:partner
tRp361
I154
sg2
(Vdbo:influencedby
tRp362
I273
sg2
(Vprop:totallength
tRp363
I152
sg2
(Vprop:citationstyle
tRp364
I558
sg2
(Vprop:accessdate
tRp365
I241
sg2
(Vprop:birthplace
tRp366
I59
sg2
(Vprop:hp
tRp367
I761
sg2
(Vdbo:formerbandmember
tRp368
I55
sg2
(Vprop:tmfw
tRp369
I622
sg2
(Vprop:sexuality
tRp370
I349
sg2
(Vprop:peak10c
tRp371
I567
sg2
(Vprop:v
tRp372
I168
sg2
(Vprop:peak10a
tRp373
I348
sg2
(Vprop:t
tRp374
I308
sg2
(Vprop:s
tRp375
I122
sg2
(Vprop:q
tRp376
I158
sg2
(Vprop:p
tRp377
I634
sg2
(Vprop:copyedit
tRp378
I585
sg2
(Vprop:selfpublished
tRp379
I617
sg2
(Vprop:rev10score
tRp380
I271
sg2
(Vprop:renownname
tRp381
I207
sg2
(Vprop:reason
tRp382
I195
sg2
(Vprop:b
tRp383
I256
sg2
(Vprop:albumspan
tRp384
I235
sg2
(Vprop:n
tRp385
I255
sg2
(Vprop:l
tRp386
I763
sg2
(Vprop:rev17score
tRp387
I651
sg2
(Vprop:j
tRp388
I751
sg2
(Vprop:tracks
tRp389
I478
sg2
(Vprop:single1date
tRp390
I768
sg2
(Vprop:numepisodes
tRp391
I645
sg2
(Vprop:placeofactivity
tRp392
I134
sg2
(Vprop:peak3a
tRp393
I654
sg2
(Vprop:totalgoals
tRp394
I489
sg2
(Vprop:children
tRp395
I124
sg2
(Vprop:length
tRp396
I3
sg2
(Vprop:peak19c
tRp397
I442
sg2
(Vprop:nocontests
tRp398
I604
sg2
(Vprop:coversize
tRp399
I756
sg2
(Vprop:successor
tRp400
I100
sg2
(Vdbo:starring
tRp401
I340
sg2
(Vdbo:background
tRp402
I15
sg2
(Vprop:format
tRp403
I266
sg2
(Vprop:chartd
tRp404
I580
sg2
(Vprop:shortdescription
tRp405
I82
sg2
(Vprop:home
tRp406
I467
sg2
(Vprop:charta
tRp407
I329
sg2
(Vprop:chartb
tRp408
I643
sg2
(Vprop:mtvaustralian
tRp409
I492
sg2
(Vprop:nickaustralian
tRp410
I170
sg2
(Vprop:presenter
tRp411
I185
sg2
(Vprop:alllyrics
tRp412
I236
sg2
(Vprop:alt
tRp413
I173
sg2
(Vprop:refimprove
tRp414
I70
sg2
(Vprop:college
tRp415
I424
sg2
(Vprop:number
tRp416
I90
sg2
(Vprop:volume
tRp417
I704
sg2
(Vprop:certmonth
tRp418
I294
sg2
(Vprop:nickaustraliaw
tRp419
I711
sg2
(Vprop:deathdate
tRp420
I149
sg2
(Vprop:enddate
tRp421
I429
sg2
(Vprop:lang
tRp422
I764
sg2
(Vdbo:foundedby
tRp423
I394
sg2
(Vprop:influenced
tRp424
I217
sg2
(Vprop:mtvvideow
tRp425
I252
sg2
(Vprop:dateofbirth
tRp426
I2
sg2
(Vhttp://purl.org/vocab/relationship/siblingof
tRp427
I43
sg2
(Vprop:peak6d
tRp428
I724
sg2
(Vprop:award2n
tRp429
I88
sg2
(Vprop:award2w
tRp430
I186
sg2
(Vdbo:birthname
tRp431
I129
sg2
(Vprop:mtvvideon
tRp432
I463
sg2
(Vhttp://xmlns.com/foaf/0.1/maker
tRp433
I10
sg2
(Vprop:language
tRp434
I234
sg2
(Vprop:plugw
tRp435
I731
sg2
(Vprop:update
tRp436
I389
sg2
(Vprop:birthdate
tRp437
I48
sg2
(Vprop:caps
tRp438
I87
sg2
(Vprop:complink
tRp439
I707
sg2
(Vprop:citationsmissing
tRp440
I392
sg2
(Vdbo:creator
tRp441
I753
sg2
(Vprop:rev8score
tRp442
I216
sg2
(Vprop:notes
tRp443
I744
sg2
(Vprop:hongkongfilmwards
tRp444
I306
sg2
(Vprop:originalresearch
tRp445
I209
sg2
(Vprop:rev22score
tRp446
I143
sg2
(Vprop:rev23score
tRp447
I718
sg2
(Vprop:writer
tRp448
I54
sg2
(Vprop:startdate
tRp449
I433
sg2
(Vprop:website
tRp450
I111
sg2
(Vprop:editor
tRp451
I151
sg2
(Vprop:rev19score
tRp452
I590
sg2
(Vprop:peak17a
tRp453
I577
sg2
(Vprop:peak17d
tRp454
I535
sg2
(Vprop:period
tRp455
I685
sg2
(Vprop:allcerts
tRp456
I365
sg2
(Vprop:wptfinaltables
tRp457
I687
sg2
(Vprop:eplink
tRp458
I509
sg2
(Vdbo:associatedmusicalartist
tRp459
I5
sg2
(Vprop:date
tRp460
I83
sg2
(Vdbo:musicalartist
tRp461
I543
sg2
(Vprop:peak4a
tRp462
I288
sg2
(Vprop:studiolink
tRp463
I491
sg2
(Vprop:alsoknownas
tRp464
I174
sg2
(Vprop:director
tRp465
I105
sg2
(Vprop:unreferenced
tRp466
I530
sg2
(Vprop:label
tRp467
I46
sg2
(Vdbo:title
tRp468
I696
sg2
(Vprop:pov
tRp469
I303
sg2
(Vprop:transformicename
tRp470
I573
sg2
(Vprop:pos
tRp471
I150
sg2
(Vhttp://xmlns.com/foaf/0.1/nick
tRp472
I284
sg2
(Vprop:domesticpartner
tRp473
I245
sg2
(Vprop:officialsite
tRp474
I511
sg2
(Vprop:pastmembers
tRp475
I4
sg2
(Vprop:owner
tRp476
I663
sg2
(Vprop:studio
tRp477
I221
sg2
(Vprop:musiccredits
tRp478
I258
sg2
(Vprop:nmen
tRp479
I508
sg2
(Vprop:currentlocation
tRp480
I762
sg2
(Vprop:align
tRp481
I79
sg2
(Vprop:grammyn
tRp482
I269
sg2
(Vdbo:bandmember
tRp483
I146
sg2
(Vprop:management
tRp484
I242
sg2
(Vprop:grammyw
tRp485
I591
sg2
(Vprop:rev27score
tRp486
I714
sg2
(Vprop:likeresume
tRp487
I675
sg2
(Vprop:spanish
tRp488
I629
sg2
(Vprop:imgalt
tRp489
I712
sg2
(Vprop:awards
tRp490
I229
sg2
(Vprop:chapter
tRp491
I610
sg2
(Vprop:distributor
tRp492
I286
sg2
(Vdbo:instrument
tRp493
I483
sg2
(Vprop:fullname
tRp494
I597
sg2
(Vprop:bot
tRp495
I62
sg2
(Vprop:runtime
tRp496
I735
sg2
(Vprop:haircolor
tRp497
I701
sg2
(Vprop:relyear
tRp498
I169
sg2
(Vdbo:musiccomposer
tRp499
I652
sg2
(Vdbo:spouse
tRp500
I99
sg2
(Vprop:notability
tRp501
I402
sg2
(Vprop:formed
tRp502
I162
sg2
(Vprop:deathplace
tRp503
I231
sg2
(Vprop:extranote
tRp504
I730
sg2
(Vprop:nationalismbybirth
tRp505
I403
sg2
(Vprop:audio
tRp506
I369
sg2
(Vprop:cleanup
tRp507
I296
sg2
(Vprop:peak
tRp508
I330
sg2
(Vprop:company
tRp509
I719
sg2
(Vprop:fansite
tRp510
I668
sg2
(Vprop:placeofbirth
tRp511
I102
sg2
(Vprop:rev5score
tRp512
I120
sg2
(Vprop:authorlink
tRp513
I578
sg2
(Vprop:yearsactive
tRp514
I33
sg2
(Vprop:formermembers
tRp515
I145
sg2
(Vprop:peak12g
tRp516
I765
sg2
(Vprop:nationalgoals
tRp517
I507
sg2
(Vprop:notablework
tRp518
I153
sg2
(Vprop:eptfinaltables
tRp519
I743
sg2
(Vprop:voicetype
tRp520
I504
sg2
(Vdbo:influenced
tRp521
I445
sg2
(Vprop:currentmembers
tRp522
I42
sg2
(Vprop:video
tRp523
I191
sg2
(Vprop:yearssinging
tRp524
I574
sg2
(Vdbo:artist
tRp525
I73
sg2
(Vprop:latin
tRp526
I498
sg2
(Vprop:imageflag
tRp527
I759
sg2
(Vprop:optionlink
tRp528
I676
sg2
(Vprop:page
tRp529
I693
sg2
(Vprop:essaylike
tRp530
I259
sg2
(Vprop:creator
tRp531
I666
sg2
(Vprop:rev29score
tRp532
I656
sg2
(Vprop:branding
tRp533
I451
sg2
(Vprop:apran
tRp534
I698
sg2
(Vprop:subject
tRp535
I490
sg2
(Vprop:tone
tRp536
I309
sg2
(Vprop:peak9g
tRp537
I766
sg2
(Vprop:size
tRp538
I103
sg2
(Vprop:yearsacive
tRp539
I570
sg2
(Vdbo:networth
tRp540
I627
sg2
(Vprop:singleslink
tRp541
I510
sg2
(Vprop:peak13h
tRp542
I416
sg2
(Vprop:apraw
tRp543
I320
sg2
(Vprop:peak13d
tRp544
I250
sg2
(Vprop:peak13e
tRp545
I449
sg2
(Vprop:peak13b
tRp546
I677
sg2
(Vprop:peak13c
tRp547
I641
sg2
(Vprop:peak13a
tRp548
I386
sg2
(Vprop:opentheme
tRp549
I60
sg2
(Vprop:framestyle
tRp550
I598
sg2
(Vprop:honorificprefix
tRp551
I461
sg2
(Vprop:peak18a
tRp552
I331
sg2
(Vprop:blp
tRp553
I499
sg2
(Vprop:debut
tRp554
I501
sg2
(Vprop:acts
tRp555
I546
sg2
(Vdbo:debut
tRp556
I484
sg2
(Vprop:nationalyears
tRp557
I525
sg2
(Vprop:honorificsuffix
tRp558
I401
sg2
(Vprop:rev30score
tRp559
I725
sg2
(Vprop:halign
tRp560
I438
sg2
(Vprop:pages
tRp561
I572
sg2
(Vprop:gross
tRp562
I667
sg2
(Vprop:nicknames
tRp563
I571
sg2
(Vprop:hangulstage
tRp564
I380
sg2
(Vprop:rev13score
tRp565
I197
sg2
(Vprop:rev6score
tRp566
I157
sg2
(Vprop:jyutpingchinesename
tRp567
I399
sg2
(Vprop:budget
tRp568
I728
sg2
(Vprop:manager
tRp569
I729
sg2
(Vprop:only
tRp570
I343
sg2
(Vprop:misc
tRp571
I101
sg2
(Vprop:description
tRp572
I47
sg2
(Vprop:years
tRp573
I23
sg2
(Vprop:caption
tRp574
I29
sg2
(Vprop:rev11score
tRp575
I313
sg2
(Vdbo:deathdate
tRp576
I80
sg2
(Vprop:currentresidence
tRp577
I148
sg2
(Vhttp://purl.org/vocab/relationship/closefriendof
tRp578
I131
sg2
(Vdbo:recorddate
tRp579
I108
sg2
(Vprop:nounspecified
tRp580
I745
sg2
(Vdbo:musicalband
tRp581
I642
sg2
(Vprop:wsopmaineventbestfinishyear
tRp582
I691
sg2
(Vprop:compilation
tRp583
I203
sg2
(Vprop:plugn
tRp584
I270
sg2
(Vprop:imgcap
tRp585
I339
sg2
(Vdbo:budget
tRp586
I387
sg2
(Vprop:sections
tRp587
I524
sg2
(Vdbo:releasedate
tRp588
I76
sg2
(Vprop:award3w
tRp589
I321
sg2
(Vprop:grammar
tRp590
I287
sg2
(Vprop:bgcolor
tRp591
I251
sg2
(Vprop:blpunsourced
tRp592
I616
sg2
(Vprop:bg
tRp593
I452
sg2
(Vprop:above
tRp594
I506
sg2
(Vprop:imagewidth
tRp595
I238
sg2
(Vprop:fromalbum
tRp596
I316
sg2
(Vprop:rev25score
tRp597
I717
sg2
(Vhttp://purl.org/dc/elements/1.1/title
tRp598
I36
sg2
(Vprop:jackw
tRp599
I684
sg2
(Vprop:compiler
tRp600
I521
sg2
(Vprop:epslink
tRp601
I588
sg2
(Vprop:jackn
tRp602
I450
sg2
(Vprop:wikt
tRp603
I254
sg2
(Vprop:thememusiccomposer
tRp604
I555
sg2
(Vdbo:review
tRp605
I52
sg2
(Vprop:rev1score
tRp606
I121
sg2
(Vdbo:gross
tRp607
I660
sg2
(Vdbo:activeyearsstartdate
tRp608
I418
sg2
(Vprop:help
tRp609
I293
sg2
(Vhttp://purl.org/ontology/mo/member_of
tRp610
I12
sg2
(Vprop:resides
tRp611
I431
sg2
(Vprop:vocalrange
tRp612
I456
sg2
(Vprop:italictitle
tRp613
I354
sg2
(Vprop:goldenmelodyawards
tRp614
I396
sg2
(Vprop:optionname
tRp615
I183
sg2
(Vdbo:frequency
tRp616
I311
sg2
(Vprop:regent
tRp617
I253
sg2
(Vprop:occupation
tRp618
I30
sg2
(Vprop:ko
tRp619
I514
sg2
(Vprop:peacock
tRp620
I332
sg2
(Vprop:olivierawards
tRp621
I453
sg2
(Vhttp://purl.org/vocab/relationship/childof
tRp622
I161
sg2
(Vprop:previousnames
tRp623
I742
sg2
(Vprop:rev3score
tRp624
I244
sg2
(Vprop:sources
tRp625
I625
sg2
(Vdbo:wikipagedisambiguates
tRp626
I123
sg2
(Vprop:active
tRp627
I214
sg2
(Vprop:single4date
tRp628
I475
sg2
(Vprop:peak3b
tRp629
I760
sg2
(Vprop:peak10b
tRp630
I767
sg2
(Vprop:colwidth
tRp631
I69
sg2
(Vprop:auto
tRp632
I275
sg2
(Vhttp://purl.org/ontology/mo/member
tRp633
I11
sg2
(Vprop:died
tRp634
I86
sg2
(Vprop:peak10g
tRp635
I515
sg2
(Vprop:origin
tRp636
I68
sg2
(Vprop:originalairdate
tRp637
I341
sg2
(Vprop:members
tRp638
I224
sg2
(Vprop:album
tRp639
I178
sg2
(Vprop:americann
tRp640
I462
sg2
(Vprop:salesamount
tRp641
I325
sg2
(Vdbo:longtype
tRp642
I345
sg2
(Vprop:associatedartists
tRp643
I362
sg2
(Vprop:imgsize
tRp644
I142
sg2
(Vdbo:activeyearsstartyear
tRp645
I8
sg2
(Vprop:certyear
tRp646
I164
sg2
(Vprop:previoustothat
tRp647
I336
sg2
(Vprop:small
tRp648
I249
sg2
(Vprop:founder
tRp649
I323
sg2
(Vprop:precededby
tRp650
I359
sg2
(Vprop:reflink
tRp651
I226
sg2
(Vprop:network
tRp652
I517
sg2
(Vprop:currentbandmembers
tRp653
I326
sg2
(Vprop:myspace
tRp654
I414
sg2
(Vprop:position
tRp655
I603
sg2
(Vprop:founded
tRp656
I358
sg2
(Vprop:marriedto
tRp657
I648
sg2
(Vprop:predecessor
tRp658
I372
sg2
(Vprop:patronage
tRp659
I488
sg2
(Vprop:realname
tRp660
I605
sg2
(Vprop:producer
tRp661
I38
sg2
(Vprop:nameofartist
tRp662
I771
sg2
(Vprop:currently
tRp663
I638
sg2
(Vprop:topic
tRp664
I620
sg2
(Vprop:edition
tRp665
I211
sg2
(Vprop:pinyinchinesename
tRp666
I395
sg2
(Vprop:autocat
tRp667
I312
sg2
(Vprop:filename
tRp668
I96
sg2
(Vprop:cat
tRp669
I559
sg2
(Vhttp://purl.org/vocab/relationship/parentof
tRp670
I160
sg2
(Vprop:as
tRp671
I53
sg2
(Vprop:birthname
tRp672
I28
sg2
(Vprop:archivedate
tRp673
I425
sg2
(Vprop:blpimdbrefimprove
tRp674
I732
sg2
(Vdbo:office
tRp675
I563
sg2
(Vprop:yearofbirth
tRp676
I274
sg2
(Vprop:allmusic
tRp677
I156
sg2
(Vprop:commons
tRp678
I213
sg2
(Vprop:fanpov
tRp679
I290
sg2
(Vdbo:birthplace
tRp680
I383
sg2
(Vprop:fa
tRp681
I407
sg2
(Vprop:recent
tRp682
I268
sg2
(Vprop:associatedacts
tRp683
I22
sg2
(Vprop:text
tRp684
I262
sg2
(Vprop:knownfor
tRp685
I264
sg2
(Vprop:schools
tRp686
I539
sg2
(Vprop:facilityid
tRp687
I415
sg2
(Vprop:color
tRp688
I472
sg2
(Vprop:notablealbums
tRp689
I194
sg2
(Vprop:rev15score
tRp690
I278
sg2
(Vprop:start
tRp691
I581
sg2
(Vprop:expert
tRp692
I738
sg2
(Vprop:bsides
tRp693
I700
sg2
(Vprop:rev20score
tRp694
I619
sg2
(Vprop:peak16e
tRp695
I482
sg2
(Vprop:rev24score
tRp696
I537
sg2
(Vprop:peak16g
tRp697
I710
sg2
(Vprop:class
tRp698
I67
sg2
(Vprop:peak16a
tRp699
I636
sg2
(Vprop:peak16c
tRp700
I496
sg2
(Vprop:peak16b
tRp701
I721
sg2
(Vprop:lastalbum
tRp702
I25
sg2
(Vprop:nrjw
tRp703
I529
sg2
(Vprop:peak16i
tRp704
I346
sg2
(Vprop:peak16h
tRp705
I770
sg2
(Vprop:peak16j
tRp706
I550
sg2
(Vprop:archiveurl
tRp707
I589
sg2
(Vprop:nrjn
tRp708
I678
sg2
(Vprop:liststyle
tRp709
I200
sg2
(Vprop:draws
tRp710
I568
sg2
(Vprop:multidisc
tRp711
I437
sg2
(Vprop:background
tRp712
I32
sg2
(Vprop:othercontributors
tRp713
I267
sg2
(Vprop:notableworks
tRp714
I565
sg2
(Vprop:peak5b
tRp715
I260
sg2
(Vprop:nmew
tRp716
I709
sg2
(Vprop:titlewidth
tRp717
I374
sg2
(Vprop:peak5a
tRp718
I298
sg2
(Vprop:coverart
tRp719
I633
sg2
(Vhttp://xmlns.com/foaf/0.1/surname
tRp720
I26
sg2
(Vprop:pnd
tRp721
I181
sg2
(Vprop:imgcaption
tRp722
I541
sg2
(Vprop:species
tRp723
I257
sg2
(Vprop:wife
tRp724
I534
sg2
(Vdbo:associatedband
tRp725
I16
sg2
(Vprop:pseudonym
tRp726
I658
sg2
(Vprop:peak8a
tRp727
I57
sg2
(Vprop:legalname
tRp728
I647
sg2
(Vprop:peak8c
tRp729
I495
sg2
(Vprop:peak8b
tRp730
I419
sg2
(Vprop:peak8e
tRp731
I612
sg2
(Vprop:peak8d
tRp732
I726
sg2
(Vprop:peak8g
tRp733
I98
sg2
(Vprop:peak8f
tRp734
I699
sg2
(Vprop:peak8i
tRp735
I665
sg2
(Vprop:peak8h
tRp736
I163
sg2
(Vprop:country
tRp737
I384
sg2
(Vprop:style
tRp738
I356
sg2
(Vprop:eptmoneyfinishes
tRp739
I579
sg2
(Vprop:publisher
tRp740
I112
sg2
(Vdbo:alias
tRp741
I51
sg2
(Vprop:latestalbum
tRp742
I353
sg2
(Vprop:cert
tRp743
I176
sg2
(Vprop:leadtooshort
tRp744
I206
sg2
(Vprop:numseasons
tRp745
I187
sg2
(Vdbo:activeyearsendyear
tRp746
I31
sg2
(Vdbo:birthdate
tRp747
I7
sg2
(Vprop:nickname
tRp748
I458
sg2
(Vdbo:picture
tRp749
I468
sg2
(Vprop:prose
tRp750
I754
sg2
(Vprop:mtveuropen
tRp751
I536
sg2
(Vhttp://xmlns.com/foaf/0.1/givenname
tRp752
I6
sg2
(Vprop:posttext
tRp753
I657
sg2
(Vprop:headline
tRp754
I35
sg2
(Vprop:relationshipstatus
tRp755
I367
sg2
(Vprop:orphan
tRp756
I646
sg2
(Vprop:trainer
tRp757
I522
sg2
(Vprop:notableinstruments
tRp758
I115
sg2
(Vprop:alternativenames
tRp759
I19
sg2
(Vprop:firstaired
tRp760
I376
sg2
(Vprop:variouspastmembers
tRp761
I137
sg2
(Vprop:showname
tRp762
I497
sg2
(Vprop:artist
tRp763
I66
sg2
(Vprop:aliases
tRp764
I382
sg2
(Vprop:relationships
tRp765
I193
sg2
(Vprop:livelink
tRp766
I182
sg2
(Vprop:mtvjapanw
tRp767
I772
sg2
(Vprop:pureurl
tRp768
I135
sg2
(Vprop:footer
tRp769
I230
sg2
(Vprop:order
tRp770
I487
sg2
(Vprop:blpsources
tRp771
I210
sg2
(Vprop:musicalinfluences
tRp772
I344
sg2
(Vprop:shoesize
tRp773
I304
sg2
(Vprop:mtvjapann
tRp774
I755
sg2
(Vprop:landscape
tRp775
I14
sg2
(Vprop:associated
tRp776
I385
s.