(dp1
crdflib.term
URIRef
p2
(Vhttps://www.scads.de/movieBenchmark/ontology/is_episode_of
tRp3
I9
sg2
(Vhttps://www.scads.de/movieBenchmark/ontology/runtimeMinutes
tRp4
I10
sg2
(Vhttps://www.scads.de/movieBenchmark/ontology/primaryProfessions
tRp5
I18
sg2
(Vhttp://dbpedia.org/ontology/TVDB/abstract
tRp6
I15
sg2
(Vhttp://dbpedia.org/ontology/episodeNumber
tRp7
I6
sg2
(Vhttp://dbpedia.org/ontology/deathYear
tRp8
I19
sg2
(Vhttps://www.scads.de/movieBenchmark/ontology/name
tRp9
I1
sg2
(Vhttps://www.scads.de/movieBenchmark/ontology/TVDB/status
tRp10
I17
sg2
(Vhttps://www.scads.de/movieBenchmark/ontology/isAdult
tRp11
I4
sg2
(Vhttps://www.scads.de/movieBenchmark/ontology/TVDB/job
tRp12
I16
sg2
(Vhttps://www.scads.de/movieBenchmark/ontology/participated_in
tRp13
I2
sg2
(Vhttps://www.scads.de/movieBenchmark/ontology/originalTitle
tRp14
I3
sg2
(Vhttp://dbpedia.org/ontology/seasonNumber
tRp15
I5
sg2
(Vhttps://www.scads.de/movieBenchmark/ontology/startYear
tRp16
I7
sg2
(Vhttp://dbpedia.org/ontology/birthYear
tRp17
I13
sg2
(Vhttps://www.scads.de/movieBenchmark/ontology/endYear
tRp18
I12
sg2
(Vhttp://dbpedia.org/ontology/TVDB/releaseDate
tRp19
I14
sg2
(Vhttps://www.scads.de/movieBenchmark/ontology/genre_list
tRp20
I8
sg2
(Vhttps://www.scads.de/movieBenchmark/ontology/title
tRp21
I11
sS'<NONE>'
p22
I0
s.