(lp1
I0
aI2
aI15
aI22
aI23
aI24
aI29
aI43
aI57
aI58
aI60
aI62
aI70
aI75
aI83
aI84
aI91
aI92
aI96
aI97
aI98
aI99
aI101
aI104
aI105
aI106
aI110
aI111
aI115
aI116
aI121
aI122
aI141
aI144
aI151
aI164
aI165
aI166
aI170
aI179
aI184
aI185
aI194
aI195
aI205
aI207
aI211
aI212
aI216
aI225
aI230
aI234
aI235
aI237
aI238
aI242
aI247
aI250
aI252
aI255
aI263
aI264
aI267
aI268
aI269
aI273
aI274
aI275
aI276
aI282
aI284
aI286
aI297
aI301
aI305
aI306
aI311
aI322
aI324
aI328
aI334
aI335
aI336
aI348
aI349
aI352
aI356
aI358
aI359
aI362
aI368
aI372
aI373
aI377
aI383
aI393
aI400
aI407
aI415
aI418
aI419
aI420
aI424
aI425
aI426
aI429
aI432
aI436
aI437
aI438
aI441
aI456
aI457
aI458
aI460
aI461
aI463
aI464
aI465
aI467
aI478
aI480
aI481
aI485
aI491
aI494
aI495
aI496
aI497
aI507
aI510
aI520
aI522
aI523
aI524
aI527
aI528
aI529
aI530
aI535
aI537
aI540
aI541
aI543
aI545
aI546
aI551
aI552
aI555
aI560
aI561
aI568
aI580
aI581
aI590
aI591
aI592
aI595
aI597
aI598
aI600
aI601
aI610
aI611
aI615
aI621
aI622
aI623
aI626
aI628
aI629
aI631
aI636
aI637
aI638
aI641
aI642
aI646
aI647
aI648
aI669
aI670
aI674
aI676
aI677
aI678
aI679
aI692
aI693
aI694
aI701
aI705
aI710
aI711
aI712
aI718
aI721
aI722
aI732
aI736
aI740
aI741
aI743
aI760
aI764
aI767
aI770
aI773
aI778
aI780
aI782
aI785
aI787
aI796
aI797
aI801
aI802
aI803
aI805
aI807
aI808
aI809
aI810
aI813
aI814
aI815
aI823
aI825
aI829
aI833
aI838
aI839
aI841
aI843
aI844
aI851
aI853
aI858
aI860
aI861
aI863
aI871
aI880
aI884
aI886
aI887
aI888
aI889
aI891
aI894
aI895
aI896
aI898
aI905
aI907
aI908
aI909
aI914
aI915
aI916
aI917
aI920
aI921
aI924
aI927
aI928
aI933
aI941
aI947
aI950
aI952
aI955
aI956
aI959
aI960
aI963
aI965
aI966
aI968
aI969
aI970
aI971
aI978
aI979
aI980
aI983
aI984
aI985
aI988
aI994
aI997
aI1002
aI1006
aI1007
aI1020
aI1023
aI1024
aI1025
aI1026
aI1030
aI1032
aI1033
aI1040
aI1046
aI1047
aI1048
aI1049
aI1052
aI1055
aI1056
aI1057
aI1064
aI1066
aI1075
aI1080
aI1107
aI1108
aI1109
aI1115
aI1116
aI1120
aI1123
aI1128
aI1130
aI1131
aI1135
aI1136
aI1138
aI1139
aI1140
aI1141
aI1144
aI1149
aI1150
aI1151
aI1152
aI1155
aI1158
aI1159
aI1162
aI1172
aI1173
aI1176
aI1178
aI1180
aI1181
aI1182
aI1192
aI1196
aI1201
aI1202
aI1211
aI1212
aI1215
aI1231
aI1234
aI1235
aI1240
aI1245
aI1246
aI1257
aI1260
aI1262
aI1265
aI1266
aI1267
aI1271
aI1276
aI1277
aI1278
aI1281
aI1282
aI1291
aI1293
aI1297
aI1298
aI1300
aI1303
aI1304
aI1305
aI1306
aI1310
aI1313
aI1314
aI1321
aI1323
aI1329
aI1334
aI1347
aI1350
aI1355
aI1365
aI1383
aI1384
aI1387
aI1388
aI1390
aI1392
aI1405
aI1407
aI1408
aI1411
aI1412
aI1420
aI1421
aI1423
aI1426
aI1433
aI1434
aI1435
aI1440
aI1444
aI1445
aI1450
aI1454
aI1456
aI1457
aI1466
aI1473
aI1474
aI1476
aI1478
aI1480
aI1481
aI1486
aI1488
aI1489
aI1491
aI1494
aI1495
aI1496
aI1497
aI1504
aI1510
aI1527
aI1528
aI1530
aI1532
aI1548
aI1549
aI1556
aI1559
aI1560
aI1572
aI1583
aI1584
aI1586
aI1589
aI1590
aI1592
aI1597
aI1611
aI1614
aI1623
aI1624
aI1625
aI1627
aI1628
aI1629
aI1633
aI1641
aI1642
aI1644
aI1651
aI1652
aI1653
aI1656
aI1657
aI1658
aI1659
aI1660
aI1661
aI1663
aI1664
aI1666
aI1667
aI1671
aI1682
aI1684
aI1686
aI1703
aI1704
aI1712
aI1714
aI1725
aI1731
aI1733
aI1735
aI1745
aI1748
aI1752
aI1755
aI1759
aI1765
aI1767
aI1769
aI1771
aI1772
aI1773
aI1774
aI1782
aI1783
aI1794
aI1796
aI1800
aI1803
aI1813
aI1816
aI1824
aI1828
aI1829
aI1830
aI1837
aI1844
aI1849
aI1851
aI1868
aI1869
aI1870
aI1878
aI1879
aI1882
aI1884
aI1897
aI1901
aI1908
aI1932
aI1936
aI1943
aI1948
aI1950
aI1951
aI1953
aI1954
aI1956
aI1957
aI1960
aI1968
aI1976
aI1977
aI1978
aI1980
aI1984
aI1986
aI1987
aI1988
aI1991
aI1992
aI1995
aI2002
aI2004
aI2010
aI2011
aI2013
aI2020
aI2025
aI2027
aI2028
aI2029
aI2032
aI2036
aI2040
aI2041
aI2046
aI2049
aI2050
aI2055
aI2066
aI2067
aI2072
aI2073
aI2076
aI2077
aI2078
aI2083
aI2084
aI2086
aI2087
aI2088
aI2097
aI2098
aI2100
aI2106
aI2109
aI2110
aI2114
aI2124
aI2133
aI2135
aI2136
aI2138
aI2139
aI2144
aI2152
aI2154
aI2163
aI2165
aI2174
aI2175
aI2177
aI2178
aI2179
aI2180
aI2182
aI2187
aI2189
aI2191
aI2193
aI2202
aI2208
aI2210
aI2226
aI2229
aI2231
aI2242
aI2244
aI2247
aI2252
aI2253
aI2254
aI2255
aI2261
aI2262
aI2264
aI2271
aI2274
aI2285
aI2286
aI2289
aI2290
aI2301
aI2303
aI2307
aI2308
aI2309
aI2315
aI2317
aI2323
aI2328
aI2329
aI2335
aI2336
aI2343
aI2344
aI2349
aI2351
aI2355
aI2357
aI2358
aI2359
aI2375
aI2376
aI2378
aI2379
aI2385
aI2386
aI2394
aI2396
aI2397
aI2421
aI2422
aI2423
aI2424
aI2425
aI2427
aI2428
aI2441
aI2442
aI2444
aI2445
aI2448
aI2453
aI2460
aI2463
aI2464
aI2465
aI2471
aI2473
aI2475
aI2477
aI2483
aI2484
aI2491
aI2495
aI2496
aI2497
aI2499
aI2507
aI2511
aI2522
aI2523
aI2527
aI2528
aI2536
aI2541
aI2545
aI2549
aI2551
aI2558
aI2571
aI2574
aI2575
aI2579
aI2583
aI2584
aI2596
aI2606
aI2609
aI2625
aI2632
aI2633
aI2635
aI2636
aI2648
aI2654
aI2660
aI2661
aI2664
aI2671
aI2673
aI2693
aI2696
aI2700
aI2702
aI2711
aI2715
aI2719
aI2720
aI2721
aI2723
aI2724
aI2728
aI2733
aI2735
aI2739
aI2740
aI2741
aI2743
aI2762
aI2764
aI2766
aI2777
aI2783
aI2804
aI2808
aI2830
aI2833
aI2835
aI2839
aI2847
aI2848
aI2856
aI2876
aI2882
aI2886
aI2889
aI2896
aI2901
aI2911
aI2913
aI2926
aI2928
aI2932
aI2933
aI2934
aI2941
aI2950
aI2951
aI2952
aI2953
aI2958
aI2971
aI2974
aI2978
aI2980
aI2984
aI2994
aI2995
aI2996
aI2997
aI2998
aI3002
aI3008
aI3019
aI3021
aI3030
aI3033
aI3034
aI3035
aI3036
aI3037
aI3038
aI3039
aI3052
aI3053
aI3057
aI3063
aI3069
aI3076
aI3078
aI3081
aI3084
aI3096
aI3097
aI3115
aI3128
aI3130
aI3136
aI3138
aI3144
aI3150
aI3157
aI3159
aI3183
aI3196
aI3197
aI3199
aI3206
aI3214
aI3220
aI3233
aI3234
aI3252
aI3254
aI3259
aI3261
aI3269
aI3273
aI3278
aI3288
aI3289
aI3292
aI3301
aI3308
aI3330
aI3342
aI3344
aI3347
aI3357
aI3374
a.