(lp1
(lp2
(lp3
I7759
aI186
aI1
aI24
aa(lp4
I50
aI35
aI24
aI35
aI26
aI14
aI35
aI0
aI0
aI0
aa(lp5
F0.0004342285746751402
aaa(lp6
(lp7
I5511
aI186
aI1
aI24
aa(lp8
I87
aI15
aI25
aI42
aI0
aI0
aI0
aI0
aI0
aI0
aa(lp9
F0.0004342285746751402
aaa(lp10
(lp11
I7759
aI186
aI1
aI24
aa(lp12
I78
aI18
aI15
aI53
aI19
aI0
aI0
aI0
aI0
aI0
aa(lp13
F0.0004342285746751402
aaa(lp14
(lp15
I21030
aI186
aI1
aI24
aa(lp16
I78
aI35
aI68
aI108
aI52
aI15
aI26
aI0
aI0
aI0
aa(lp17
F0.0004342285746751402
aaa(lp18
(lp19
I16354
aI273
aI1
aI24
aa(lp20
I92
aI20
aI24
aI62
aI14
aI35
aI55
aI0
aI0
aI0
aa(lp21
F5.2756742717540398e-05
aaa(lp22
(lp23
I1747
aI186
aI1
aI24
aa(lp24
I73
aI20
aI35
aI21
aI36
aI52
aI53
aI0
aI0
aI0
aa(lp25
F0.0004342285746751402
aaa(lp26
(lp27
I6018
aI186
aI1
aI24
aa(lp28
I73
aI20
aI35
aI0
aI0
aI0
aI0
aI0
aI0
aI0
aa(lp29
F0.0004342285746751402
aaa(lp30
(lp31
I10012
aI186
aI1
aI24
aa(lp32
I87
aI20
aI25
aI47
aI35
aI21
aI0
aI0
aI0
aI0
aa(lp33
F0.0004342285746751402
aaa(lp34
(lp35
I30637
aI186
aI1
aI24
aa(lp36
I17
aI51
aI207
aI25
aI21
aI16
aI63
aI25
aI20
aI26
aa(lp37
F0.0004342285746751402
aaa(lp38
(lp39
I13804
aI186
aI1
aI24
aa(lp40
I78
aI35
aI26
aI18
aI21
aI0
aI0
aI0
aI0
aI0
aa(lp41
F0.0004342285746751402
aaa(lp42
(lp43
I9811
aI186
aI1
aI24
aa(lp44
I38
aI21
aI62
aI18
aI0
aI0
aI0
aI0
aI0
aI0
aa(lp45
F0.0004342285746751402
aaa(lp46
(lp47
I4178
aI186
aI1
aI24
aa(lp48
I78
aI15
aI21
aI21
aI20
aI27
aI15
aI25
aI0
aI0
aa(lp49
F0.0004342285746751402
aaa(lp50
(lp51
I34669
aI186
aI1
aI24
aa(lp52
I63
aI35
aI25
aI18
aI53
aI0
aI0
aI0
aI0
aI0
aa(lp53
F0.0004342285746751402
aaa(lp54
(lp55
I30802
aI186
aI1
aI24
aa(lp56
I17
aI15
aI35
aI52
aI0
aI0
aI0
aI0
aI0
aI0
aa(lp57
F0.0004342285746751402
aaa(lp58
(lp59
I95
aI186
aI1
aI24
aa(lp60
I63
aI19
aI8
aI73
aI35
aI21
aI20
aI0
aI0
aI0
aa(lp61
F0.0004342285746751402
aaa(lp62
(lp63
I15099
aI186
aI1
aI24
aa(lp64
I48
aI35
aI40
aI20
aI35
aI21
aI16
aI57
aI18
aI58
aa(lp65
F0.0004342285746751402
aaa(lp66
(lp67
I4028
aI186
aI1
aI24
aa(lp68
I63
aI18
aI15
aI53
aI0
aI0
aI0
aI0
aI0
aI0
aa(lp69
F0.0004342285746751402
aaa(lp70
(lp71
I2335
aI186
aI1
aI24
aa(lp72
I73
aI20
aI68
aI14
aI35
aI15
aI53
aI0
aI0
aI0
aa(lp73
F0.0004342285746751402
aaa(lp74
(lp75
I30802
aI186
aI1
aI24
aa(lp76
I78
aI15
aI27
aI27
aI0
aI0
aI0
aI0
aI0
aI0
aa(lp77
F0.0004342285746751402
aaa(lp78
(lp79
I20340
aI273
aI1
aI24
aa(lp80
I61
aI25
aI35
aI21
aI68
aI20
aI26
aI0
aI0
aI0
aa(lp81
F5.2756742717540398e-05
aaa(lp82
(lp83
I22920
aI186
aI1
aI24
aa(lp84
I57
aI18
aI58
aI15
aI25
aI24
aI0
aI0
aI0
aI0
aa(lp85
F0.0004342285746751402
aaa(lp86
(lp87
I18275
aI273
aI1
aI24
aa(lp88
I86
aI20
aI53
aI14
aI15
aI53
aI40
aI0
aI0
aI0
aa(lp89
F5.2756742717540398e-05
aaa(lp90
(lp91
I7745
aI186
aI1
aI24
aa(lp92
I63
aI15
aI53
aI53
aI19
aI0
aI0
aI0
aI0
aI0
aa(lp93
F0.0004342285746751402
aaa(lp94
(lp95
I18874
aI186
aI1
aI24
aa(lp96
I23
aI14
aI35
aI52
aI21
aI0
aI0
aI0
aI0
aI0
aa(lp97
F0.0004342285746751402
aaa(lp98
(lp99
I33239
aI186
aI1
aI24
aa(lp100
I39
aI35
aI21
aI42
aI20
aI68
aI15
aI0
aI0
aI0
aa(lp101
F0.0004342285746751402
aaa(lp102
(lp103
I12408
aI186
aI1
aI24
aa(lp104
I61
aI25
aI35
aI21
aI68
aI20
aI26
aI0
aI0
aI0
aa(lp105
F0.0004342285746751402
aaa(lp106
(lp107
I13493
aI186
aI1
aI24
aa(lp108
I57
aI35
aI21
aI35
aI0
aI0
aI0
aI0
aI0
aI0
aa(lp109
F0.0004342285746751402
aaa(lp110
(lp111
I20155
aI273
aI1
aI24
aa(lp112
I78
aI18
aI14
aI21
aI0
aI0
aI0
aI0
aI0
aI0
aa(lp113
F5.2756742717540398e-05
aaa(lp114
(lp115
I22061
aI186
aI1
aI24
aa(lp116
I13
aI18
aI21
aI19
aI0
aI0
aI0
aI0
aI0
aI0
aa(lp117
F0.0004342285746751402
aaa(lp118
(lp119
I14256
aI186
aI1
aI24
aa(lp120
I48
aI35
aI47
aI20
aI42
aI0
aI0
aI0
aI0
aI0
aa(lp121
F0.0004342285746751402
aaa(lp122
(lp123
I36630
aI186
aI1
aI24
aa(lp124
I48
aI35
aI47
aI20
aI42
aI0
aI0
aI0
aI0
aI0
aa(lp125
F0.0004342285746751402
aaa(lp126
(lp127
I18979
aI186
aI1
aI24
aa(lp128
I13
aI20
aI21
aI21
aI52
aI0
aI0
aI0
aI0
aI0
aa(lp129
F0.0004342285746751402
aaa(lp130
(lp131
I12987
aI186
aI1
aI24
aa(lp132
I57
aI18
aI58
aI15
aI25
aI24
aI0
aI0
aI0
aI0
aa(lp133
F0.0004342285746751402
aaa(lp134
(lp135
I4334
aI186
aI1
aI24
aa(lp136
I17
aI18
aI21
aI36
aI58
aI18
aI21
aI36
aI0
aI0
aa(lp137
F0.0004342285746751402
aaa(lp138
(lp139
I1997
aI186
aI1
aI24
aa(lp140
I72
aI35
aI25
aI20
aI55
aI26
aI14
aI20
aI24
aI0
aa(lp141
F0.0004342285746751402
aaa(lp142
(lp143
I34557
aI186
aI1
aI24
aa(lp144
I61
aI25
aI15
aI42
aI15
aI25
aI20
aI68
aI55
aI0
aa(lp145
F0.0004342285746751402
aaa(lp146
(lp147
I95
aI186
aI1
aI24
aa(lp148
I48
aI35
aI40
aI20
aI35
aI21
aI0
aI0
aI0
aI0
aa(lp149
F0.0004342285746751402
aaa(lp150
(lp151
I33239
aI186
aI1
aI24
aa(lp152
I41
aI53
aI15
aI56
aI35
aI21
aI42
aI25
aI35
aI0
aa(lp153
F0.0004342285746751402
aaa(lp154
(lp155
I11866
aI186
aI1
aI24
aa(lp156
I79
aI26
aI15
aI47
aI18
aI53
aI18
aI42
aI0
aI0
aa(lp157
F0.0004342285746751402
aaa(lp158
(lp159
I14256
aI186
aI1
aI24
aa(lp160
I57
aI18
aI58
aI15
aI25
aI24
aI0
aI0
aI0
aI0
aa(lp161
F0.0004342285746751402
aaa(lp162
(lp163
I46878
aI273
aI1
aI24
aa(lp164
I57
aI20
aI68
aI14
aI35
aI25
aI42
aI0
aI0
aI0
aa(lp165
F5.2756742717540398e-05
aaa(lp166
(lp167
I95
aI186
aI1
aI24
aa(lp168
I23
aI24
aI15
aI37
aI14
aI15
aI21
aI0
aI0
aI0
aa(lp169
F0.0004342285746751402
aaa(lp170
(lp171
I18812
aI186
aI1
aI24
aa(lp172
I57
aI18
aI42
aI25
aI20
aI36
aI18
aI0
aI0
aI0
aa(lp173
F0.0004342285746751402
aaa(lp174
(lp175
I2794
aI186
aI1
aI24
aa(lp176
I72
aI15
aI24
aI15
aI25
aI0
aI0
aI0
aI0
aI0
aa(lp177
F0.0004342285746751402
aaa(lp178
(lp179
I36525
aI273
aI1
aI24
aa(lp180
I73
aI20
aI68
aI14
aI35
aI15
aI53
aI0
aI0
aI0
aa(lp181
F5.2756742717540398e-05
aaa(lp182
(lp183
I4624
aI186
aI1
aI24
aa(lp184
I73
aI20
aI35
aI0
aI0
aI0
aI0
aI0
aI0
aI0
aa(lp185
F0.0004342285746751402
aaa(lp186
(lp187
I5516
aI186
aI1
aI24
aa(lp188
I57
aI35
aI51
aI0
aI0
aI0
aI0
aI0
aI0
aI0
aa(lp189
F0.0004342285746751402
aaa(lp190
(lp191
I18873
aI186
aI1
aI24
aa(lp192
I91
aI26
aI35
aI58
aI15
aI53
aI53
aI35
aI0
aI0
aa(lp193
F0.0004342285746751402
aaa(lp194
(lp195
I46534
aI273
aI1
aI24
aa(lp196
I39
aI14
aI35
aI25
aI53
aI15
aI26
aI0
aI0
aI0
aa(lp197
F5.2756742717540398e-05
aaa(lp198
(lp199
I24267
aI186
aI1
aI24
aa(lp200
I39
aI35
aI25
aI25
aI20
aI15
aI0
aI0
aI0
aI0
aa(lp201
F0.0004342285746751402
aaa(lp202
(lp203
I22647
aI186
aI1
aI24
aa(lp204
I23
aI14
aI35
aI52
aI21
aI16
aI72
aI35
aI52
aI53
aa(lp205
F0.0004342285746751402
aaa(lp206
(lp207
I44567
aI186
aI1
aI24
aa(lp208
I102
aI42
aI35
aI19
aI0
aI0
aI0
aI0
aI0
aI0
aa(lp209
F0.0004342285746751402
aaa(lp210
(lp211
I1977
aI186
aI1
aI24
aa(lp212
I23
aI68
aI18
aI24
aI24
aI0
aI0
aI0
aI0
aI0
aa(lp213
F0.0004342285746751402
aaa(lp214
(lp215
I19405
aI186
aI1
aI24
aa(lp216
I78
aI18
aI53
aI18
aI0
aI0
aI0
aI0
aI0
aI0
aa(lp217
F0.0004342285746751402
aaa(lp218
(lp219
I15477
aI186
aI1
aI24
aa(lp220
I73
aI20
aI53
aI15
aI19
aI0
aI0
aI0
aI0
aI0
aa(lp221
F0.0004342285746751402
aaa(lp222
(lp223
I11092
aI186
aI1
aI24
aa(lp224
I41
aI21
aI36
aI15
aI53
aI35
aI0
aI0
aI0
aI0
aa(lp225
F0.0004342285746751402
aaa(lp226
(lp227
I34579
aI273
aI1
aI24
aa(lp228
I79
aI15
aI25
aI35
aI0
aI0
aI0
aI0
aI0
aI0
aa(lp229
F5.2756742717540398e-05
aaa(lp230
(lp231
I9161
aI186
aI1
aI24
aa(lp232
I78
aI52
aI53
aI20
aI15
aI24
aI0
aI0
aI0
aI0
aa(lp233
F0.0004342285746751402
aaa(lp234
(lp235
I3511
aI186
aI1
aI24
aa(lp236
I78
aI18
aI21
aI35
aI24
aI14
aI35
aI21
aI0
aI0
aa(lp237
F0.0004342285746751402
aaa(lp238
(lp239
I41349
aI273
aI1
aI24
aa(lp240
I57
aI18
aI36
aI15
aI25
aI0
aI0
aI0
aI0
aI0
aa(lp241
F5.2756742717540398e-05
aaa.