(dp1
crdflib.term
URIRef
p2
(Vhttp://dbpedia.org/ontology/numberOfSeasons
tRp3
I130
sg2
(Vhttp://dbpedia.org/ontology/populationMetroDensity
tRp4
I223
sg2
(Vhttp://dbpedia.org/ontology/runwayDesignation
tRp5
I362
sg2
(Vhttp://dbpedia.org/ontology/activeYearsEndDate
tRp6
I155
sg2
(Vhttp://dbpedia.org/ontology/slogan
tRp7
I125
sg2
(Vhttp://dbpedia.org/ontology/routeEnd
tRp8
I425
sg2
(Vhttp://dbpedia.org/ontology/geologicPeriod
tRp9
I447
sg2
(Vhttp://dbpedia.org/ontology/headLabel
tRp10
I450
sg2
(Vhttp://dbpedia.org/ontology/birthName
tRp11
I50
sg2
(Vhttp://dbpedia.org/ontology/isPartOf
tRp12
I20
sg2
(Vhttp://dbpedia.org/ontology/nationality
tRp13
I123
sg2
(Vhttp://dbpedia.org/ontology/distanceToLondon
tRp14
I224
sg2
(Vhttp://dbpedia.org/ontology/bnfId
tRp15
I453
sg2
(Vhttp://dbpedia.org/ontology/internationally
tRp16
I243
sg2
(Vhttp://dbpedia.org/ontology/oclc
tRp17
I343
sg2
(Vhttp://dbpedia.org/ontology/minimumDischarge
tRp18
I444
sg2
(Vhttp://dbpedia.org/ontology/draftYear
tRp19
I171
sg2
(Vhttp://dbpedia.org/ontology/district
tRp20
I191
sg2
(Vhttp://dbpedia.org/ontology/narrator
tRp21
I250
sg2
(Vhttp://dbpedia.org/ontology/result
tRp22
I131
sg2
(Vhttp://dbpedia.org/ontology/predecessor
tRp23
I200
sg2
(Vhttp://dbpedia.org/ontology/numberOfTeams
tRp24
I393
sg2
(Vhttp://dbpedia.org/ontology/firstGame
tRp25
I120
sg2
(Vhttp://dbpedia.org/ontology/meaning
tRp26
I383
sg2
(Vhttp://dbpedia.org/ontology/spokenIn
tRp27
I351
sg2
(Vhttp://dbpedia.org/ontology/netIncome
tRp28
I339
sg2
(Vhttp://dbpedia.org/ontology/viafId
tRp29
I231
sg2
(Vhttp://dbpedia.org/ontology/militaryUnitSize
tRp30
I391
sg2
(Vhttp://dbpedia.org/ontology/buildingEndDate
tRp31
I382
sg2
(Vhttp://yago-knowledge.org/resource/isMarriedTo
tRp32
I91
sg2
(Vhttp://purl.org/dc/elements/1.1/description
tRp33
I22
sg2
(Vhttp://dbpedia.org/ontology/owningCompany
tRp34
I113
sg2
(Vhttp://dbpedia.org/ontology/activeYearsEndYear
tRp35
I42
sg2
(Vhttp://dbpedia.org/ontology/isoCodeRegion
tRp36
I143
sg2
(Vhttp://dbpedia.org/ontology/producer
tRp37
I86
sg2
(Vhttp://dbpedia.org/ontology/digitalChannel
tRp38
I173
sg2
(Vhttp://dbpedia.org/ontology/lineLength
tRp39
I458
sg2
(Vhttp://yago-knowledge.org/resource/wasCreatedOnDate
tRp40
I5
sg2
(Vhttp://dbpedia.org/ontology/recordDate
tRp41
I269
sg2
(Vhttp://dbpedia.org/ontology/numberOfUndergraduateStudents
tRp42
I68
sg2
(Vhttp://dbpedia.org/ontology/eyeColor
tRp43
I433
sg2
(Vhttp://dbpedia.org/ontology/subsequentWork
tRp44
I176
sg2
(Vhttp://dbpedia.org/ontology/related
tRp45
I321
sg2
(Vhttp://dbpedia.org/ontology/committee
tRp46
I400
sg2
(Vhttp://dbpedia.org/ontology/areaLand
tRp47
I111
sg2
(Vhttp://dbpedia.org/ontology/fate
tRp48
I330
sg2
(Vhttp://dbpedia.org/ontology/geology
tRp49
I59
sg2
(Vhttp://dbpedia.org/ontology/trackNumber
tRp50
I184
sg2
(Vhttp://dbpedia.org/ontology/managerClub
tRp51
I75
sg2
(Vhttp://yago-knowledge.org/resource/wasDestroyedOnDate
tRp52
I35
sg2
(Vhttp://dbpedia.org/ontology/populationTotal
tRp53
I95
sg2
(Vhttp://dbpedia.org/ontology/undraftedYear
tRp54
I426
sg2
(Vhttp://dbpedia.org/ontology/composer
tRp55
I78
sg2
(Vhttp://dbpedia.org/ontology/cityType
tRp56
I338
sg2
(Vhttp://yago-knowledge.org/resource/isCitizenOf
tRp57
I116
sg2
(Vhttp://dbpedia.org/ontology/callsignMeaning
tRp58
I109
sg2
(Vhttp://dbpedia.org/ontology/stateOfOrigin
tRp59
I320
sg2
(Vhttp://dbpedia.org/ontology/aSide
tRp60
I114
sg2
(Vhttp://dbpedia.org/ontology/date
tRp61
I47
sg2
(Vhttp://dbpedia.org/ontology/routeNumber
tRp62
I228
sg2
(Vhttp://yago-knowledge.org/resource/hasGini
tRp63
I195
sg2
(Vhttp://dbpedia.org/ontology/lowest
tRp64
I248
sg2
(Vhttp://dbpedia.org/ontology/capitalRegion
tRp65
I345
sg2
(Vhttp://dbpedia.org/ontology/broadcastStationClass
tRp66
I281
sg2
(Vhttp://dbpedia.org/ontology/networth
tRp67
I151
sg2
(Vhttp://dbpedia.org/ontology/presenter
tRp68
I367
sg2
(Vhttp://dbpedia.org/ontology/president
tRp69
I261
sg2
(Vhttp://dbpedia.org/ontology/populationTotalRanking
tRp70
I145
sg2
(Vhttp://dbpedia.org/ontology/bandMember
tRp71
I137
sg2
(Vhttp://dbpedia.org/ontology/governmentElevation
tRp72
I353
sg2
(Vhttp://dbpedia.org/ontology/capital
tRp73
I178
sg2
(Vhttp://dbpedia.org/ontology/shareSource
tRp74
I278
sg2
(Vhttp://yago-knowledge.org/resource/skos:prefLabel
tRp75
I12
sg2
(Vhttp://dbpedia.org/ontology/pseudonym
tRp76
I61
sg2
(Vhttp://dbpedia.org/ontology/course
tRp77
I286
sg2
(Vhttp://dbpedia.org/ontology/relative
tRp78
I214
sg2
(Vhttp://dbpedia.org/ontology/serviceNumber
tRp79
I360
sg2
(Vhttp://dbpedia.org/ontology/censusYear
tRp80
I136
sg2
(Vhttp://dbpedia.org/ontology/numberOfEpisodes
tRp81
I160
sg2
(Vhttp://dbpedia.org/ontology/otherParty
tRp82
I179
sg2
(Vhttp://dbpedia.org/ontology/cost
tRp83
I417
sg2
(Vhttp://dbpedia.org/ontology/foundingYear
tRp84
I148
sg2
(Vhttp://dbpedia.org/ontology/highestState
tRp85
I449
sg2
(Vhttp://dbpedia.org/ontology/regionServed
tRp86
I397
sg2
(Vhttp://dbpedia.org/ontology/largestWin
tRp87
I317
sg2
(Vhttp://yago-knowledge.org/resource/happenedIn
tRp88
I185
sg2
(Vhttp://dbpedia.org/ontology/areaUrban
tRp89
I222
sg2
(Vhttp://dbpedia.org/ontology/managementElevation
tRp90
I401
sg2
(Vhttp://dbpedia.org/ontology/serviceStartYear
tRp91
I213
sg2
(Vhttp://dbpedia.org/ontology/upperAge
tRp92
I290
sg2
(Vhttp://dbpedia.org/ontology/populationUrbanDensity
tRp93
I221
sg2
(Vhttp://dbpedia.org/ontology/inseeCode
tRp94
I241
sg2
(Vhttp://dbpedia.org/ontology/associatedBand
tRp95
I60
sg2
(Vhttp://dbpedia.org/ontology/debutTeam
tRp96
I162
sg2
(Vhttp://dbpedia.org/ontology/extinctionYear
tRp97
I206
sg2
(Vhttp://dbpedia.org/ontology/maintainedBy
tRp98
I414
sg2
(Vhttp://dbpedia.org/ontology/capitalCountry
tRp99
I464
sg2
(Vhttp://dbpedia.org/ontology/numberOfLocations
tRp100
I372
sg2
(Vhttp://dbpedia.org/ontology/team
tRp101
I11
sg2
(Vhttp://dbpedia.org/ontology/populationAsOf
tRp102
I159
sg2
(Vhttp://dbpedia.org/ontology/office
tRp103
I134
sg2
(Vhttp://dbpedia.org/ontology/architect
tRp104
I435
sg2
(Vhttp://dbpedia.org/ontology/ratio
tRp105
I378
sg2
(Vhttp://dbpedia.org/ontology/numberOfPostgraduateStudents
tRp106
I70
sg2
(Vhttp://dbpedia.org/ontology/height
tRp107
I44
sg2
(Vhttp://dbpedia.org/ontology/id
tRp108
I264
sg2
(Vhttp://dbpedia.org/ontology/numberOfPages
tRp109
I304
sg2
(Vhttp://dbpedia.org/ontology/notes
tRp110
I412
sg2
(Vhttp://dbpedia.org/ontology/deathDate
tRp111
I28
sg2
(Vhttp://dbpedia.org/ontology/leader
tRp112
I187
sg2
(Vhttp://dbpedia.org/ontology/channel
tRp113
I220
sg2
(Vhttp://dbpedia.org/ontology/broadcastArea
tRp114
I271
sg2
(Vhttp://yago-knowledge.org/resource/hasFamilyName
tRp115
I14
sg2
(Vhttp://dbpedia.org/ontology/sourceElevation
tRp116
I403
sg2
(Vhttp://dbpedia.org/ontology/buildingStartYear
tRp117
I402
sg2
(Vhttp://dbpedia.org/ontology/firstAppearance
tRp118
I328
sg2
(Vhttp://yago-knowledge.org/resource/hasImdb
tRp119
I280
sg2
(Vhttp://dbpedia.org/ontology/whaDraft
tRp120
I389
sg2
(Vhttp://xmlns.com/foaf/0.1/name
tRp121
I1
sg2
(Vhttp://dbpedia.org/ontology/operatingIncome
tRp122
I287
sg2
(Vhttp://dbpedia.org/ontology/locationCity
tRp123
I247
sg2
(Vhttp://dbpedia.org/ontology/occupation
tRp124
I170
sg2
(Vhttp://dbpedia.org/ontology/episodeNumber
tRp125
I329
sg2
(Vhttp://dbpedia.org/ontology/averageDepth
tRp126
I407
sg2
(Vhttp://dbpedia.org/ontology/lcc
tRp127
I390
sg2
(Vhttp://dbpedia.org/ontology/width
tRp128
I377
sg2
(Vhttp://yago-knowledge.org/resource/influences
tRp129
I54
sg2
(Vhttp://dbpedia.org/ontology/effectiveRadiatedPower
tRp130
I140
sg2
(Vhttp://dbpedia.org/ontology/numberOfStudents
tRp131
I64
sg2
(Vhttp://dbpedia.org/ontology/formationYear
tRp132
I204
sg2
(Vhttp://dbpedia.org/ontology/runwayLength
tRp133
I439
sg2
(Vhttp://dbpedia.org/ontology/worstDefeat
tRp134
I307
sg2
(Vhttp://dbpedia.org/ontology/border
tRp135
I460
sg2
(Vhttp://dbpedia.org/ontology/releaseDate
tRp136
I46
sg2
(Vhttp://dbpedia.org/ontology/formationDate
tRp137
I82
sg2
(Vhttp://dbpedia.org/ontology/residence
tRp138
I80
sg2
(Vhttp://dbpedia.org/ontology/runwaySurface
tRp139
I462
sg2
(Vhttp://dbpedia.org/ontology/routeStartDirection
tRp140
I405
sg2
(Vhttp://dbpedia.org/ontology/added
tRp141
I282
sg2
(Vhttp://dbpedia.org/ontology/floorCount
tRp142
I459
sg2
(Vhttp://dbpedia.org/ontology/otherName
tRp143
I440
sg2
(Vhttp://dbpedia.org/ontology/populationRural
tRp144
I342
sg2
(Vhttp://dbpedia.org/ontology/metropolitanBorough
tRp145
I466
sg2
(Vhttp://dbpedia.org/ontology/restingPlace
tRp146
I260
sg2
(Vhttp://yago-knowledge.org/resource/wroteMusicFor
tRp147
I62
sg2
(Vhttp://dbpedia.org/ontology/successor
tRp148
I177
sg2
(Vhttp://dbpedia.org/ontology/signature
tRp149
I266
sg2
(Vhttp://dbpedia.org/ontology/imdbId
tRp150
I76
sg2
(Vhttp://yago-knowledge.org/resource/hasGDP
tRp151
I182
sg2
(Vhttp://dbpedia.org/ontology/abbreviation
tRp152
I410
sg2
(Vhttp://dbpedia.org/ontology/mascot
tRp153
I66
sg2
(Vhttp://dbpedia.org/ontology/isbn
tRp154
I334
sg2
(Vhttp://dbpedia.org/ontology/formerBroadcastNetwork
tRp155
I357
sg2
(Vhttp://dbpedia.org/ontology/publisher
tRp156
I333
sg2
(Vhttp://dbpedia.org/ontology/causalties
tRp157
I105
sg2
(Vhttp://dbpedia.org/ontology/vehiclesPerDay
tRp158
I467
sg2
(Vhttp://dbpedia.org/ontology/militaryCommand
tRp159
I332
sg2
(Vhttp://dbpedia.org/ontology/ethnicGroupsInYear
tRp160
I252
sg2
(Vhttp://dbpedia.org/ontology/part
tRp161
I239
sg2
(Vhttp://dbpedia.org/ontology/county
tRp162
I276
sg2
(Vhttp://dbpedia.org/ontology/voice
tRp163
I346
sg2
(Vhttp://dbpedia.org/ontology/lccnId
tRp164
I296
sg2
(Vhttp://dbpedia.org/ontology/draftTeam
tRp165
I117
sg2
(Vhttp://dbpedia.org/ontology/populationMetro
tRp166
I147
sg2
(Vhttp://dbpedia.org/ontology/division
tRp167
I275
sg2
(Vhttp://dbpedia.org/ontology/isPartOfName
tRp168
I437
sg2
(Vhttp://dbpedia.org/ontology/lyrics
tRp169
I373
sg2
(Vhttp://dbpedia.org/ontology/sourceConfluenceElevation
tRp170
I399
sg2
(Vhttp://dbpedia.org/ontology/budget
tRp171
I17
sg2
(Vhttp://dbpedia.org/ontology/birthDate
tRp172
I19
sg2
(Vhttp://dbpedia.org/ontology/openingYear
tRp173
I154
sg2
(Vhttp://dbpedia.org/ontology/cinematography
tRp174
I149
sg2
(Vhttp://dbpedia.org/ontology/coach
tRp175
I319
sg2
(Vhttp://dbpedia.org/ontology/formerBandMember
tRp176
I189
sg2
(Vhttp://dbpedia.org/ontology/portfolio
tRp177
I374
sg2
(Vhttp://dbpedia.org/ontology/year
tRp178
I139
sg2
(Vhttp://dbpedia.org/ontology/nrhpReferenceNumber
tRp179
I127
sg2
(Vhttp://dbpedia.org/ontology/governmentCountry
tRp180
I419
sg2
(Vhttp://dbpedia.org/ontology/certificationDate
tRp181
I411
sg2
(Vhttp://yago-knowledge.org/resource/hasTLD
tRp182
I192
sg2
(Vhttp://dbpedia.org/ontology/longName
tRp183
I293
sg2
(Vhttp://dbpedia.org/ontology/municipalityCode
tRp184
I313
sg2
(Vhttp://dbpedia.org/ontology/operatedBy
tRp185
I310
sg2
(Vhttp://dbpedia.org/ontology/salary
tRp186
I429
sg2
(Vhttp://dbpedia.org/ontology/manager
tRp187
I366
sg2
(Vhttp://dbpedia.org/ontology/minimumElevation
tRp188
I98
sg2
(Vhttp://dbpedia.org/ontology/education
tRp189
I358
sg2
(Vhttp://dbpedia.org/ontology/areaWater
tRp190
I144
sg2
(Vhttp://dbpedia.org/ontology/certification
tRp191
I209
sg2
(Vhttp://dbpedia.org/ontology/individualisedGnd
tRp192
I350
sg2
(Vhttp://dbpedia.org/ontology/primeMinister
tRp193
I254
sg2
(Vhttp://dbpedia.org/ontology/shoots
tRp194
I174
sg2
(Vhttp://dbpedia.org/ontology/routeTypeAbbreviation
tRp195
I454
sg2
(Vhttp://dbpedia.org/ontology/league
tRp196
I218
sg2
(Vhttp://dbpedia.org/ontology/foundedBy
tRp197
I45
sg2
(Vhttp://yago-knowledge.org/resource/hasExpenses
tRp198
I198
sg2
(Vhttp://dbpedia.org/ontology/draftRound
tRp199
I303
sg2
(Vhttp://dbpedia.org/ontology/chairperson
tRp200
I422
sg2
(Vhttp://dbpedia.org/ontology/lowerAge
tRp201
I322
sg2
(Vhttp://yago-knowledge.org/resource/edited
tRp202
I15
sg2
(Vhttp://dbpedia.org/ontology/iso6391Code
tRp203
I292
sg2
(Vhttp://dbpedia.org/ontology/currentSeason
tRp204
I388
sg2
(Vhttp://yago-knowledge.org/resource/hasThreeLetterLanguageCode
tRp205
I386
sg2
(Vhttp://dbpedia.org/ontology/twinTown
tRp206
I461
sg2
(Vhttp://dbpedia.org/ontology/numberOfStations
tRp207
I456
sg2
(Vhttp://yago-knowledge.org/resource/isAffiliatedTo
tRp208
I18
sS'<NONE>'
p209
I0
sg2
(Vhttp://dbpedia.org/ontology/endowment
tRp210
I69
sg2
(Vhttp://dbpedia.org/ontology/bSide
tRp211
I103
sg2
(Vhttp://dbpedia.org/ontology/almaMater
tRp212
I83
sg2
(Vhttp://dbpedia.org/ontology/populationDensity
tRp213
I53
sg2
(Vhttp://dbpedia.org/ontology/musicalBand
tRp214
I88
sg2
(Vhttp://dbpedia.org/ontology/locatedInArea
tRp215
I37
sg2
(Vhttp://dbpedia.org/ontology/ceeb
tRp216
I318
sg2
(Vhttp://dbpedia.org/ontology/director
tRp217
I27
sg2
(Vhttp://dbpedia.org/ontology/teamName
tRp218
I404
sg2
(Vhttp://dbpedia.org/ontology/position
tRp219
I164
sg2
(Vhttp://dbpedia.org/ontology/product
tRp220
I409
sg2
(Vhttp://yago-knowledge.org/resource/hasDuration
tRp221
I106
sg2
(Vhttp://dbpedia.org/ontology/place
tRp222
I167
sg2
(Vhttp://yago-knowledge.org/resource/wasBornOnDate
tRp223
I2
sg2
(Vhttp://dbpedia.org/ontology/buildingStartDate
tRp224
I283
sg2
(Vhttp://dbpedia.org/ontology/widthQuote
tRp225
I302
sg2
(Vhttp://dbpedia.org/ontology/deathYear
tRp226
I74
sg2
(Vhttp://yago-knowledge.org/resource/created
tRp227
I10
sg2
(Vhttp://yago-knowledge.org/resource/hasNumberOfPeople
tRp228
I38
sg2
(Vhttp://dbpedia.org/ontology/commander
tRp229
I257
sg2
(Vhttp://dbpedia.org/ontology/dissolutionYear
tRp230
I311
sg2
(Vhttp://yago-knowledge.org/resource/hasPoverty
tRp231
I172
sg2
(Vhttp://dbpedia.org/ontology/leaderName
tRp232
I285
sg2
(Vhttp://dbpedia.org/ontology/publicationDate
tRp233
I355
sg2
(Vhttp://dbpedia.org/ontology/timeZone
tRp234
I421
sg2
(Vhttp://dbpedia.org/ontology/title
tRp235
I118
sg2
(Vhttp://dbpedia.org/ontology/dissolved
tRp236
I158
sg2
(Vhttp://dbpedia.org/ontology/assets
tRp237
I129
sg2
(Vhttp://dbpedia.org/ontology/twinCountry
tRp238
I387
sg2
(Vhttp://dbpedia.org/ontology/recordLabel
tRp239
I71
sg2
(Vhttp://dbpedia.org/ontology/lastAirDate
tRp240
I327
sg2
(Vhttp://yago-knowledge.org/resource/hasImport
tRp241
I196
sg2
(Vhttp://dbpedia.org/ontology/previousWork
tRp242
I203
sg2
(Vhttp://dbpedia.org/ontology/facultySize
tRp243
I63
sg2
(Vhttp://dbpedia.org/ontology/picture
tRp244
I244
sg2
(Vhttp://dbpedia.org/ontology/officialSchoolColour
tRp245
I67
sg2
(Vhttp://dbpedia.org/ontology/designer
tRp246
I165
sg2
(Vhttp://dbpedia.org/ontology/serviceEndYear
tRp247
I210
sg2
(Vhttp://dbpedia.org/ontology/alias
tRp248
I48
sg2
(Vhttp://yago-knowledge.org/resource/isPoliticianOf
tRp249
I279
sg2
(Vhttp://yago-knowledge.org/resource/actedIn
tRp250
I21
sg2
(Vhttp://dbpedia.org/ontology/production
tRp251
I306
sg2
(Vhttp://dbpedia.org/ontology/formerName
tRp252
I65
sg2
(Vhttp://yago-knowledge.org/resource/participatedIn
tRp253
I107
sg2
(Vhttp://dbpedia.org/ontology/maximumDischarge
tRp254
I416
sg2
(Vhttp://dbpedia.org/ontology/notableWork
tRp255
I337
sg2
(Vhttp://dbpedia.org/ontology/subdivisions
tRp256
I312
sg2
(Vhttp://dbpedia.org/ontology/colourName
tRp257
I230
sg2
(Vhttp://xmlns.com/foaf/0.1/givenName
tRp258
I24
sg2
(Vhttp://dbpedia.org/ontology/areaMetro
tRp259
I166
sg2
(Vhttp://dbpedia.org/ontology/location
tRp260
I132
sg2
(Vhttp://yago-knowledge.org/resource/dealsWith
tRp261
I249
sg2
(Vhttp://dbpedia.org/ontology/hometown
tRp262
I152
sg2
(Vhttp://dbpedia.org/ontology/careerPrizeMoney
tRp263
I316
sg2
(Vhttp://dbpedia.org/ontology/shoeSize
tRp264
I457
sg2
(Vhttp://yago-knowledge.org/resource/hasUnemployment
tRp265
I193
sg2
(Vhttp://dbpedia.org/ontology/background
tRp266
I56
sg2
(Vhttp://yago-knowledge.org/resource/livesIn
tRp267
I94
sg2
(Vhttp://dbpedia.org/ontology/analogChannel
tRp268
I465
sg2
(Vhttp://dbpedia.org/ontology/musicBy
tRp269
I235
sg2
(Vhttp://dbpedia.org/ontology/country
tRp270
I157
sg2
(Vhttp://dbpedia.org/ontology/postalCode
tRp271
I3
sg2
(Vhttp://dbpedia.org/ontology/gross
tRp272
I31
sg2
(Vhttp://dbpedia.org/ontology/writer
tRp273
I25
sg2
(Vhttp://dbpedia.org/ontology/parentOrganisation
tRp274
I415
sg2
(Vhttp://dbpedia.org/ontology/weight
tRp275
I201
sg2
(Vhttp://yago-knowledge.org/resource/hasEconomicGrowth
tRp276
I194
sg2
(Vhttp://dbpedia.org/ontology/speedLimit
tRp277
I376
sg2
(Vhttp://dbpedia.org/ontology/distributingLabel
tRp278
I295
sg2
(Vhttp://dbpedia.org/ontology/chairman
tRp279
I314
sg2
(Vhttp://xmlns.com/foaf/0.1/nick
tRp280
I39
sg2
(Vhttp://dbpedia.org/ontology/managerTitle
tRp281
I102
sg2
(Vhttp://yago-knowledge.org/resource/wasBornIn
tRp282
I40
sg2
(Vhttp://dbpedia.org/ontology/party
tRp283
I119
sg2
(Vhttp://dbpedia.org/ontology/commonName
tRp284
I438
sg2
(Vhttp://dbpedia.org/ontology/mountainRange
tRp285
I344
sg2
(Vhttp://dbpedia.org/ontology/parentCompany
tRp286
I262
sg2
(Vhttp://dbpedia.org/ontology/partner
tRp287
I135
sg2
(Vhttp://dbpedia.org/ontology/length
tRp288
I215
sg2
(Vhttp://dbpedia.org/ontology/territory
tRp289
I299
sg2
(Vhttp://dbpedia.org/ontology/role
tRp290
I396
sg2
(Vhttp://dbpedia.org/ontology/revenue
tRp291
I115
sg2
(Vhttp://dbpedia.org/ontology/keyPerson
tRp292
I309
sg2
(Vhttp://dbpedia.org/ontology/iso6393Code
tRp293
I331
sg2
(Vhttp://dbpedia.org/ontology/lastAppearance
tRp294
I395
sg2
(Vhttp://dbpedia.org/ontology/facilityId
tRp295
I326
sg2
(Vhttp://dbpedia.org/ontology/founder
tRp296
I364
sg2
(Vhttp://dbpedia.org/ontology/origin
tRp297
I297
sg2
(Vhttp://dbpedia.org/ontology/musicComposer
tRp298
I16
sg2
(Vhttp://dbpedia.org/ontology/elevation
tRp299
I81
sg2
(Vhttp://dbpedia.org/ontology/distributor
tRp300
I73
sg2
(Vhttp://yago-knowledge.org/resource/hasLongitude
tRp301
I7
sg2
(Vhttp://dbpedia.org/ontology/formerChannel
tRp302
I305
sg2
(Vhttp://dbpedia.org/ontology/numberOfEmployees
tRp303
I124
sg2
(Vhttp://dbpedia.org/ontology/sisterStation
tRp304
I225
sg2
(Vhttp://dbpedia.org/ontology/timeshiftChannel
tRp305
I361
sg2
(Vhttp://dbpedia.org/ontology/area
tRp306
I146
sg2
(Vhttp://dbpedia.org/ontology/routeJunction
tRp307
I445
sg2
(Vhttp://dbpedia.org/ontology/basedOn
tRp308
I227
sg2
(Vhttp://dbpedia.org/ontology/activeYearsStartDate
tRp309
I188
sg2
(Vhttp://dbpedia.org/ontology/vicePresident
tRp310
I349
sg2
(Vhttp://yago-knowledge.org/resource/hasArea
tRp311
I89
sg2
(Vhttp://dbpedia.org/ontology/runtime
tRp312
I6
sg2
(Vhttp://dbpedia.org/ontology/province
tRp313
I265
sg2
(Vhttp://dbpedia.org/ontology/relation
tRp314
I325
sg2
(Vhttp://dbpedia.org/ontology/city
tRp315
I253
sg2
(Vhttp://dbpedia.org/ontology/percentageOfAreaWater
tRp316
I161
sg2
(Vhttp://dbpedia.org/ontology/orderInOffice
tRp317
I90
sg2
(Vhttp://dbpedia.org/ontology/starring
tRp318
I29
sg2
(Vhttp://dbpedia.org/ontology/strength
tRp319
I72
sg2
(Vhttp://dbpedia.org/ontology/seniority
tRp320
I298
sg2
(Vhttp://dbpedia.org/ontology/iucnCategory
tRp321
I434
sg2
(Vhttp://yago-knowledge.org/resource/hasExport
tRp322
I197
sg2
(Vhttp://dbpedia.org/ontology/numberOfDoctoralStudents
tRp323
I347
sg2
(Vhttp://dbpedia.org/ontology/award
tRp324
I142
sg2
(Vhttp://dbpedia.org/ontology/address
tRp325
I242
sg2
(Vhttp://yago-knowledge.org/resource/hasPages
tRp326
I420
sg2
(Vhttp://dbpedia.org/ontology/riverMouth
tRp327
I369
sg2
(Vhttp://dbpedia.org/ontology/demonym
tRp328
I190
sg2
(Vhttp://dbpedia.org/ontology/numberOfGraduateStudents
tRp329
I468
sg2
(Vhttp://dbpedia.org/ontology/staff
tRp330
I150
sg2
(Vhttp://dbpedia.org/ontology/battle
tRp331
I274
sg2
(Vhttp://dbpedia.org/ontology/dissolutionDate
tRp332
I352
sg2
(Vhttp://www.w3.org/2002/07/owl#differentFrom
tRp333
I168
sg2
(Vhttp://dbpedia.org/ontology/distance
tRp334
I336
sg2
(Vhttp://dbpedia.org/ontology/utcOffset
tRp335
I32
sg2
(Vhttp://dbpedia.org/ontology/nearestCity
tRp336
I431
sg2
(Vhttp://dbpedia.org/ontology/watershed
tRp337
I268
sg2
(Vhttp://dbpedia.org/ontology/child
tRp338
I186
sg2
(Vhttp://dbpedia.org/ontology/gridReference
tRp339
I169
sg2
(Vhttp://dbpedia.org/ontology/chairmanTitle
tRp340
I101
sg2
(Vhttp://dbpedia.org/ontology/monarch
tRp341
I233
sg2
(Vhttp://dbpedia.org/ontology/editor
tRp342
I356
sg2
(Vhttp://yago-knowledge.org/resource/graduatedFrom
tRp343
I99
sg2
(Vhttp://dbpedia.org/ontology/extinctionDate
tRp344
I180
sg2
(Vhttp://dbpedia.org/ontology/squadNumber
tRp345
I232
sg2
(Vhttp://dbpedia.org/ontology/region
tRp346
I211
sg2
(Vhttp://yago-knowledge.org/resource/hasNeighbor
tRp347
I199
sg2
(Vhttp://dbpedia.org/ontology/neighboringMunicipality
tRp348
I359
sg2
(Vhttp://dbpedia.org/ontology/distanceToCharingCross
tRp349
I398
sg2
(Vhttp://dbpedia.org/ontology/status
tRp350
I238
sg2
(Vhttp://dbpedia.org/ontology/yearOfConstruction
tRp351
I363
sg2
(Vhttp://yago-knowledge.org/resource/directed
tRp352
I30
sg2
(Vhttp://yago-knowledge.org/resource/hasLatitude
tRp353
I13
sg2
(Vhttp://dbpedia.org/ontology/maximumElevation
tRp354
I153
sg2
(Vhttp://dbpedia.org/ontology/shareOfAudience
tRp355
I217
sg2
(Vhttp://dbpedia.org/ontology/name
tRp356
I446
sg2
(Vhttp://dbpedia.org/ontology/portrayer
tRp357
I432
sg2
(Vhttp://dbpedia.org/ontology/participant
tRp358
I259
sg2
(Vhttp://dbpedia.org/ontology/localAuthority
tRp359
I375
sg2
(Vhttp://dbpedia.org/ontology/dcc
tRp360
I381
sg2
(Vhttp://dbpedia.org/ontology/type
tRp361
I423
sg2
(Vhttp://dbpedia.org/ontology/nationalTopographicSystemMapNumber
tRp362
I430
sg2
(Vhttp://dbpedia.org/ontology/discharge
tRp363
I371
sg2
(Vhttp://dbpedia.org/ontology/plays
tRp364
I263
sg2
(Vhttp://yago-knowledge.org/resource/happenedOnDate
tRp365
I141
sg2
(Vhttp://dbpedia.org/ontology/number
tRp366
I100
sg2
(Vhttp://dbpedia.org/ontology/knownFor
tRp367
I183
sg2
(Vhttp://dbpedia.org/ontology/format
tRp368
I121
sg2
(Vhttp://dbpedia.org/ontology/areaRural
tRp369
I380
sg2
(Vhttp://dbpedia.org/ontology/academicAdvisor
tRp370
I273
sg2
(Vhttp://dbpedia.org/ontology/allegiance
tRp371
I308
sg2
(Vhttp://dbpedia.org/ontology/areaCode
tRp372
I57
sg2
(Vhttp://dbpedia.org/ontology/firstAscentYear
tRp373
I255
sg2
(Vhttp://dbpedia.org/ontology/equity
tRp374
I258
sg2
(Vhttp://dbpedia.org/ontology/areaTotal
tRp375
I92
sg2
(Vhttp://dbpedia.org/ontology/recordedIn
tRp376
I122
sg2
(Vhttp://dbpedia.org/ontology/completionDate
tRp377
I133
sg2
(Vhttp://dbpedia.org/ontology/formerCallsign
tRp378
I256
sg2
(Vhttp://dbpedia.org/ontology/guest
tRp379
I272
sg2
(Vhttp://dbpedia.org/ontology/club
tRp380
I128
sg2
(Vhttp://dbpedia.org/ontology/birthYear
tRp381
I36
sg2
(Vhttp://dbpedia.org/ontology/distributingCompany
tRp382
I208
sg2
(Vhttp://dbpedia.org/ontology/code
tRp383
I23
sg2
(Vhttp://dbpedia.org/ontology/numberOfFilms
tRp384
I270
sg2
(Vhttp://dbpedia.org/ontology/state
tRp385
I229
sg2
(Vhttp://yago-knowledge.org/resource/worksAt
tRp386
I226
sg2
(Vhttp://dbpedia.org/ontology/artist
tRp387
I181
sg2
(Vhttp://dbpedia.org/ontology/membership
tRp388
I368
sg2
(Vhttp://dbpedia.org/ontology/religion
tRp389
I324
sg2
(Vhttp://dbpedia.org/ontology/countySeat
tRp390
I301
sg2
(Vhttp://www.w3.org/2000/01/rdf-schema#seeAlso
tRp391
I26
sg2
(Vhttp://dbpedia.org/ontology/ceremonialCounty
tRp392
I452
sg2
(Vhttp://dbpedia.org/ontology/musicalArtist
tRp393
I41
sg2
(Vhttp://dbpedia.org/ontology/isPartOfMilitaryConflict
tRp394
I323
sg2
(Vhttp://dbpedia.org/ontology/synonym
tRp395
I97
sg2
(Vhttp://dbpedia.org/ontology/maximumDepth
tRp396
I216
sg2
(Vhttp://dbpedia.org/ontology/officialLanguage
tRp397
I104
sg2
(Vhttp://dbpedia.org/ontology/longtype
tRp398
I424
sg2
(Vhttp://dbpedia.org/ontology/eruptionYear
tRp399
I413
sg2
(Vhttp://dbpedia.org/ontology/activeYearsStartYear
tRp400
I34
sg2
(Vhttp://dbpedia.org/ontology/combatant
tRp401
I55
sg2
(Vhttp://dbpedia.org/ontology/routeEndDirection
tRp402
I77
sg2
(Vhttp://dbpedia.org/ontology/campus
tRp403
I394
sg2
(Vhttp://dbpedia.org/ontology/hairColor
tRp404
I348
sg2
(Vhttp://dbpedia.org/ontology/subsidiary
tRp405
I294
sg2
(Vhttp://dbpedia.org/ontology/numberOfVisitors
tRp406
I448
sg2
(Vhttp://dbpedia.org/ontology/formerTeam
tRp407
I126
sg2
(Vhttp://dbpedia.org/ontology/deathPlace
tRp408
I96
sg2
(Vhttp://dbpedia.org/ontology/draft
tRp409
I245
sg2
(Vhttp://dbpedia.org/ontology/identificationSymbol
tRp410
I427
sg2
(Vhttp://dbpedia.org/ontology/nationalTeam
tRp411
I463
sg2
(Vhttp://dbpedia.org/ontology/birthPlace
tRp412
I43
sg2
(Vhttp://dbpedia.org/ontology/animator
tRp413
I451
sg2
(Vhttp://dbpedia.org/ontology/citizenship
tRp414
I443
sg2
(Vhttp://dbpedia.org/ontology/influenced
tRp415
I138
sg2
(Vhttp://dbpedia.org/ontology/associatedMusicalArtist
tRp416
I9
sg2
(Vhttp://dbpedia.org/ontology/parent
tRp417
I205
sg2
(Vhttp://dbpedia.org/ontology/mouthElevation
tRp418
I365
sg2
(Vhttp://dbpedia.org/ontology/company
tRp419
I289
sg2
(Vhttp://dbpedia.org/ontology/iso6392Code
tRp420
I291
sg2
(Vhttp://dbpedia.org/ontology/spouse
tRp421
I85
sg2
(Vhttp://dbpedia.org/ontology/firstAirDate
tRp422
I277
sg2
(Vhttp://dbpedia.org/ontology/instrument
tRp423
I315
sg2
(Vhttp://dbpedia.org/ontology/significantBuilding
tRp424
I379
sg2
(Vhttp://yago-knowledge.org/resource/redirectedFrom
tRp425
I4
sg2
(Vhttp://dbpedia.org/ontology/foundingDate
tRp426
I93
sg2
(Vhttp://dbpedia.org/ontology/ground
tRp427
I49
sg2
(Vhttp://dbpedia.org/ontology/seasonNumber
tRp428
I354
sg2
(Vhttp://dbpedia.org/ontology/broadcastNetwork
tRp429
I284
sg2
(Vhttp://yago-knowledge.org/resource/hasInflation
tRp430
I110
sg2
(Vhttp://dbpedia.org/ontology/licensee
tRp431
I340
sg2
(Vhttp://dbpedia.org/ontology/archipelago
tRp432
I219
sg2
(Vhttp://dbpedia.org/ontology/prominence
tRp433
I392
sg2
(Vhttp://dbpedia.org/ontology/flag
tRp434
I251
sg2
(Vhttp://dbpedia.org/ontology/frequency
tRp435
I58
sg2
(Vhttp://dbpedia.org/ontology/capacity
tRp436
I33
sg2
(Vhttp://dbpedia.org/ontology/network
tRp437
I175
sg2
(Vhttp://dbpedia.org/ontology/owner
tRp438
I112
sg2
(Vhttp://yago-knowledge.org/resource/owns
tRp439
I207
sg2
(Vhttp://dbpedia.org/ontology/doctoralStudent
tRp440
I341
sg2
(Vhttp://dbpedia.org/ontology/shareDate
tRp441
I370
sg2
(Vhttp://dbpedia.org/ontology/numberOfLanes
tRp442
I418
sg2
(Vhttp://dbpedia.org/ontology/dischargeAverage
tRp443
I428
sg2
(Vhttp://dbpedia.org/ontology/influencedBy
tRp444
I234
sg2
(Vhttp://dbpedia.org/ontology/executiveProducer
tRp445
I267
sg2
(Vhttp://dbpedia.org/ontology/distanceLaps
tRp446
I455
sg2
(Vhttp://dbpedia.org/ontology/openingDate
tRp447
I406
sg2
(Vhttp://dbpedia.org/ontology/purpose
tRp448
I441
sg2
(Vhttp://dbpedia.org/ontology/editing
tRp449
I84
sg2
(Vhttp://dbpedia.org/ontology/leaderTitle
tRp450
I8
sg2
(Vhttp://dbpedia.org/ontology/developer
tRp451
I246
sg2
(Vhttp://dbpedia.org/ontology/floorArea
tRp452
I436
sg2
(Vhttp://dbpedia.org/ontology/heightAboveAverageTerrain
tRp453
I408
sg2
(Vhttp://dbpedia.org/ontology/draftPick
tRp454
I335
sg2
(Vhttp://dbpedia.org/ontology/digitalSubChannel
tRp455
I288
sg2
(Vhttp://dbpedia.org/ontology/other
tRp456
I237
sg2
(Vhttp://dbpedia.org/ontology/notableStudent
tRp457
I384
sg2
(Vhttp://dbpedia.org/ontology/creator
tRp458
I202
sg2
(Vhttp://dbpedia.org/ontology/populationUrban
tRp459
I156
sg2
(Vhttp://dbpedia.org/ontology/author
tRp460
I108
sg2
(Vhttp://dbpedia.org/ontology/callSign
tRp461
I442
sg2
(Vhttp://dbpedia.org/ontology/headquarter
tRp462
I240
sg2
(Vhttp://dbpedia.org/ontology/fansgroup
tRp463
I300
sg2
(Vhttp://dbpedia.org/ontology/doctoralAdvisor
tRp464
I79
sg2
(Vhttp://dbpedia.org/ontology/language
tRp465
I87
sg2
(Vhttp://dbpedia.org/ontology/motto
tRp466
I52
sg2
(Vhttp://yago-knowledge.org/resource/hasWonPrize
tRp467
I51
sg2
(Vhttp://dbpedia.org/ontology/album
tRp468
I236
sg2
(Vhttp://dbpedia.org/ontology/largestCity
tRp469
I163
sg2
(Vhttp://yago-knowledge.org/resource/hasLanguageCode
tRp470
I385
sg2
(Vhttp://dbpedia.org/ontology/series
tRp471
I212
s.