(dp1
crdflib.term
URIRef
p2
(Vhttp://dbpedia.org/ontology/releaseDate
tRp3
I3
sg2
(Vhttps://www.scads.de/movieBenchmark/ontology/languages
tRp4
I14
sg2
(Vhttp://xmlns.com/foaf/0.1/gender
tRp5
I24
sg2
(Vhttps://www.scads.de/movieBenchmark/ontology/status
tRp6
I5
sg2
(Vhttp://dbpedia.org/ontology/episodeNumber
tRp7
I7
sg2
(Vhttps://www.scads.de/movieBenchmark/ontology/original_language
tRp8
I12
sg2
(Vhttp://dbpedia.org/ontology/numberOfSeasons
tRp9
I16
sg2
(Vhttps://www.scads.de/movieBenchmark/ontology/known_for_department
tRp10
I22
sg2
(Vhttps://www.scads.de/movieBenchmark/ontology/name
tRp11
I8
sg2
(Vhttps://www.scads.de/movieBenchmark/ontology/also_known_as
tRp12
I27
sg2
(Vhttps://www.scads.de/movieBenchmark/ontology/TVDB/job
tRp13
I23
sg2
(Vhttps://www.scads.de/movieBenchmark/ontology/participated_in
tRp14
I21
sg2
(Vhttps://www.scads.de/movieBenchmark/ontology/birthPlace
tRp15
I26
sg2
(Vhttp://dbpedia.org/ontology/seasonNumber
tRp16
I6
sg2
(Vhttps://www.scads.de/movieBenchmark/ontology/release_year
tRp17
I10
sg2
(Vhttps://www.scads.de/movieBenchmark/ontology/genre_list
tRp18
I11
sg2
(Vhttp://dbpedia.org/ontology/numberOfEpisodes
tRp19
I17
sg2
(Vhttps://www.scads.de/movieBenchmark/ontology/is_episode_of
tRp20
I1
sg2
(Vhttp://dbpedia.org/ontology/abstract
tRp21
I4
sg2
(Vhttp://dbpedia.org/ontology/runtime
tRp22
I20
sg2
(Vhttps://www.scads.de/movieBenchmark/ontology/origin_country
tRp23
I18
sg2
(Vhttps://www.scads.de/movieBenchmark/ontology/title
tRp24
I2
sg2
(Vhttp://dbpedia.org/ontology/birthDate
tRp25
I25
sg2
(Vhttps://www.scads.de/movieBenchmark/ontology/in_production
tRp26
I19
sg2
(Vhttps://www.scads.de/movieBenchmark/ontology/last_air_date
tRp27
I9
sg2
(Vhttps://www.scads.de/movieBenchmark/ontology/originalTitle
tRp28
I13
sg2
(Vhttp://xmlns.com/foaf/0.1/homepage
tRp29
I15
sS'<NONE>'
p30
I0
s.