(lp1
(lp2
(lp3
I5
aI3
aI1
aI0
aa(lp4
I8
aI9
aI7
aI8
aI4
aI9
aI8
aI0
aI0
aI0
aa(lp5
F0.12419488026424443
aaa(lp6
(lp7
I11
aI6
aI1
aI0
aa(lp8
I5
aI23
aI9
aI11
aI19
aI14
aI17
aI13
aI11
aI3
aa(lp9
F0.018662262592898431
aaa(lp10
(lp11
I15
aI3
aI1
aI0
aa(lp12
I4
aI5
aI29
aI11
aI21
aI30
aI12
aI31
aI0
aI0
aa(lp13
F0.12419488026424443
aaa(lp14
(lp15
I45
aI6
aI1
aI0
aa(lp16
I22
aI5
aI7
aI3
aI1
aI8
aI9
aI5
aI6
aI6
aa(lp17
F0.018662262592898431
aaa(lp18
(lp19
I47
aI3
aI1
aI0
aa(lp20
I4
aI5
aI29
aI11
aI21
aI30
aI12
aI31
aI0
aI0
aa(lp21
F0.12419488026424443
aaa(lp22
(lp23
I82
aI3
aI1
aI0
aa(lp24
I7
aI8
aI6
aI11
aI38
aI5
aI39
aI8
aI6
aI0
aa(lp25
F0.12419488026424443
aaa(lp26
(lp27
I83
aI3
aI1
aI0
aa(lp28
I6
aI8
aI4
aI9
aI8
aI11
aI34
aI30
aI4
aI3
aa(lp29
F0.12419488026424443
aaa(lp30
(lp31
I89
aI3
aI1
aI0
aa(lp32
I7
aI8
aI6
aI11
aI38
aI5
aI39
aI8
aI6
aI0
aa(lp33
F0.12419488026424443
aaa(lp34
(lp35
I94
aI3
aI1
aI0
aa(lp36
I4
aI5
aI29
aI11
aI21
aI30
aI12
aI31
aI0
aI0
aa(lp37
F0.12419488026424443
aaa(lp38
(lp39
I96
aI3
aI1
aI0
aa(lp40
I8
aI9
aI7
aI8
aI4
aI9
aI8
aI0
aI0
aI0
aa(lp41
F0.12419488026424443
aaa(lp42
(lp43
I129
aI3
aI1
aI0
aa(lp44
I4
aI5
aI29
aI11
aI21
aI30
aI12
aI31
aI0
aI0
aa(lp45
F0.12419488026424443
aaa(lp46
(lp47
I93
aI3
aI1
aI0
aa(lp48
I6
aI8
aI4
aI11
aI32
aI12
aI8
aI4
aI1
aI3
aa(lp49
F0.12419488026424443
aaa(lp50
(lp51
I153
aI3
aI1
aI0
aa(lp52
I6
aI8
aI4
aI11
aI32
aI12
aI8
aI4
aI1
aI3
aa(lp53
F0.12419488026424443
aaa(lp54
(lp55
I165
aI3
aI1
aI0
aa(lp56
I8
aI9
aI7
aI8
aI4
aI9
aI8
aI0
aI0
aI0
aa(lp57
F0.12419488026424443
aaa(lp58
(lp59
I173
aI3
aI1
aI0
aa(lp60
I8
aI9
aI7
aI8
aI4
aI9
aI8
aI0
aI0
aI0
aa(lp61
F0.12419488026424443
aaa(lp62
(lp63
I179
aI3
aI1
aI0
aa(lp64
I4
aI5
aI29
aI11
aI21
aI30
aI12
aI31
aI0
aI0
aa(lp65
F0.12419488026424443
aaa(lp66
(lp67
I181
aI6
aI1
aI0
aa(lp68
I3
aI9
aI8
aI7
aI3
aI8
aI4
aI0
aI0
aI0
aa(lp69
F0.018662262592898431
aaa(lp70
(lp71
I182
aI3
aI1
aI0
aa(lp72
I4
aI5
aI29
aI11
aI21
aI30
aI12
aI31
aI0
aI0
aa(lp73
F0.12419488026424443
aaa(lp74
(lp75
I187
aI3
aI1
aI0
aa(lp76
I6
aI8
aI4
aI11
aI32
aI12
aI8
aI4
aI1
aI3
aa(lp77
F0.12419488026424443
aaa(lp78
(lp79
I211
aI3
aI1
aI0
aa(lp80
I7
aI8
aI6
aI11
aI38
aI5
aI39
aI8
aI6
aI0
aa(lp81
F0.12419488026424443
aaa(lp82
(lp83
I223
aI3
aI1
aI0
aa(lp84
I20
aI5
aI38
aI5
aI12
aI7
aI21
aI11
aI2
aI3
aa(lp85
F0.12419488026424443
aaa(lp86
(lp87
I224
aI3
aI1
aI0
aa(lp88
I4
aI5
aI29
aI11
aI21
aI30
aI12
aI31
aI11
aI1
aa(lp89
F0.12419488026424443
aaa(lp90
(lp91
I226
aI3
aI1
aI0
aa(lp92
I6
aI8
aI4
aI11
aI32
aI12
aI8
aI4
aI1
aI3
aa(lp93
F0.12419488026424443
aaa(lp94
(lp95
I234
aI3
aI1
aI0
aa(lp96
I7
aI30
aI6
aI11
aI8
aI4
aI39
aI5
aI7
aI5
aa(lp97
F0.12419488026424443
aaa(lp98
(lp99
I246
aI3
aI1
aI0
aa(lp100
I4
aI5
aI29
aI11
aI21
aI30
aI12
aI31
aI0
aI0
aa(lp101
F0.12419488026424443
aaa(lp102
(lp103
I255
aI3
aI1
aI0
aa(lp104
I8
aI9
aI7
aI8
aI4
aI9
aI8
aI0
aI0
aI0
aa(lp105
F0.12419488026424443
aaa(lp106
(lp107
I293
aI3
aI1
aI0
aa(lp108
I4
aI5
aI29
aI11
aI21
aI30
aI12
aI31
aI11
aI1
aa(lp109
F0.12419488026424443
aaa(lp110
(lp111
I319
aI3
aI1
aI0
aa(lp112
I4
aI5
aI29
aI11
aI21
aI30
aI12
aI31
aI0
aI0
aa(lp113
F0.12419488026424443
aaa(lp114
(lp115
I321
aI3
aI1
aI0
aa(lp116
I7
aI30
aI6
aI11
aI8
aI4
aI39
aI5
aI7
aI5
aa(lp117
F0.12419488026424443
aaa(lp118
(lp119
I340
aI3
aI1
aI0
aa(lp120
I4
aI5
aI29
aI11
aI21
aI30
aI12
aI31
aI0
aI0
aa(lp121
F0.12419488026424443
aaa(lp122
(lp123
I356
aI3
aI1
aI0
aa(lp124
I4
aI5
aI29
aI11
aI21
aI30
aI12
aI31
aI0
aI0
aa(lp125
F0.12419488026424443
aaa(lp126
(lp127
I361
aI3
aI1
aI0
aa(lp128
I6
aI8
aI4
aI11
aI32
aI12
aI8
aI4
aI1
aI3
aa(lp129
F0.12419488026424443
aaa(lp130
(lp131
I368
aI6
aI1
aI0
aa(lp132
I8
aI6
aI3
aI8
aI4
aI0
aI0
aI0
aI0
aI0
aa(lp133
F0.018662262592898431
aaa(lp134
(lp135
I387
aI3
aI1
aI0
aa(lp136
I4
aI5
aI29
aI11
aI21
aI30
aI12
aI31
aI0
aI0
aa(lp137
F0.12419488026424443
aaa(lp138
(lp139
I388
aI6
aI1
aI0
aa(lp140
I1
aI8
aI7
aI3
aI32
aI30
aI12
aI4
aI3
aI8
aa(lp141
F0.018662262592898431
aaa(lp142
(lp143
I13
aI3
aI1
aI0
aa(lp144
I8
aI9
aI7
aI8
aI4
aI9
aI8
aI0
aI0
aI0
aa(lp145
F0.12419488026424443
aaa(lp146
(lp147
I235
aI6
aI1
aI0
aa(lp148
I6
aI30
aI36
aI9
aI2
aI29
aI5
aI6
aI9
aI5
aa(lp149
F0.018662262592898431
aaa(lp150
(lp151
I405
aI3
aI1
aI0
aa(lp152
I4
aI5
aI29
aI11
aI21
aI30
aI12
aI31
aI11
aI1
aa(lp153
F0.12419488026424443
aaa(lp154
(lp155
I424
aI3
aI1
aI0
aa(lp156
I7
aI30
aI6
aI11
aI8
aI4
aI39
aI5
aI7
aI5
aa(lp157
F0.12419488026424443
aaa(lp158
(lp159
I438
aI3
aI1
aI0
aa(lp160
I29
aI5
aI6
aI9
aI11
aI7
aI8
aI0
aI0
aI0
aa(lp161
F0.12419488026424443
aaa(lp162
(lp163
I445
aI3
aI1
aI0
aa(lp164
I8
aI9
aI7
aI8
aI4
aI9
aI8
aI0
aI0
aI0
aa(lp165
F0.12419488026424443
aaa(lp166
(lp167
I469
aI6
aI1
aI0
aa(lp168
I8
aI34
aI5
aI12
aI3
aI1
aI8
aI4
aI0
aI0
aa(lp169
F0.018662262592898431
aaa(lp170
(lp171
I473
aI6
aI1
aI0
aa(lp172
I32
aI12
aI5
aI4
aI1
aI2
aI0
aI0
aI0
aI0
aa(lp173
F0.018662262592898431
aaa(lp174
(lp175
I474
aI3
aI1
aI0
aa(lp176
I4
aI5
aI29
aI11
aI21
aI30
aI12
aI31
aI0
aI0
aa(lp177
F0.12419488026424443
aaa(lp178
(lp179
I478
aI3
aI1
aI0
aa(lp180
I7
aI30
aI6
aI11
aI8
aI4
aI39
aI5
aI7
aI5
aa(lp181
F0.12419488026424443
aaa(lp182
(lp183
I483
aI3
aI1
aI0
aa(lp184
I6
aI8
aI4
aI11
aI32
aI12
aI8
aI4
aI1
aI3
aa(lp185
F0.12419488026424443
aaa(lp186
(lp187
I486
aI3
aI1
aI0
aa(lp188
I8
aI9
aI7
aI8
aI4
aI9
aI8
aI0
aI0
aI0
aa(lp189
F0.12419488026424443
aaa(lp190
(lp191
I513
aI3
aI1
aI0
aa(lp192
I6
aI8
aI4
aI11
aI32
aI12
aI8
aI4
aI1
aI3
aa(lp193
F0.12419488026424443
aaa(lp194
(lp195
I526
aI3
aI1
aI0
aa(lp196
I7
aI8
aI6
aI11
aI38
aI5
aI39
aI8
aI6
aI0
aa(lp197
F0.12419488026424443
aaa(lp198
(lp199
I538
aI3
aI1
aI0
aa(lp200
I4
aI5
aI29
aI11
aI21
aI30
aI12
aI31
aI11
aI1
aa(lp201
F0.12419488026424443
aaa(lp202
(lp203
I557
aI3
aI1
aI0
aa(lp204
I4
aI5
aI29
aI11
aI21
aI30
aI12
aI31
aI0
aI0
aa(lp205
F0.12419488026424443
aaa(lp206
(lp207
I558
aI3
aI1
aI0
aa(lp208
I28
aI8
aI6
aI8
aI22
aI5
aI4
aI8
aI0
aI0
aa(lp209
F0.12419488026424443
aaa(lp210
(lp211
I560
aI3
aI1
aI0
aa(lp212
I4
aI5
aI29
aI11
aI21
aI30
aI12
aI31
aI0
aI0
aa(lp213
F0.12419488026424443
aaa(lp214
(lp215
I561
aI3
aI1
aI0
aa(lp216
I4
aI5
aI29
aI11
aI21
aI30
aI12
aI31
aI0
aI0
aa(lp217
F0.12419488026424443
aaa(lp218
(lp219
I562
aI3
aI1
aI0
aa(lp220
I8
aI9
aI7
aI8
aI4
aI9
aI8
aI0
aI0
aI0
aa(lp221
F0.12419488026424443
aaa(lp222
(lp223
I585
aI3
aI1
aI0
aa(lp224
I8
aI9
aI7
aI8
aI4
aI9
aI8
aI0
aI0
aI0
aa(lp225
F0.12419488026424443
aaa(lp226
(lp227
I26
aI3
aI1
aI0
aa(lp228
I7
aI30
aI6
aI11
aI8
aI4
aI39
aI5
aI7
aI5
aa(lp229
F0.12419488026424443
aaa(lp230
(lp231
I613
aI3
aI1
aI0
aa(lp232
I4
aI5
aI29
aI11
aI21
aI30
aI12
aI31
aI0
aI0
aa(lp233
F0.12419488026424443
aaa(lp234
(lp235
I641
aI3
aI1
aI0
aa(lp236
I20
aI12
aI30
aI30
aI31
aI7
aI21
aI4
aI0
aI0
aa(lp237
F0.12419488026424443
aaa(lp238
(lp239
I645
aI3
aI1
aI0
aa(lp240
I7
aI8
aI6
aI11
aI38
aI5
aI39
aI8
aI6
aI0
aa(lp241
F0.12419488026424443
aaa(lp242
(lp243
I646
aI3
aI1
aI0
aa(lp244
I4
aI5
aI29
aI11
aI21
aI30
aI12
aI31
aI0
aI0
aa(lp245
F0.12419488026424443
aaa(lp246
(lp247
I652
aI3
aI1
aI0
aa(lp248
I20
aI5
aI38
aI5
aI12
aI7
aI21
aI11
aI2
aI3
aa(lp249
F0.12419488026424443
aaa(lp250
(lp251
I660
aI3
aI1
aI0
aa(lp252
I6
aI8
aI4
aI11
aI32
aI12
aI8
aI4
aI1
aI3
aa(lp253
F0.12419488026424443
aaa(lp254
(lp255
I678
aI3
aI1
aI0
aa(lp256
I4
aI5
aI29
aI11
aI21
aI30
aI12
aI31
aI0
aI0
aa(lp257
F0.12419488026424443
aaa(lp258
(lp259
I690
aI3
aI1
aI0
aa(lp260
I29
aI35
aI11
aI2
aI30
aI7
aI7
aI21
aI29
aI30
aa(lp261
F0.12419488026424443
aaa(lp262
(lp263
I692
aI3
aI1
aI0
aa(lp264
I4
aI5
aI29
aI11
aI21
aI30
aI12
aI31
aI11
aI1
aa(lp265
F0.12419488026424443
aaa(lp266
(lp267
I712
aI3
aI1
aI0
aa(lp268
I4
aI5
aI29
aI11
aI21
aI30
aI12
aI31
aI0
aI0
aa(lp269
F0.12419488026424443
aaa(lp270
(lp271
I713
aI6
aI1
aI0
aa(lp272
I32
aI12
aI5
aI4
aI1
aI2
aI0
aI0
aI0
aI0
aa(lp273
F0.018662262592898431
aaa(lp274
(lp275
I715
aI3
aI1
aI0
aa(lp276
I8
aI9
aI7
aI8
aI4
aI9
aI8
aI0
aI0
aI0
aa(lp277
F0.12419488026424443
aaa(lp278
(lp279
I719
aI3
aI1
aI0
aa(lp280
I4
aI5
aI29
aI11
aI21
aI30
aI12
aI31
aI0
aI0
aa(lp281
F0.12419488026424443
aaa(lp282
(lp283
I721
aI3
aI1
aI0
aa(lp284
I8
aI9
aI7
aI8
aI4
aI9
aI8
aI0
aI0
aI0
aa(lp285
F0.12419488026424443
aaa(lp286
(lp287
I752
aI3
aI1
aI0
aa(lp288
I7
aI30
aI6
aI11
aI8
aI4
aI39
aI5
aI7
aI5
aa(lp289
F0.12419488026424443
aaa(lp290
(lp291
I525
aI3
aI1
aI0
aa(lp292
I4
aI5
aI29
aI11
aI21
aI30
aI12
aI31
aI11
aI1
aa(lp293
F0.12419488026424443
aaa(lp294
(lp295
I575
aI3
aI1
aI0
aa(lp296
I6
aI8
aI4
aI11
aI32
aI12
aI8
aI4
aI1
aI3
aa(lp297
F0.12419488026424443
aaa(lp298
(lp299
I350
aI3
aI1
aI0
aa(lp300
I1
aI30
aI7
aI7
aI5
aI39
aI5
aI11
aI28
aI8
aa(lp301
F0.12419488026424443
aaa(lp302
(lp303
I762
aI3
aI1
aI0
aa(lp304
I4
aI5
aI29
aI11
aI21
aI30
aI12
aI31
aI11
aI1
aa(lp305
F0.12419488026424443
aaa(lp306
(lp307
I781
aI3
aI1
aI0
aa(lp308
I8
aI9
aI7
aI8
aI4
aI9
aI8
aI0
aI0
aI0
aa(lp309
F0.12419488026424443
aaa(lp310
(lp311
I458
aI3
aI1
aI0
aa(lp312
I4
aI5
aI29
aI11
aI21
aI30
aI12
aI31
aI0
aI0
aa(lp313
F0.12419488026424443
aaa(lp314
(lp315
I498
aI3
aI1
aI0
aa(lp316
I4
aI5
aI29
aI11
aI21
aI30
aI12
aI31
aI0
aI0
aa(lp317
F0.12419488026424443
aaa(lp318
(lp319
I329
aI3
aI1
aI0
aa(lp320
I4
aI5
aI29
aI11
aI21
aI30
aI12
aI31
aI0
aI0
aa(lp321
F0.12419488026424443
aaa(lp322
(lp323
I871
aI3
aI1
aI0
aa(lp324
I4
aI5
aI29
aI11
aI21
aI30
aI12
aI31
aI0
aI0
aa(lp325
F0.12419488026424443
aaa(lp326
(lp327
I873
aI3
aI1
aI0
aa(lp328
I4
aI5
aI29
aI11
aI21
aI30
aI12
aI31
aI0
aI0
aa(lp329
F0.12419488026424443
aaa(lp330
(lp331
I887
aI3
aI1
aI0
aa(lp332
I38
aI5
aI4
aI3
aI1
aI5
aI0
aI0
aI0
aI0
aa(lp333
F0.12419488026424443
aaa(lp334
(lp335
I897
aI3
aI1
aI0
aa(lp336
I8
aI9
aI7
aI8
aI4
aI9
aI8
aI0
aI0
aI0
aa(lp337
F0.12419488026424443
aaa(lp338
(lp339
I72
aI3
aI1
aI0
aa(lp340
I4
aI5
aI29
aI11
aI21
aI30
aI12
aI31
aI0
aI0
aa(lp341
F0.12419488026424443
aaa(lp342
(lp343
I900
aI3
aI1
aI0
aa(lp344
I7
aI30
aI6
aI11
aI8
aI4
aI39
aI5
aI7
aI5
aa(lp345
F0.12419488026424443
aaa(lp346
(lp347
I913
aI3
aI1
aI0
aa(lp348
I8
aI9
aI7
aI8
aI4
aI9
aI8
aI0
aI0
aI0
aa(lp349
F0.12419488026424443
aaa(lp350
(lp351
I915
aI3
aI1
aI0
aa(lp352
I7
aI8
aI6
aI11
aI38
aI5
aI39
aI8
aI6
aI0
aa(lp353
F0.12419488026424443
aaa(lp354
(lp355
I916
aI3
aI1
aI0
aa(lp356
I8
aI9
aI7
aI8
aI4
aI9
aI8
aI0
aI0
aI0
aa(lp357
F0.12419488026424443
aaa(lp358
(lp359
I927
aI6
aI1
aI0
aa(lp360
I3
aI4
aI9
aI5
aI12
aI4
aI8
aI9
aI3
aI30
aa(lp361
F0.018662262592898431
aaa(lp362
(lp363
I937
aI3
aI1
aI0
aa(lp364
I8
aI9
aI7
aI8
aI4
aI9
aI8
aI0
aI0
aI0
aa(lp365
F0.12419488026424443
aaa(lp366
(lp367
I976
aI3
aI1
aI0
aa(lp368
I7
aI8
aI6
aI11
aI38
aI5
aI39
aI8
aI6
aI0
aa(lp369
F0.12419488026424443
aaa(lp370
(lp371
I977
aI3
aI1
aI0
aa(lp372
I29
aI5
aI6
aI9
aI7
aI8
aI31
aI5
aI11
aI38
aa(lp373
F0.12419488026424443
aaa(lp374
(lp375
I989
aI3
aI1
aI0
aa(lp376
I20
aI12
aI30
aI30
aI31
aI7
aI21
aI4
aI0
aI0
aa(lp377
F0.12419488026424443
aaa(lp378
(lp379
I17
aI3
aI1
aI0
aa(lp380
I6
aI8
aI4
aI11
aI32
aI12
aI8
aI4
aI1
aI3
aa(lp381
F0.12419488026424443
aaa(lp382
(lp383
I995
aI3
aI1
aI0
aa(lp384
I8
aI9
aI7
aI8
aI4
aI9
aI8
aI0
aI0
aI0
aa(lp385
F0.12419488026424443
aaa(lp386
(lp387
I563
aI3
aI1
aI0
aa(lp388
I4
aI5
aI29
aI11
aI21
aI30
aI12
aI31
aI0
aI0
aa(lp389
F0.12419488026424443
aaa(lp390
(lp391
I1004
aI3
aI1
aI0
aa(lp392
I4
aI5
aI29
aI11
aI21
aI30
aI12
aI31
aI0
aI0
aa(lp393
F0.12419488026424443
aaa(lp394
(lp395
I1022
aI3
aI1
aI0
aa(lp396
I29
aI35
aI11
aI2
aI30
aI7
aI7
aI21
aI29
aI30
aa(lp397
F0.12419488026424443
aaa(lp398
(lp399
I725
aI3
aI1
aI0
aa(lp400
I22
aI5
aI1
aI8
aI9
aI36
aI12
aI0
aI0
aI0
aa(lp401
F0.12419488026424443
aaa(lp402
(lp403
I1032
aI3
aI1
aI0
aa(lp404
I7
aI30
aI4
aI39
aI11
aI20
aI5
aI8
aI1
aI2
aa(lp405
F0.12419488026424443
aaa(lp406
(lp407
I36
aI3
aI1
aI0
aa(lp408
I7
aI8
aI6
aI11
aI38
aI5
aI39
aI8
aI6
aI0
aa(lp409
F0.12419488026424443
aaa(lp410
(lp411
I1035
aI3
aI1
aI0
aa(lp412
I20
aI36
aI12
aI20
aI8
aI4
aI31
aI0
aI0
aI0
aa(lp413
F0.12419488026424443
aaa(lp414
(lp415
I1039
aI3
aI1
aI0
aa(lp416
I4
aI5
aI29
aI11
aI21
aI30
aI12
aI31
aI0
aI0
aa(lp417
F0.12419488026424443
aaa(lp418
(lp419
I1043
aI3
aI1
aI0
aa(lp420
I4
aI5
aI29
aI11
aI21
aI30
aI12
aI31
aI0
aI0
aa(lp421
F0.12419488026424443
aaa(lp422
(lp423
I398
aI3
aI1
aI0
aa(lp424
I28
aI8
aI6
aI8
aI22
aI5
aI4
aI8
aI0
aI0
aa(lp425
F0.12419488026424443
aaa(lp426
(lp427
I1061
aI3
aI1
aI0
aa(lp428
I6
aI8
aI4
aI11
aI32
aI12
aI8
aI4
aI1
aI3
aa(lp429
F0.12419488026424443
aaa(lp430
(lp431
I406
aI6
aI1
aI0
aa(lp432
I8
aI34
aI5
aI12
aI3
aI1
aI8
aI4
aI0
aI0
aa(lp433
F0.018662262592898431
aaa(lp434
(lp435
I629
aI3
aI1
aI0
aa(lp436
I42
aI36
aI5
aI5
aI4
aI6
aI0
aI0
aI0
aI0
aa(lp437
F0.12419488026424443
aaa(lp438
(lp439
I1084
aI3
aI1
aI0
aa(lp440
I6
aI8
aI4
aI11
aI32
aI12
aI8
aI4
aI1
aI3
aa(lp441
F0.12419488026424443
aaa(lp442
(lp443
I1041
aI3
aI1
aI0
aa(lp444
I6
aI8
aI4
aI11
aI32
aI12
aI8
aI4
aI1
aI3
aa(lp445
F0.12419488026424443
aaa(lp446
(lp447
I1101
aI3
aI1
aI0
aa(lp448
I7
aI8
aI6
aI11
aI38
aI5
aI39
aI8
aI6
aI0
aa(lp449
F0.12419488026424443
aaa(lp450
(lp451
I1128
aI3
aI1
aI0
aa(lp452
I6
aI8
aI4
aI11
aI32
aI12
aI8
aI4
aI1
aI3
aa(lp453
F0.12419488026424443
aaa(lp454
(lp455
I876
aI3
aI1
aI0
aa(lp456
I4
aI5
aI29
aI11
aI21
aI30
aI12
aI31
aI11
aI1
aa(lp457
F0.12419488026424443
aaa(lp458
(lp459
I1138
aI3
aI1
aI0
aa(lp460
I7
aI30
aI6
aI11
aI8
aI4
aI39
aI5
aI7
aI5
aa(lp461
F0.12419488026424443
aaa(lp462
(lp463
I304
aI3
aI1
aI0
aa(lp464
I8
aI9
aI7
aI8
aI4
aI9
aI8
aI0
aI0
aI0
aa(lp465
F0.12419488026424443
aaa(lp466
(lp467
I1166
aI3
aI1
aI0
aa(lp468
I7
aI8
aI6
aI11
aI38
aI5
aI39
aI8
aI6
aI0
aa(lp469
F0.12419488026424443
aaa(lp470
(lp471
I444
aI6
aI1
aI0
aa(lp472
I8
aI34
aI5
aI12
aI3
aI1
aI8
aI4
aI0
aI0
aa(lp473
F0.018662262592898431
aaa(lp474
(lp475
I1187
aI3
aI1
aI0
aa(lp476
I4
aI5
aI29
aI11
aI21
aI30
aI12
aI31
aI11
aI1
aa(lp477
F0.12419488026424443
aaa(lp478
(lp479
I202
aI3
aI1
aI0
aa(lp480
I6
aI8
aI4
aI11
aI32
aI12
aI8
aI4
aI1
aI3
aa(lp481
F0.12419488026424443
aaa(lp482
(lp483
I1188
aI3
aI1
aI0
aa(lp484
I6
aI8
aI4
aI11
aI32
aI12
aI8
aI4
aI1
aI3
aa(lp485
F0.12419488026424443
aaa(lp486
(lp487
I718
aI3
aI1
aI0
aa(lp488
I8
aI9
aI7
aI8
aI4
aI9
aI8
aI0
aI0
aI0
aa(lp489
F0.12419488026424443
aaa(lp490
(lp491
I1195
aI3
aI1
aI0
aa(lp492
I8
aI9
aI7
aI8
aI4
aI9
aI8
aI0
aI0
aI0
aa(lp493
F0.12419488026424443
aaa(lp494
(lp495
I1197
aI3
aI1
aI0
aa(lp496
I8
aI9
aI7
aI8
aI4
aI9
aI8
aI0
aI0
aI0
aa(lp497
F0.12419488026424443
aaa(lp498
(lp499
I1199
aI3
aI1
aI0
aa(lp500
I6
aI8
aI4
aI11
aI32
aI12
aI8
aI4
aI1
aI3
aa(lp501
F0.12419488026424443
aaa(lp502
(lp503
I1200
aI3
aI1
aI0
aa(lp504
I7
aI30
aI6
aI11
aI8
aI4
aI39
aI5
aI7
aI5
aa(lp505
F0.12419488026424443
aaa(lp506
(lp507
I1202
aI3
aI1
aI0
aa(lp508
I8
aI9
aI7
aI8
aI4
aI9
aI8
aI0
aI0
aI0
aa(lp509
F0.12419488026424443
aaa(lp510
(lp511
I1213
aI3
aI1
aI0
aa(lp512
I4
aI5
aI29
aI11
aI21
aI30
aI12
aI31
aI0
aI0
aa(lp513
F0.12419488026424443
aaa(lp514
(lp515
I1228
aI6
aI1
aI0
aa(lp516
I8
aI34
aI5
aI12
aI3
aI1
aI8
aI4
aI0
aI0
aa(lp517
F0.018662262592898431
aaa(lp518
(lp519
I1234
aI3
aI1
aI0
aa(lp520
I4
aI5
aI29
aI11
aI21
aI30
aI12
aI31
aI0
aI0
aa(lp521
F0.12419488026424443
aaa(lp522
(lp523
I1104
aI3
aI1
aI0
aa(lp524
I6
aI8
aI4
aI11
aI32
aI12
aI8
aI4
aI1
aI3
aa(lp525
F0.12419488026424443
aaa(lp526
(lp527
I1092
aI3
aI1
aI0
aa(lp528
I4
aI5
aI29
aI11
aI21
aI30
aI12
aI31
aI11
aI1
aa(lp529
F0.12419488026424443
aaa(lp530
(lp531
I1251
aI3
aI1
aI0
aa(lp532
I29
aI5
aI6
aI9
aI29
aI30
aI30
aI22
aI0
aI0
aa(lp533
F0.12419488026424443
aaa(lp534
(lp535
I1252
aI3
aI1
aI0
aa(lp536
I4
aI5
aI29
aI11
aI21
aI30
aI12
aI31
aI11
aI1
aa(lp537
F0.12419488026424443
aaa(lp538
(lp539
I249
aI3
aI1
aI0
aa(lp540
I6
aI8
aI4
aI11
aI32
aI12
aI8
aI4
aI1
aI3
aa(lp541
F0.12419488026424443
aaa(lp542
(lp543
I422
aI3
aI1
aI0
aa(lp544
I8
aI9
aI7
aI8
aI4
aI9
aI8
aI0
aI0
aI0
aa(lp545
F0.12419488026424443
aaa(lp546
(lp547
I1006
aI3
aI1
aI0
aa(lp548
I8
aI9
aI7
aI8
aI4
aI9
aI8
aI0
aI0
aI0
aa(lp549
F0.12419488026424443
aaa(lp550
(lp551
I1270
aI6
aI1
aI0
aa(lp552
I8
aI6
aI3
aI8
aI4
aI0
aI0
aI0
aI0
aI0
aa(lp553
F0.018662262592898431
aaa(lp554
(lp555
I1271
aI3
aI1
aI0
aa(lp556
I7
aI8
aI6
aI11
aI38
aI5
aI39
aI8
aI6
aI0
aa(lp557
F0.12419488026424443
aaa(lp558
(lp559
I1272
aI3
aI1
aI0
aa(lp560
I4
aI5
aI29
aI11
aI21
aI30
aI12
aI31
aI0
aI0
aa(lp561
F0.12419488026424443
aaa(lp562
(lp563
I130
aI3
aI1
aI0
aa(lp564
I6
aI8
aI4
aI11
aI32
aI12
aI8
aI4
aI1
aI3
aa(lp565
F0.12419488026424443
aaa(lp566
(lp567
I1284
aI3
aI1
aI0
aa(lp568
I8
aI9
aI7
aI8
aI4
aI9
aI8
aI0
aI0
aI0
aa(lp569
F0.12419488026424443
aaa(lp570
(lp571
I1287
aI3
aI1
aI0
aa(lp572
I4
aI5
aI29
aI11
aI21
aI30
aI12
aI31
aI0
aI0
aa(lp573
F0.12419488026424443
aaa(lp574
(lp575
I1291
aI3
aI1
aI0
aa(lp576
I7
aI8
aI0
aI0
aI0
aI0
aI0
aI0
aI0
aI0
aa(lp577
F0.12419488026424443
aaa(lp578
(lp579
I63
aI3
aI1
aI0
aa(lp580
I4
aI5
aI29
aI11
aI21
aI30
aI12
aI31
aI0
aI0
aa(lp581
F0.12419488026424443
aaa(lp582
(lp583
I41
aI3
aI1
aI0
aa(lp584
I4
aI5
aI29
aI11
aI21
aI30
aI12
aI31
aI0
aI0
aa(lp585
F0.12419488026424443
aaa(lp586
(lp587
I840
aI3
aI1
aI0
aa(lp588
I7
aI8
aI6
aI11
aI38
aI5
aI39
aI8
aI6
aI0
aa(lp589
F0.12419488026424443
aaa(lp590
(lp591
I1302
aI3
aI1
aI0
aa(lp592
I7
aI30
aI6
aI11
aI8
aI4
aI39
aI5
aI7
aI5
aa(lp593
F0.12419488026424443
aaa(lp594
(lp595
I1304
aI3
aI1
aI0
aa(lp596
I12
aI5
aI22
aI30
aI4
aI22
aI30
aI11
aI20
aI5
aa(lp597
F0.12419488026424443
aaa(lp598
(lp599
I131
aI6
aI1
aI0
aa(lp600
I8
aI34
aI5
aI12
aI3
aI1
aI8
aI4
aI0
aI0
aa(lp601
F0.018662262592898431
aaa(lp602
(lp603
I68
aI3
aI1
aI0
aa(lp604
I4
aI5
aI29
aI11
aI21
aI30
aI12
aI31
aI0
aI0
aa(lp605
F0.12419488026424443
aaa(lp606
(lp607
I864
aI3
aI1
aI0
aa(lp608
I4
aI5
aI29
aI11
aI21
aI30
aI12
aI31
aI0
aI0
aa(lp609
F0.12419488026424443
aaa(lp610
(lp611
I618
aI3
aI1
aI0
aa(lp612
I4
aI5
aI29
aI11
aI21
aI30
aI12
aI31
aI11
aI1
aa(lp613
F0.12419488026424443
aaa(lp614
(lp615
I1317
aI3
aI1
aI0
aa(lp616
I4
aI5
aI29
aI11
aI21
aI30
aI12
aI31
aI11
aI1
aa(lp617
F0.12419488026424443
aaa(lp618
(lp619
I251
aI3
aI1
aI0
aa(lp620
I6
aI8
aI4
aI9
aI8
aI11
aI34
aI30
aI4
aI3
aa(lp621
F0.12419488026424443
aaa(lp622
(lp623
I1323
aI3
aI1
aI0
aa(lp624
I6
aI8
aI4
aI11
aI32
aI12
aI8
aI4
aI1
aI3
aa(lp625
F0.12419488026424443
aaa(lp626
(lp627
I764
aI6
aI1
aI0
aa(lp628
I32
aI12
aI5
aI4
aI1
aI2
aI0
aI0
aI0
aI0
aa(lp629
F0.018662262592898431
aaa(lp630
(lp631
I306
aI3
aI1
aI0
aa(lp632
I4
aI5
aI29
aI11
aI21
aI30
aI12
aI31
aI0
aI0
aa(lp633
F0.12419488026424443
aaa(lp634
(lp635
I813
aI3
aI1
aI0
aa(lp636
I8
aI9
aI7
aI8
aI4
aI9
aI8
aI0
aI0
aI0
aa(lp637
F0.12419488026424443
aaa(lp638
(lp639
I1348
aI3
aI1
aI0
aa(lp640
I28
aI8
aI6
aI8
aI22
aI5
aI4
aI8
aI0
aI0
aa(lp641
F0.12419488026424443
aaa(lp642
(lp643
I1349
aI3
aI1
aI0
aa(lp644
I6
aI8
aI4
aI11
aI32
aI12
aI8
aI4
aI1
aI3
aa(lp645
F0.12419488026424443
aaa(lp646
(lp647
I31
aI3
aI1
aI0
aa(lp648
I8
aI9
aI7
aI8
aI4
aI9
aI8
aI0
aI0
aI0
aa(lp649
F0.12419488026424443
aaa(lp650
(lp651
I127
aI3
aI1
aI0
aa(lp652
I4
aI5
aI29
aI11
aI21
aI30
aI12
aI31
aI0
aI0
aa(lp653
F0.12419488026424443
aaa(lp654
(lp655
I1367
aI3
aI1
aI0
aa(lp656
I4
aI5
aI29
aI11
aI21
aI30
aI12
aI31
aI0
aI0
aa(lp657
F0.12419488026424443
aaa(lp658
(lp659
I1238
aI6
aI1
aI0
aa(lp660
I6
aI9
aI5
aI8
aI31
aI11
aI2
aI30
aI36
aI6
aa(lp661
F0.018662262592898431
aaa(lp662
(lp663
I1126
aI3
aI1
aI0
aa(lp664
I8
aI9
aI7
aI8
aI4
aI9
aI8
aI0
aI0
aI0
aa(lp665
F0.12419488026424443
aaa(lp666
(lp667
I1390
aI3
aI1
aI0
aa(lp668
I4
aI5
aI29
aI11
aI21
aI30
aI12
aI31
aI11
aI1
aa(lp669
F0.12419488026424443
aaa(lp670
(lp671
I1400
aI3
aI1
aI0
aa(lp672
I4
aI5
aI29
aI11
aI21
aI30
aI12
aI31
aI0
aI0
aa(lp673
F0.12419488026424443
aaa(lp674
(lp675
I1404
aI6
aI1
aI0
aa(lp676
I3
aI9
aI8
aI7
aI3
aI8
aI4
aI0
aI0
aI0
aa(lp677
F0.018662262592898431
aaa(lp678
(lp679
I1411
aI3
aI1
aI0
aa(lp680
I4
aI5
aI29
aI11
aI21
aI30
aI12
aI31
aI0
aI0
aa(lp681
F0.12419488026424443
aaa(lp682
(lp683
I1413
aI3
aI1
aI0
aa(lp684
I4
aI5
aI29
aI11
aI21
aI30
aI12
aI31
aI11
aI1
aa(lp685
F0.12419488026424443
aaa(lp686
(lp687
I1419
aI3
aI1
aI0
aa(lp688
I6
aI8
aI4
aI11
aI32
aI12
aI8
aI4
aI1
aI3
aa(lp689
F0.12419488026424443
aaa(lp690
(lp691
I1422
aI3
aI1
aI0
aa(lp692
I7
aI8
aI6
aI11
aI38
aI5
aI39
aI8
aI6
aI0
aa(lp693
F0.12419488026424443
aaa(lp694
(lp695
I975
aI3
aI1
aI0
aa(lp696
I1
aI5
aI4
aI9
aI36
aI12
aI21
aI11
aI1
aI3
aa(lp697
F0.12419488026424443
aaa(lp698
(lp699
I1423
aI3
aI1
aI0
aa(lp700
I4
aI5
aI29
aI11
aI21
aI30
aI12
aI31
aI0
aI0
aa(lp701
F0.12419488026424443
aaa(lp702
(lp703
I1424
aI3
aI1
aI0
aa(lp704
I4
aI5
aI29
aI11
aI21
aI30
aI12
aI31
aI0
aI0
aa(lp705
F0.12419488026424443
aaa(lp706
(lp707
I1438
aI6
aI1
aI0
aa(lp708
I3
aI9
aI8
aI7
aI3
aI8
aI4
aI0
aI0
aI0
aa(lp709
F0.018662262592898431
aaa(lp710
(lp711
I1439
aI3
aI1
aI0
aa(lp712
I4
aI5
aI29
aI11
aI21
aI30
aI12
aI31
aI11
aI1
aa(lp713
F0.12419488026424443
aaa(lp714
(lp715
I1444
aI3
aI1
aI0
aa(lp716
I34
aI8
aI12
aI11
aI38
aI3
aI6
aI9
aI8
aI0
aa(lp717
F0.12419488026424443
aaa(lp718
(lp719
I1453
aI6
aI1
aI0
aa(lp720
I34
aI5
aI22
aI3
aI9
aI5
aI12
aI12
aI8
aI4
aa(lp721
F0.018662262592898431
aaa(lp722
(lp723
I1455
aI6
aI1
aI0
aa(lp724
I6
aI5
aI8
aI32
aI30
aI30
aI22
aI0
aI0
aI0
aa(lp725
F0.018662262592898431
aaa(lp726
(lp727
I1459
aI3
aI1
aI0
aa(lp728
I4
aI5
aI29
aI11
aI21
aI30
aI12
aI31
aI0
aI0
aa(lp729
F0.12419488026424443
aaa(lp730
(lp731
I1460
aI3
aI1
aI0
aa(lp732
I4
aI5
aI29
aI11
aI21
aI30
aI12
aI31
aI11
aI1
aa(lp733
F0.12419488026424443
aaa(lp734
(lp735
I1464
aI3
aI1
aI0
aa(lp736
I20
aI5
aI7
aI11
aI8
aI3
aI12
aI0
aI0
aI0
aa(lp737
F0.12419488026424443
aaa(lp738
(lp739
I1469
aI6
aI1
aI0
aa(lp740
I8
aI6
aI3
aI8
aI4
aI0
aI0
aI0
aI0
aI0
aa(lp741
F0.018662262592898431
aaa(lp742
(lp743
I1359
aI3
aI1
aI0
aa(lp744
I4
aI5
aI29
aI11
aI21
aI30
aI12
aI31
aI0
aI0
aa(lp745
F0.12419488026424443
aaa(lp746
(lp747
I1477
aI3
aI1
aI0
aa(lp748
I4
aI5
aI29
aI11
aI21
aI30
aI12
aI31
aI11
aI1
aa(lp749
F0.12419488026424443
aaa(lp750
(lp751
I1482
aI6
aI1
aI0
aa(lp752
I34
aI5
aI22
aI3
aI9
aI5
aI12
aI12
aI8
aI4
aa(lp753
F0.018662262592898431
aaa(lp754
(lp755
I121
aI3
aI1
aI0
aa(lp756
I4
aI5
aI29
aI11
aI21
aI30
aI12
aI31
aI0
aI0
aa(lp757
F0.12419488026424443
aaa(lp758
(lp759
I1229
aI6
aI1
aI0
aa(lp760
I6
aI5
aI8
aI32
aI30
aI30
aI22
aI0
aI0
aI0
aa(lp761
F0.018662262592898431
aaa(lp762
(lp763
I1507
aI3
aI1
aI0
aa(lp764
I4
aI5
aI29
aI11
aI21
aI30
aI12
aI31
aI0
aI0
aa(lp765
F0.12419488026424443
aaa(lp766
(lp767
I754
aI3
aI1
aI0
aa(lp768
I22
aI36
aI7
aI36
aI9
aI2
aI0
aI0
aI0
aI0
aa(lp769
F0.12419488026424443
aaa(lp770
(lp771
I1550
aI3
aI1
aI0
aa(lp772
I6
aI8
aI4
aI11
aI32
aI12
aI8
aI4
aI1
aI3
aa(lp773
F0.12419488026424443
aaa(lp774
(lp775
I1319
aI3
aI1
aI0
aa(lp776
I4
aI5
aI29
aI11
aI21
aI30
aI12
aI31
aI0
aI0
aa(lp777
F0.12419488026424443
aaa(lp778
(lp779
I1563
aI3
aI1
aI0
aa(lp780
I4
aI5
aI29
aI11
aI21
aI30
aI12
aI31
aI11
aI1
aa(lp781
F0.12419488026424443
aaa(lp782
(lp783
I1564
aI3
aI1
aI0
aa(lp784
I4
aI5
aI29
aI11
aI21
aI30
aI12
aI31
aI0
aI0
aa(lp785
F0.12419488026424443
aaa(lp786
(lp787
I1565
aI3
aI1
aI0
aa(lp788
I8
aI9
aI7
aI8
aI4
aI9
aI8
aI0
aI0
aI0
aa(lp789
F0.12419488026424443
aaa(lp790
(lp791
I196
aI3
aI1
aI0
aa(lp792
I6
aI8
aI4
aI9
aI8
aI11
aI34
aI30
aI4
aI3
aa(lp793
F0.12419488026424443
aaa(lp794
(lp795
I1583
aI3
aI1
aI0
aa(lp796
I4
aI5
aI29
aI11
aI21
aI30
aI12
aI31
aI11
aI1
aa(lp797
F0.12419488026424443
aaa(lp798
(lp799
I521
aI3
aI1
aI0
aa(lp800
I8
aI9
aI7
aI8
aI4
aI9
aI8
aI0
aI0
aI0
aa(lp801
F0.12419488026424443
aaa(lp802
(lp803
I1586
aI3
aI1
aI0
aa(lp804
I4
aI5
aI29
aI11
aI21
aI30
aI12
aI31
aI0
aI0
aa(lp805
F0.12419488026424443
aaa(lp806
(lp807
I1588
aI3
aI1
aI0
aa(lp808
I7
aI30
aI6
aI11
aI8
aI4
aI39
aI5
aI7
aI5
aa(lp809
F0.12419488026424443
aaa(lp810
(lp811
I425
aI3
aI1
aI0
aa(lp812
I7
aI30
aI6
aI11
aI8
aI4
aI39
aI5
aI7
aI5
aa(lp813
F0.12419488026424443
aaa(lp814
(lp815
I902
aI6
aI1
aI0
aa(lp816
I8
aI34
aI5
aI12
aI3
aI1
aI8
aI4
aI0
aI0
aa(lp817
F0.018662262592898431
aaa(lp818
(lp819
I1606
aI3
aI1
aI0
aa(lp820
I6
aI8
aI4
aI11
aI32
aI12
aI8
aI4
aI1
aI3
aa(lp821
F0.12419488026424443
aaa(lp822
(lp823
I1611
aI3
aI1
aI0
aa(lp824
I6
aI8
aI4
aI11
aI32
aI12
aI8
aI4
aI1
aI3
aa(lp825
F0.12419488026424443
aaa(lp826
(lp827
I142
aI3
aI1
aI0
aa(lp828
I6
aI8
aI4
aI11
aI32
aI12
aI8
aI4
aI1
aI3
aa(lp829
F0.12419488026424443
aaa(lp830
(lp831
I1641
aI3
aI1
aI0
aa(lp832
I4
aI5
aI29
aI11
aI21
aI30
aI12
aI31
aI11
aI1
aa(lp833
F0.12419488026424443
aaa(lp834
(lp835
I1642
aI3
aI1
aI0
aa(lp836
I7
aI30
aI6
aI11
aI8
aI4
aI39
aI5
aI7
aI5
aa(lp837
F0.12419488026424443
aaa(lp838
(lp839
I115
aI3
aI1
aI0
aa(lp840
I12
aI30
aI6
aI29
aI5
aI7
aI7
aI0
aI0
aI0
aa(lp841
F0.12419488026424443
aaa(lp842
(lp843
I929
aI3
aI1
aI0
aa(lp844
I7
aI8
aI6
aI11
aI38
aI5
aI39
aI8
aI6
aI0
aa(lp845
F0.12419488026424443
aaa(lp846
(lp847
I794
aI3
aI1
aI0
aa(lp848
I7
aI8
aI6
aI11
aI38
aI5
aI39
aI8
aI6
aI0
aa(lp849
F0.12419488026424443
aaa(lp850
(lp851
I1658
aI3
aI1
aI0
aa(lp852
I20
aI5
aI38
aI5
aI12
aI7
aI21
aI11
aI2
aI3
aa(lp853
F0.12419488026424443
aaa(lp854
(lp855
I1072
aI3
aI1
aI0
aa(lp856
I4
aI5
aI29
aI11
aI21
aI30
aI12
aI31
aI0
aI0
aa(lp857
F0.12419488026424443
aaa(lp858
(lp859
I1051
aI6
aI1
aI0
aa(lp860
I30
aI12
aI11
aI24
aI14
aI24
aI25
aI19
aI26
aI24
aa(lp861
F0.018662262592898431
aaa(lp862
(lp863
I1683
aI3
aI1
aI0
aa(lp864
I29
aI35
aI11
aI2
aI30
aI7
aI7
aI21
aI29
aI30
aa(lp865
F0.12419488026424443
aaa(lp866
(lp867
I904
aI3
aI1
aI0
aa(lp868
I6
aI8
aI4
aI9
aI8
aI11
aI34
aI30
aI4
aI3
aa(lp869
F0.12419488026424443
aaa(lp870
(lp871
I1074
aI3
aI1
aI0
aa(lp872
I6
aI8
aI4
aI11
aI32
aI12
aI8
aI4
aI1
aI3
aa(lp873
F0.12419488026424443
aaa(lp874
(lp875
I751
aI6
aI1
aI0
aa(lp876
I3
aI9
aI8
aI7
aI3
aI8
aI4
aI0
aI0
aI0
aa(lp877
F0.018662262592898431
aaa(lp878
(lp879
I1584
aI3
aI1
aI0
aa(lp880
I4
aI5
aI29
aI11
aI21
aI30
aI12
aI31
aI0
aI0
aa(lp881
F0.12419488026424443
aaa(lp882
(lp883
I1599
aI3
aI1
aI0
aa(lp884
I4
aI5
aI29
aI11
aI21
aI30
aI12
aI31
aI0
aI0
aa(lp885
F0.12419488026424443
aaa(lp886
(lp887
I1678
aI6
aI1
aI0
aa(lp888
I8
aI6
aI3
aI8
aI4
aI0
aI0
aI0
aI0
aI0
aa(lp889
F0.018662262592898431
aaa(lp890
(lp891
I1750
aI3
aI1
aI0
aa(lp892
I4
aI5
aI29
aI11
aI21
aI30
aI12
aI31
aI11
aI1
aa(lp893
F0.12419488026424443
aaa(lp894
(lp895
I1752
aI3
aI1
aI0
aa(lp896
I4
aI5
aI29
aI11
aI21
aI30
aI12
aI31
aI0
aI0
aa(lp897
F0.12419488026424443
aaa(lp898
(lp899
I1759
aI6
aI1
aI0
aa(lp900
I32
aI12
aI5
aI4
aI1
aI2
aI0
aI0
aI0
aI0
aa(lp901
F0.018662262592898431
aaa(lp902
(lp903
I1350
aI3
aI1
aI0
aa(lp904
I4
aI5
aI29
aI11
aI21
aI30
aI12
aI31
aI0
aI0
aa(lp905
F0.12419488026424443
aaa(lp906
(lp907
I566
aI3
aI1
aI0
aa(lp908
I6
aI34
aI21
aI12
aI4
aI8
aI0
aI0
aI0
aI0
aa(lp909
F0.12419488026424443
aaa(lp910
(lp911
I20
aI6
aI1
aI0
aa(lp912
I3
aI9
aI8
aI7
aI3
aI8
aI4
aI0
aI0
aI0
aa(lp913
F0.018662262592898431
aaa(lp914
(lp915
I1771
aI3
aI1
aI0
aa(lp916
I4
aI5
aI29
aI11
aI21
aI30
aI12
aI31
aI0
aI0
aa(lp917
F0.12419488026424443
aaa(lp918
(lp919
I1436
aI3
aI1
aI0
aa(lp920
I6
aI8
aI4
aI11
aI32
aI12
aI8
aI4
aI1
aI3
aa(lp921
F0.12419488026424443
aaa(lp922
(lp923
I1665
aI3
aI1
aI0
aa(lp924
I7
aI30
aI6
aI11
aI8
aI4
aI39
aI5
aI7
aI5
aa(lp925
F0.12419488026424443
aaa(lp926
(lp927
I1797
aI3
aI1
aI0
aa(lp928
I4
aI5
aI29
aI11
aI21
aI30
aI12
aI31
aI0
aI0
aa(lp929
F0.12419488026424443
aaa(lp930
(lp931
I711
aI3
aI1
aI0
aa(lp932
I4
aI5
aI29
aI11
aI21
aI30
aI12
aI31
aI0
aI0
aa(lp933
F0.12419488026424443
aaa(lp934
(lp935
I944
aI3
aI1
aI0
aa(lp936
I4
aI5
aI29
aI11
aI21
aI30
aI12
aI31
aI0
aI0
aa(lp937
F0.12419488026424443
aaa(lp938
(lp939
I1718
aI3
aI1
aI0
aa(lp940
I8
aI9
aI7
aI8
aI4
aI9
aI8
aI0
aI0
aI0
aa(lp941
F0.12419488026424443
aaa(lp942
(lp943
I1802
aI3
aI1
aI0
aa(lp944
I6
aI8
aI4
aI11
aI32
aI12
aI8
aI4
aI1
aI3
aa(lp945
F0.12419488026424443
aaa(lp946
(lp947
I1803
aI3
aI1
aI0
aa(lp948
I7
aI30
aI6
aI11
aI8
aI4
aI39
aI5
aI7
aI5
aa(lp949
F0.12419488026424443
aaa(lp950
(lp951
I1804
aI3
aI1
aI0
aa(lp952
I6
aI8
aI4
aI11
aI32
aI12
aI8
aI4
aI1
aI3
aa(lp953
F0.12419488026424443
aaa(lp954
(lp955
I1806
aI3
aI1
aI0
aa(lp956
I4
aI5
aI29
aI11
aI21
aI30
aI12
aI31
aI0
aI0
aa(lp957
F0.12419488026424443
aaa(lp958
(lp959
I1817
aI3
aI1
aI0
aa(lp960
I4
aI5
aI29
aI11
aI21
aI30
aI12
aI31
aI0
aI0
aa(lp961
F0.12419488026424443
aaa(lp962
(lp963
I1110
aI3
aI1
aI0
aa(lp964
I8
aI9
aI7
aI8
aI4
aI9
aI8
aI0
aI0
aI0
aa(lp965
F0.12419488026424443
aaa(lp966
(lp967
I1819
aI3
aI1
aI0
aa(lp968
I7
aI30
aI6
aI11
aI8
aI4
aI39
aI5
aI7
aI5
aa(lp969
F0.12419488026424443
aaa(lp970
(lp971
I1820
aI6
aI1
aI0
aa(lp972
I32
aI12
aI5
aI4
aI1
aI2
aI0
aI0
aI0
aI0
aa(lp973
F0.018662262592898431
aaa(lp974
(lp975
I1629
aI3
aI1
aI0
aa(lp976
I4
aI5
aI29
aI11
aI21
aI30
aI12
aI31
aI0
aI0
aa(lp977
F0.12419488026424443
aaa(lp978
(lp979
I1835
aI3
aI1
aI0
aa(lp980
I4
aI5
aI29
aI11
aI21
aI30
aI12
aI31
aI11
aI1
aa(lp981
F0.12419488026424443
aaa(lp982
(lp983
I1534
aI3
aI1
aI0
aa(lp984
I8
aI9
aI7
aI8
aI4
aI9
aI8
aI0
aI0
aI0
aa(lp985
F0.12419488026424443
aaa(lp986
(lp987
I103
aI6
aI1
aI0
aa(lp988
I8
aI34
aI5
aI12
aI3
aI1
aI8
aI4
aI0
aI0
aa(lp989
F0.018662262592898431
aaa(lp990
(lp991
I1848
aI3
aI1
aI0
aa(lp992
I6
aI8
aI4
aI11
aI32
aI12
aI8
aI4
aI1
aI3
aa(lp993
F0.12419488026424443
aaa(lp994
(lp995
I1849
aI3
aI1
aI0
aa(lp996
I4
aI5
aI29
aI11
aI21
aI30
aI12
aI31
aI11
aI1
aa(lp997
F0.12419488026424443
aaa(lp998
(lp999
I1853
aI6
aI1
aI0
aa(lp1000
I8
aI6
aI3
aI8
aI4
aI0
aI0
aI0
aI0
aI0
aa(lp1001
F0.018662262592898431
aaa(lp1002
(lp1003
I1430
aI3
aI1
aI0
aa(lp1004
I7
aI8
aI0
aI0
aI0
aI0
aI0
aI0
aI0
aI0
aa(lp1005
F0.12419488026424443
aaa(lp1006
(lp1007
I1862
aI3
aI1
aI0
aa(lp1008
I8
aI9
aI7
aI8
aI4
aI9
aI8
aI0
aI0
aI0
aa(lp1009
F0.12419488026424443
aaa(lp1010
(lp1011
I1863
aI3
aI1
aI0
aa(lp1012
I4
aI5
aI29
aI11
aI21
aI30
aI12
aI31
aI0
aI0
aa(lp1013
F0.12419488026424443
aaa(lp1014
(lp1015
I1864
aI3
aI1
aI0
aa(lp1016
I4
aI5
aI29
aI11
aI21
aI30
aI12
aI31
aI0
aI0
aa(lp1017
F0.12419488026424443
aaa(lp1018
(lp1019
I1866
aI3
aI1
aI0
aa(lp1020
I4
aI5
aI29
aI11
aI21
aI30
aI12
aI31
aI0
aI0
aa(lp1021
F0.12419488026424443
aaa(lp1022
(lp1023
I789
aI3
aI1
aI0
aa(lp1024
I6
aI8
aI4
aI11
aI32
aI12
aI8
aI4
aI1
aI3
aa(lp1025
F0.12419488026424443
aaa(lp1026
(lp1027
I1868
aI3
aI1
aI0
aa(lp1028
I34
aI8
aI7
aI3
aI20
aI36
aI0
aI0
aI0
aI0
aa(lp1029
F0.12419488026424443
aaa(lp1030
(lp1031
I453
aI6
aI1
aI0
aa(lp1032
I34
aI5
aI23
aI3
aI1
aI8
aI4
aI0
aI0
aI0
aa(lp1033
F0.018662262592898431
aaa(lp1034
(lp1035
I1698
aI3
aI1
aI0
aa(lp1036
I6
aI8
aI4
aI11
aI32
aI12
aI8
aI4
aI1
aI3
aa(lp1037
F0.12419488026424443
aaa(lp1038
(lp1039
I1882
aI3
aI1
aI0
aa(lp1040
I4
aI5
aI29
aI11
aI21
aI30
aI12
aI31
aI0
aI0
aa(lp1041
F0.12419488026424443
aaa(lp1042
(lp1043
I74
aI3
aI1
aI0
aa(lp1044
I8
aI9
aI7
aI8
aI4
aI9
aI8
aI0
aI0
aI0
aa(lp1045
F0.12419488026424443
aaa(lp1046
(lp1047
I1893
aI3
aI1
aI0
aa(lp1048
I4
aI5
aI29
aI11
aI21
aI30
aI12
aI31
aI11
aI1
aa(lp1049
F0.12419488026424443
aaa(lp1050
(lp1051
I1895
aI3
aI1
aI0
aa(lp1052
I6
aI8
aI4
aI11
aI32
aI12
aI8
aI4
aI1
aI3
aa(lp1053
F0.12419488026424443
aaa(lp1054
(lp1055
I1594
aI3
aI1
aI0
aa(lp1056
I7
aI30
aI6
aI11
aI8
aI4
aI39
aI5
aI7
aI5
aa(lp1057
F0.12419488026424443
aaa(lp1058
(lp1059
I1901
aI3
aI1
aI0
aa(lp1060
I4
aI5
aI29
aI11
aI21
aI30
aI12
aI31
aI11
aI1
aa(lp1061
F0.12419488026424443
aaa(lp1062
(lp1063
I1909
aI3
aI1
aI0
aa(lp1064
I4
aI5
aI29
aI11
aI21
aI30
aI12
aI31
aI11
aI1
aa(lp1065
F0.12419488026424443
aaa(lp1066
(lp1067
I1913
aI3
aI1
aI0
aa(lp1068
I4
aI5
aI29
aI11
aI21
aI30
aI12
aI31
aI0
aI0
aa(lp1069
F0.12419488026424443
aaa(lp1070
(lp1071
I1339
aI3
aI1
aI0
aa(lp1072
I4
aI5
aI29
aI11
aI21
aI30
aI12
aI31
aI0
aI0
aa(lp1073
F0.12419488026424443
aaa(lp1074
(lp1075
I1222
aI3
aI1
aI0
aa(lp1076
I6
aI8
aI4
aI11
aI32
aI12
aI8
aI4
aI1
aI3
aa(lp1077
F0.12419488026424443
aaa(lp1078
(lp1079
I508
aI6
aI1
aI0
aa(lp1080
I32
aI12
aI5
aI4
aI1
aI2
aI0
aI0
aI0
aI0
aa(lp1081
F0.018662262592898431
aaa(lp1082
(lp1083
I1948
aI3
aI1
aI0
aa(lp1084
I4
aI5
aI29
aI11
aI21
aI30
aI12
aI31
aI0
aI0
aa(lp1085
F0.12419488026424443
aaa(lp1086
(lp1087
I1274
aI3
aI1
aI0
aa(lp1088
I4
aI5
aI29
aI11
aI21
aI30
aI12
aI31
aI11
aI1
aa(lp1089
F0.12419488026424443
aaa(lp1090
(lp1091
I1953
aI3
aI1
aI0
aa(lp1092
I4
aI5
aI29
aI11
aI21
aI30
aI12
aI31
aI0
aI0
aa(lp1093
F0.12419488026424443
aaa(lp1094
(lp1095
I275
aI3
aI1
aI0
aa(lp1096
I4
aI5
aI29
aI11
aI21
aI30
aI12
aI31
aI0
aI0
aa(lp1097
F0.12419488026424443
aaa(lp1098
(lp1099
I1778
aI3
aI1
aI0
aa(lp1100
I4
aI5
aI29
aI11
aI21
aI30
aI12
aI31
aI0
aI0
aa(lp1101
F0.12419488026424443
aaa(lp1102
(lp1103
I300
aI3
aI1
aI0
aa(lp1104
I7
aI30
aI6
aI11
aI8
aI4
aI39
aI5
aI7
aI5
aa(lp1105
F0.12419488026424443
aaa(lp1106
(lp1107
I1488
aI3
aI1
aI0
aa(lp1108
I7
aI8
aI6
aI11
aI38
aI5
aI39
aI8
aI6
aI0
aa(lp1109
F0.12419488026424443
aaa(lp1110
(lp1111
I1931
aI3
aI1
aI0
aa(lp1112
I8
aI9
aI7
aI8
aI4
aI9
aI8
aI0
aI0
aI0
aa(lp1113
F0.12419488026424443
aaa(lp1114
(lp1115
I1986
aI3
aI1
aI0
aa(lp1116
I7
aI30
aI6
aI11
aI8
aI4
aI39
aI5
aI7
aI5
aa(lp1117
F0.12419488026424443
aaa(lp1118
(lp1119
I1544
aI3
aI1
aI0
aa(lp1120
I8
aI9
aI7
aI8
aI4
aI9
aI8
aI0
aI0
aI0
aa(lp1121
F0.12419488026424443
aaa(lp1122
(lp1123
I2002
aI3
aI1
aI0
aa(lp1124
I6
aI8
aI4
aI11
aI32
aI12
aI8
aI4
aI1
aI3
aa(lp1125
F0.12419488026424443
aaa(lp1126
(lp1127
I2004
aI3
aI1
aI0
aa(lp1128
I4
aI5
aI29
aI11
aI21
aI30
aI12
aI31
aI0
aI0
aa(lp1129
F0.12419488026424443
aaa(lp1130
(lp1131
I2007
aI3
aI1
aI0
aa(lp1132
I4
aI5
aI29
aI11
aI21
aI30
aI12
aI31
aI0
aI0
aa(lp1133
F0.12419488026424443
aaa(lp1134
(lp1135
I257
aI3
aI1
aI0
aa(lp1136
I4
aI5
aI29
aI11
aI21
aI30
aI12
aI31
aI11
aI1
aa(lp1137
F0.12419488026424443
aaa(lp1138
(lp1139
I811
aI3
aI1
aI0
aa(lp1140
I8
aI9
aI7
aI8
aI4
aI9
aI8
aI0
aI0
aI0
aa(lp1141
F0.12419488026424443
aaa(lp1142
(lp1143
I895
aI3
aI1
aI0
aa(lp1144
I7
aI8
aI0
aI0
aI0
aI0
aI0
aI0
aI0
aI0
aa(lp1145
F0.12419488026424443
aaa(lp1146
(lp1147
I2018
aI3
aI1
aI0
aa(lp1148
I8
aI9
aI7
aI8
aI4
aI9
aI8
aI0
aI0
aI0
aa(lp1149
F0.12419488026424443
aaa(lp1150
(lp1151
I644
aI6
aI1
aI0
aa(lp1152
I8
aI34
aI5
aI12
aI3
aI1
aI8
aI4
aI0
aI0
aa(lp1153
F0.018662262592898431
aaa(lp1154
(lp1155
I1889
aI3
aI1
aI0
aa(lp1156
I4
aI5
aI29
aI11
aI21
aI30
aI12
aI31
aI0
aI0
aa(lp1157
F0.12419488026424443
aaa(lp1158
(lp1159
I2021
aI3
aI1
aI0
aa(lp1160
I6
aI8
aI4
aI11
aI32
aI12
aI8
aI4
aI1
aI3
aa(lp1161
F0.12419488026424443
aaa(lp1162
(lp1163
I2049
aI3
aI1
aI0
aa(lp1164
I4
aI5
aI29
aI11
aI21
aI30
aI12
aI31
aI0
aI0
aa(lp1165
F0.12419488026424443
aaa(lp1166
(lp1167
I2055
aI3
aI1
aI0
aa(lp1168
I8
aI9
aI7
aI8
aI4
aI9
aI8
aI0
aI0
aI0
aa(lp1169
F0.12419488026424443
aaa(lp1170
(lp1171
I2067
aI3
aI1
aI0
aa(lp1172
I8
aI9
aI7
aI8
aI4
aI9
aI8
aI0
aI0
aI0
aa(lp1173
F0.12419488026424443
aaa(lp1174
(lp1175
I743
aI3
aI1
aI0
aa(lp1176
I6
aI8
aI4
aI11
aI32
aI12
aI8
aI4
aI1
aI3
aa(lp1177
F0.12419488026424443
aaa(lp1178
(lp1179
I2071
aI3
aI1
aI0
aa(lp1180
I7
aI8
aI6
aI11
aI38
aI5
aI39
aI8
aI6
aI0
aa(lp1181
F0.12419488026424443
aaa(lp1182
(lp1183
I2074
aI3
aI1
aI0
aa(lp1184
I6
aI8
aI4
aI11
aI32
aI12
aI8
aI4
aI1
aI3
aa(lp1185
F0.12419488026424443
aaa(lp1186
(lp1187
I2076
aI3
aI1
aI0
aa(lp1188
I4
aI5
aI29
aI11
aI21
aI30
aI12
aI31
aI0
aI0
aa(lp1189
F0.12419488026424443
aaa(lp1190
(lp1191
I671
aI3
aI1
aI0
aa(lp1192
I7
aI30
aI6
aI11
aI8
aI4
aI39
aI5
aI7
aI5
aa(lp1193
F0.12419488026424443
aaa(lp1194
(lp1195
I148
aI3
aI1
aI0
aa(lp1196
I6
aI8
aI4
aI11
aI32
aI12
aI8
aI4
aI1
aI3
aa(lp1197
F0.12419488026424443
aaa(lp1198
(lp1199
I427
aI3
aI1
aI0
aa(lp1200
I7
aI30
aI6
aI11
aI8
aI4
aI39
aI5
aI7
aI5
aa(lp1201
F0.12419488026424443
aaa(lp1202
(lp1203
I681
aI3
aI1
aI0
aa(lp1204
I4
aI5
aI29
aI11
aI21
aI30
aI12
aI31
aI0
aI0
aa(lp1205
F0.12419488026424443
aaa(lp1206
(lp1207
I2084
aI3
aI1
aI0
aa(lp1208
I4
aI5
aI29
aI11
aI21
aI30
aI12
aI31
aI0
aI0
aa(lp1209
F0.12419488026424443
aaa(lp1210
(lp1211
I2090
aI3
aI1
aI0
aa(lp1212
I7
aI30
aI6
aI11
aI8
aI4
aI39
aI5
aI7
aI5
aa(lp1213
F0.12419488026424443
aaa(lp1214
(lp1215
I2093
aI3
aI1
aI0
aa(lp1216
I6
aI9
aI36
aI22
aI3
aI30
aI11
aI1
aI3
aI9
aa(lp1217
F0.12419488026424443
aaa(lp1218
(lp1219
I2094
aI3
aI1
aI0
aa(lp1220
I6
aI8
aI4
aI11
aI32
aI12
aI8
aI4
aI1
aI3
aa(lp1221
F0.12419488026424443
aaa(lp1222
(lp1223
I2098
aI3
aI1
aI0
aa(lp1224
I4
aI5
aI29
aI11
aI21
aI30
aI12
aI31
aI0
aI0
aa(lp1225
F0.12419488026424443
aaa(lp1226
(lp1227
I2109
aI3
aI1
aI0
aa(lp1228
I6
aI8
aI4
aI11
aI32
aI12
aI8
aI4
aI1
aI3
aa(lp1229
F0.12419488026424443
aaa(lp1230
(lp1231
I2112
aI3
aI1
aI0
aa(lp1232
I7
aI30
aI6
aI11
aI8
aI4
aI39
aI5
aI7
aI5
aa(lp1233
F0.12419488026424443
aaa(lp1234
(lp1235
I2042
aI3
aI1
aI0
aa(lp1236
I22
aI5
aI1
aI8
aI9
aI36
aI12
aI0
aI0
aI0
aa(lp1237
F0.12419488026424443
aaa(lp1238
(lp1239
I1962
aI6
aI1
aI0
aa(lp1240
I1
aI8
aI7
aI3
aI32
aI30
aI12
aI4
aI3
aI8
aa(lp1241
F0.018662262592898431
aaa(lp1242
(lp1243
I2127
aI6
aI1
aI0
aa(lp1244
I1
aI30
aI4
aI9
aI3
aI4
aI5
aI4
aI9
aI8
aa(lp1245
F0.018662262592898431
aaa(lp1246
(lp1247
I2141
aI3
aI1
aI0
aa(lp1248
I6
aI8
aI4
aI11
aI32
aI12
aI8
aI4
aI1
aI3
aa(lp1249
F0.12419488026424443
aaa(lp1250
(lp1251
I1845
aI3
aI1
aI0
aa(lp1252
I2
aI30
aI7
aI7
aI21
aI29
aI30
aI30
aI22
aI0
aa(lp1253
F0.12419488026424443
aaa(lp1254
(lp1255
I2151
aI3
aI1
aI0
aa(lp1256
I4
aI5
aI29
aI11
aI21
aI30
aI12
aI31
aI0
aI0
aa(lp1257
F0.12419488026424443
aaa(lp1258
(lp1259
I2157
aI3
aI1
aI0
aa(lp1260
I7
aI8
aI0
aI0
aI0
aI0
aI0
aI0
aI0
aI0
aa(lp1261
F0.12419488026424443
aaa(lp1262
(lp1263
I2170
aI3
aI1
aI0
aa(lp1264
I20
aI5
aI38
aI5
aI12
aI7
aI21
aI11
aI2
aI3
aa(lp1265
F0.12419488026424443
aaa(lp1266
(lp1267
I2173
aI3
aI1
aI0
aa(lp1268
I4
aI5
aI29
aI11
aI21
aI30
aI12
aI31
aI0
aI0
aa(lp1269
F0.12419488026424443
aaa(lp1270
(lp1271
I2195
aI6
aI1
aI0
aa(lp1272
I32
aI12
aI5
aI4
aI1
aI2
aI0
aI0
aI0
aI0
aa(lp1273
F0.018662262592898431
aaa(lp1274
(lp1275
I1731
aI6
aI1
aI0
aa(lp1276
I32
aI12
aI5
aI4
aI1
aI2
aI0
aI0
aI0
aI0
aa(lp1277
F0.018662262592898431
aaa(lp1278
(lp1279
I2199
aI3
aI1
aI0
aa(lp1280
I4
aI5
aI29
aI11
aI21
aI30
aI12
aI31
aI0
aI0
aa(lp1281
F0.12419488026424443
aaa(lp1282
(lp1283
I2200
aI3
aI1
aI0
aa(lp1284
I7
aI30
aI6
aI11
aI8
aI4
aI39
aI5
aI7
aI5
aa(lp1285
F0.12419488026424443
aaa(lp1286
(lp1287
I2213
aI3
aI1
aI0
aa(lp1288
I4
aI5
aI29
aI11
aI21
aI30
aI12
aI31
aI11
aI1
aa(lp1289
F0.12419488026424443
aaa(lp1290
(lp1291
I517
aI6
aI1
aI0
aa(lp1292
I8
aI34
aI5
aI12
aI3
aI1
aI8
aI4
aI0
aI0
aa(lp1293
F0.018662262592898431
aaa(lp1294
(lp1295
I2236
aI3
aI1
aI0
aa(lp1296
I4
aI5
aI29
aI11
aI21
aI30
aI12
aI31
aI11
aI1
aa(lp1297
F0.12419488026424443
aaa(lp1298
(lp1299
I2103
aI3
aI1
aI0
aa(lp1300
I4
aI5
aI29
aI11
aI21
aI30
aI12
aI31
aI0
aI0
aa(lp1301
F0.12419488026424443
aaa(lp1302
(lp1303
I1196
aI3
aI1
aI0
aa(lp1304
I4
aI30
aI12
aI9
aI2
aI12
aI3
aI22
aI39
aI5
aa(lp1305
F0.12419488026424443
aaa(lp1306
(lp1307
I2261
aI3
aI1
aI0
aa(lp1308
I7
aI8
aI6
aI11
aI38
aI5
aI39
aI8
aI6
aI0
aa(lp1309
F0.12419488026424443
aaa(lp1310
(lp1311
I753
aI6
aI1
aI0
aa(lp1312
I6
aI5
aI8
aI32
aI30
aI30
aI22
aI0
aI0
aI0
aa(lp1313
F0.018662262592898431
aaa(lp1314
(lp1315
I1501
aI3
aI1
aI0
aa(lp1316
I6
aI8
aI4
aI11
aI32
aI12
aI8
aI4
aI1
aI3
aa(lp1317
F0.12419488026424443
aaa(lp1318
(lp1319
I2105
aI3
aI1
aI0
aa(lp1320
I6
aI8
aI4
aI11
aI32
aI12
aI8
aI4
aI1
aI3
aa(lp1321
F0.12419488026424443
aaa(lp1322
(lp1323
I407
aI3
aI1
aI0
aa(lp1324
I7
aI8
aI6
aI11
aI38
aI5
aI39
aI8
aI6
aI0
aa(lp1325
F0.12419488026424443
aaa(lp1326
(lp1327
I1313
aI3
aI1
aI0
aa(lp1328
I7
aI30
aI6
aI11
aI8
aI4
aI39
aI5
aI7
aI5
aa(lp1329
F0.12419488026424443
aaa(lp1330
(lp1331
I2233
aI3
aI1
aI0
aa(lp1332
I8
aI9
aI7
aI8
aI4
aI9
aI8
aI0
aI0
aI0
aa(lp1333
F0.12419488026424443
aaa(lp1334
(lp1335
I2286
aI3
aI1
aI0
aa(lp1336
I6
aI9
aI35
aI11
aI2
aI5
aI12
aI34
aI30
aI6
aa(lp1337
F0.12419488026424443
aaa(lp1338
(lp1339
I1810
aI3
aI1
aI0
aa(lp1340
I6
aI8
aI4
aI9
aI8
aI11
aI34
aI30
aI4
aI3
aa(lp1341
F0.12419488026424443
aaa(lp1342
(lp1343
I172
aI6
aI1
aI0
aa(lp1344
I3
aI9
aI8
aI7
aI3
aI8
aI4
aI0
aI0
aI0
aa(lp1345
F0.018662262592898431
aaa(lp1346
(lp1347
I1163
aI3
aI1
aI0
aa(lp1348
I4
aI5
aI29
aI11
aI21
aI30
aI12
aI31
aI11
aI1
aa(lp1349
F0.12419488026424443
aaa(lp1350
(lp1351
I2171
aI3
aI1
aI0
aa(lp1352
I4
aI5
aI29
aI11
aI21
aI30
aI12
aI31
aI0
aI0
aa(lp1353
F0.12419488026424443
aaa(lp1354
(lp1355
I410
aI3
aI1
aI0
aa(lp1356
I4
aI5
aI29
aI11
aI21
aI30
aI12
aI31
aI11
aI1
aa(lp1357
F0.12419488026424443
aaa(lp1358
(lp1359
I1095
aI3
aI1
aI0
aa(lp1360
I1
aI36
aI7
aI38
aI5
aI12
aI11
aI1
aI3
aI9
aa(lp1361
F0.12419488026424443
aaa(lp1362
(lp1363
I945
aI3
aI1
aI0
aa(lp1364
I8
aI9
aI7
aI8
aI4
aI9
aI8
aI0
aI0
aI0
aa(lp1365
F0.12419488026424443
aaa(lp1366
(lp1367
I2308
aI3
aI1
aI0
aa(lp1368
I4
aI5
aI29
aI11
aI21
aI30
aI12
aI31
aI0
aI0
aa(lp1369
F0.12419488026424443
aaa(lp1370
(lp1371
I284
aI6
aI1
aI0
aa(lp1372
I1
aI30
aI4
aI9
aI3
aI4
aI5
aI4
aI9
aI8
aa(lp1373
F0.018662262592898431
aaa(lp1374
(lp1375
I2311
aI3
aI1
aI0
aa(lp1376
I4
aI5
aI29
aI11
aI21
aI30
aI12
aI31
aI0
aI0
aa(lp1377
F0.12419488026424443
aaa(lp1378
(lp1379
I543
aI3
aI1
aI0
aa(lp1380
I4
aI5
aI29
aI11
aI21
aI30
aI12
aI31
aI0
aI0
aa(lp1381
F0.12419488026424443
aaa(lp1382
(lp1383
I1341
aI3
aI1
aI0
aa(lp1384
I8
aI9
aI7
aI8
aI4
aI9
aI8
aI0
aI0
aI0
aa(lp1385
F0.12419488026424443
aaa(lp1386
(lp1387
I2038
aI3
aI1
aI0
aa(lp1388
I8
aI9
aI7
aI8
aI4
aI9
aI8
aI0
aI0
aI0
aa(lp1389
F0.12419488026424443
aaa(lp1390
(lp1391
I2306
aI3
aI1
aI0
aa(lp1392
I8
aI9
aI7
aI8
aI4
aI9
aI8
aI0
aI0
aI0
aa(lp1393
F0.12419488026424443
aaa(lp1394
(lp1395
I1903
aI3
aI1
aI0
aa(lp1396
I4
aI5
aI29
aI11
aI21
aI30
aI12
aI31
aI0
aI0
aa(lp1397
F0.12419488026424443
aaa(lp1398
(lp1399
I2330
aI3
aI1
aI0
aa(lp1400
I7
aI30
aI6
aI11
aI8
aI4
aI39
aI5
aI7
aI5
aa(lp1401
F0.12419488026424443
aaa(lp1402
(lp1403
I1551
aI6
aI1
aI0
aa(lp1404
I8
aI34
aI5
aI12
aI3
aI1
aI8
aI4
aI0
aI0
aa(lp1405
F0.018662262592898431
aaa(lp1406
(lp1407
I2357
aI3
aI1
aI0
aa(lp1408
I7
aI30
aI6
aI11
aI8
aI4
aI39
aI5
aI7
aI5
aa(lp1409
F0.12419488026424443
aaa(lp1410
(lp1411
I2361
aI3
aI1
aI0
aa(lp1412
I6
aI8
aI4
aI11
aI32
aI12
aI8
aI4
aI1
aI3
aa(lp1413
F0.12419488026424443
aaa(lp1414
(lp1415
I2369
aI3
aI1
aI0
aa(lp1416
I4
aI5
aI29
aI11
aI21
aI30
aI12
aI31
aI0
aI0
aa(lp1417
F0.12419488026424443
aaa(lp1418
(lp1419
I2148
aI3
aI1
aI0
aa(lp1420
I6
aI8
aI4
aI11
aI32
aI12
aI8
aI4
aI1
aI3
aa(lp1421
F0.12419488026424443
aaa(lp1422
(lp1423
I2373
aI3
aI1
aI0
aa(lp1424
I6
aI2
aI5
aI12
aI34
aI8
aI4
aI11
aI30
aI8
aa(lp1425
F0.12419488026424443
aaa(lp1426
(lp1427
I2153
aI3
aI1
aI0
aa(lp1428
I8
aI9
aI7
aI8
aI4
aI9
aI8
aI0
aI0
aI0
aa(lp1429
F0.12419488026424443
aaa(lp1430
(lp1431
I312
aI3
aI1
aI0
aa(lp1432
I4
aI5
aI29
aI11
aI21
aI30
aI12
aI31
aI0
aI0
aa(lp1433
F0.12419488026424443
aaa(lp1434
(lp1435
I2178
aI3
aI1
aI0
aa(lp1436
I4
aI5
aI29
aI11
aI21
aI30
aI12
aI31
aI0
aI0
aa(lp1437
F0.12419488026424443
aaa(lp1438
(lp1439
I1553
aI3
aI1
aI0
aa(lp1440
I4
aI5
aI29
aI11
aI21
aI30
aI12
aI31
aI0
aI0
aa(lp1441
F0.12419488026424443
aaa(lp1442
(lp1443
I2400
aI3
aI1
aI0
aa(lp1444
I4
aI5
aI29
aI11
aI21
aI30
aI12
aI31
aI0
aI0
aa(lp1445
F0.12419488026424443
aaa(lp1446
(lp1447
I283
aI6
aI1
aI0
aa(lp1448
I8
aI6
aI3
aI8
aI4
aI0
aI0
aI0
aI0
aI0
aa(lp1449
F0.018662262592898431
aaa(lp1450
(lp1451
I2176
aI6
aI1
aI0
aa(lp1452
I32
aI12
aI5
aI4
aI1
aI2
aI0
aI0
aI0
aI0
aa(lp1453
F0.018662262592898431
aaa(lp1454
(lp1455
I2411
aI6
aI1
aI0
aa(lp1456
I3
aI9
aI8
aI7
aI3
aI8
aI4
aI0
aI0
aI0
aa(lp1457
F0.018662262592898431
aaa(lp1458
(lp1459
I694
aI3
aI1
aI0
aa(lp1460
I34
aI8
aI7
aI3
aI20
aI36
aI0
aI0
aI0
aI0
aa(lp1461
F0.12419488026424443
aaa(lp1462
(lp1463
I2044
aI3
aI1
aI0
aa(lp1464
I34
aI8
aI12
aI3
aI5
aI9
aI9
aI8
aI0
aI0
aa(lp1465
F0.12419488026424443
aaa(lp1466
(lp1467
I1811
aI3
aI1
aI0
aa(lp1468
I4
aI5
aI29
aI11
aI21
aI30
aI12
aI31
aI11
aI1
aa(lp1469
F0.12419488026424443
aaa(lp1470
(lp1471
I1996
aI3
aI1
aI0
aa(lp1472
I7
aI8
aI6
aI11
aI38
aI5
aI39
aI8
aI6
aI0
aa(lp1473
F0.12419488026424443
aaa(lp1474
(lp1475
I1951
aI3
aI1
aI0
aa(lp1476
I4
aI5
aI29
aI11
aI21
aI30
aI12
aI31
aI0
aI0
aa(lp1477
F0.12419488026424443
aaa(lp1478
(lp1479
I2423
aI3
aI1
aI0
aa(lp1480
I7
aI8
aI6
aI11
aI38
aI5
aI39
aI8
aI6
aI0
aa(lp1481
F0.12419488026424443
aaa(lp1482
(lp1483
I2425
aI3
aI1
aI0
aa(lp1484
I4
aI5
aI29
aI11
aI21
aI30
aI12
aI31
aI0
aI0
aa(lp1485
F0.12419488026424443
aaa(lp1486
(lp1487
I2434
aI3
aI1
aI0
aa(lp1488
I8
aI9
aI7
aI8
aI4
aI9
aI8
aI0
aI0
aI0
aa(lp1489
F0.12419488026424443
aaa(lp1490
(lp1491
I2135
aI3
aI1
aI0
aa(lp1492
I7
aI8
aI6
aI11
aI38
aI5
aI39
aI8
aI6
aI0
aa(lp1493
F0.12419488026424443
aaa(lp1494
(lp1495
I1447
aI3
aI1
aI0
aa(lp1496
I6
aI8
aI4
aI11
aI32
aI12
aI8
aI4
aI1
aI3
aa(lp1497
F0.12419488026424443
aaa(lp1498
(lp1499
I391
aI6
aI1
aI0
aa(lp1500
I6
aI5
aI8
aI32
aI30
aI30
aI22
aI0
aI0
aI0
aa(lp1501
F0.018662262592898431
aaa(lp1502
(lp1503
I1514
aI6
aI1
aI0
aa(lp1504
I32
aI12
aI5
aI4
aI1
aI2
aI0
aI0
aI0
aI0
aa(lp1505
F0.018662262592898431
aaa(lp1506
(lp1507
I2050
aI3
aI1
aI0
aa(lp1508
I7
aI8
aI6
aI11
aI38
aI5
aI39
aI8
aI6
aI0
aa(lp1509
F0.12419488026424443
aaa(lp1510
(lp1511
I1776
aI3
aI1
aI0
aa(lp1512
I8
aI9
aI7
aI8
aI4
aI9
aI8
aI0
aI0
aI0
aa(lp1513
F0.12419488026424443
aaa(lp1514
(lp1515
I1282
aI3
aI1
aI0
aa(lp1516
I6
aI8
aI4
aI9
aI8
aI11
aI34
aI30
aI4
aI3
aa(lp1517
F0.12419488026424443
aaa(lp1518
(lp1519
I596
aI3
aI1
aI0
aa(lp1520
I7
aI8
aI0
aI0
aI0
aI0
aI0
aI0
aI0
aI0
aa(lp1521
F0.12419488026424443
aaa(lp1522
(lp1523
I1999
aI3
aI1
aI0
aa(lp1524
I6
aI8
aI4
aI11
aI32
aI12
aI8
aI4
aI1
aI3
aa(lp1525
F0.12419488026424443
aaa(lp1526
(lp1527
I668
aI3
aI1
aI0
aa(lp1528
I7
aI30
aI6
aI11
aI8
aI4
aI39
aI5
aI7
aI5
aa(lp1529
F0.12419488026424443
aaa(lp1530
(lp1531
I639
aI3
aI1
aI0
aa(lp1532
I7
aI8
aI6
aI11
aI38
aI5
aI39
aI8
aI6
aI0
aa(lp1533
F0.12419488026424443
aaa(lp1534
(lp1535
I2491
aI3
aI1
aI0
aa(lp1536
I4
aI5
aI29
aI11
aI21
aI30
aI12
aI31
aI0
aI0
aa(lp1537
F0.12419488026424443
aaa(lp1538
(lp1539
I199
aI3
aI1
aI0
aa(lp1540
I6
aI8
aI4
aI11
aI32
aI12
aI8
aI4
aI1
aI3
aa(lp1541
F0.12419488026424443
aaa(lp1542
(lp1543
I2494
aI3
aI1
aI0
aa(lp1544
I7
aI8
aI0
aI0
aI0
aI0
aI0
aI0
aI0
aI0
aa(lp1545
F0.12419488026424443
aaa(lp1546
(lp1547
I2410
aI3
aI1
aI0
aa(lp1548
I6
aI8
aI4
aI11
aI32
aI12
aI8
aI4
aI1
aI3
aa(lp1549
F0.12419488026424443
aaa(lp1550
(lp1551
I2506
aI3
aI1
aI0
aa(lp1552
I6
aI8
aI4
aI11
aI32
aI12
aI8
aI4
aI1
aI3
aa(lp1553
F0.12419488026424443
aaa(lp1554
(lp1555
I170
aI3
aI1
aI0
aa(lp1556
I4
aI5
aI29
aI11
aI21
aI30
aI12
aI31
aI0
aI0
aa(lp1557
F0.12419488026424443
aaa(lp1558
(lp1559
I2517
aI3
aI1
aI0
aa(lp1560
I6
aI8
aI4
aI11
aI32
aI12
aI8
aI4
aI1
aI3
aa(lp1561
F0.12419488026424443
aaa(lp1562
(lp1563
I1927
aI3
aI1
aI0
aa(lp1564
I4
aI5
aI29
aI11
aI21
aI30
aI12
aI31
aI11
aI1
aa(lp1565
F0.12419488026424443
aaa(lp1566
(lp1567
I1836
aI3
aI1
aI0
aa(lp1568
I4
aI5
aI29
aI11
aI21
aI30
aI12
aI31
aI0
aI0
aa(lp1569
F0.12419488026424443
aaa(lp1570
(lp1571
I2205
aI3
aI1
aI0
aa(lp1572
I8
aI9
aI7
aI8
aI4
aI9
aI8
aI0
aI0
aI0
aa(lp1573
F0.12419488026424443
aaa(lp1574
(lp1575
I1926
aI3
aI1
aI0
aa(lp1576
I4
aI5
aI29
aI11
aI21
aI30
aI12
aI31
aI11
aI1
aa(lp1577
F0.12419488026424443
aaa(lp1578
(lp1579
I1297
aI6
aI1
aI0
aa(lp1580
I8
aI34
aI5
aI12
aI3
aI1
aI8
aI4
aI0
aI0
aa(lp1581
F0.018662262592898431
aaa(lp1582
(lp1583
I279
aI3
aI1
aI0
aa(lp1584
I4
aI5
aI29
aI11
aI21
aI30
aI12
aI31
aI0
aI0
aa(lp1585
F0.12419488026424443
aaa(lp1586
(lp1587
I2457
aI3
aI1
aI0
aa(lp1588
I6
aI8
aI4
aI11
aI32
aI12
aI8
aI4
aI1
aI3
aa(lp1589
F0.12419488026424443
aaa(lp1590
(lp1591
I2546
aI3
aI1
aI0
aa(lp1592
I7
aI8
aI6
aI11
aI38
aI5
aI39
aI8
aI6
aI0
aa(lp1593
F0.12419488026424443
aaa(lp1594
(lp1595
I2387
aI3
aI1
aI0
aa(lp1596
I4
aI5
aI29
aI11
aI21
aI30
aI12
aI31
aI11
aI1
aa(lp1597
F0.12419488026424443
aaa(lp1598
(lp1599
I2549
aI3
aI1
aI0
aa(lp1600
I4
aI5
aI29
aI11
aI21
aI30
aI12
aI31
aI0
aI0
aa(lp1601
F0.12419488026424443
aaa(lp1602
(lp1603
I2114
aI3
aI1
aI0
aa(lp1604
I4
aI5
aI29
aI11
aI21
aI30
aI12
aI31
aI0
aI0
aa(lp1605
F0.12419488026424443
aaa(lp1606
(lp1607
I2564
aI3
aI1
aI0
aa(lp1608
I4
aI5
aI29
aI11
aI21
aI30
aI12
aI31
aI0
aI0
aa(lp1609
F0.12419488026424443
aaa(lp1610
(lp1611
I1711
aI3
aI1
aI0
aa(lp1612
I4
aI5
aI29
aI11
aI21
aI30
aI12
aI31
aI0
aI0
aa(lp1613
F0.12419488026424443
aaa(lp1614
(lp1615
I2129
aI3
aI1
aI0
aa(lp1616
I4
aI5
aI29
aI11
aI21
aI30
aI12
aI31
aI0
aI0
aa(lp1617
F0.12419488026424443
aaa(lp1618
(lp1619
I372
aI3
aI1
aI0
aa(lp1620
I4
aI5
aI29
aI11
aI21
aI30
aI12
aI31
aI11
aI1
aa(lp1621
F0.12419488026424443
aaa(lp1622
(lp1623
I2577
aI3
aI1
aI0
aa(lp1624
I8
aI9
aI7
aI8
aI4
aI9
aI8
aI0
aI0
aI0
aa(lp1625
F0.12419488026424443
aaa(lp1626
(lp1627
I2581
aI3
aI1
aI0
aa(lp1628
I4
aI5
aI29
aI11
aI21
aI30
aI12
aI31
aI11
aI1
aa(lp1629
F0.12419488026424443
aaa(lp1630
(lp1631
I2583
aI6
aI1
aI0
aa(lp1632
I8
aI34
aI5
aI12
aI3
aI1
aI8
aI4
aI0
aI0
aa(lp1633
F0.018662262592898431
aaa(lp1634
(lp1635
I1626
aI3
aI1
aI0
aa(lp1636
I4
aI5
aI29
aI11
aI21
aI30
aI12
aI31
aI11
aI1
aa(lp1637
F0.12419488026424443
aaa(lp1638
(lp1639
I2014
aI3
aI1
aI0
aa(lp1640
I4
aI5
aI29
aI11
aI21
aI30
aI12
aI31
aI11
aI1
aa(lp1641
F0.12419488026424443
aaa(lp1642
(lp1643
I1179
aI3
aI1
aI0
aa(lp1644
I4
aI5
aI29
aI11
aI21
aI30
aI12
aI31
aI0
aI0
aa(lp1645
F0.12419488026424443
aaa(lp1646
(lp1647
I2599
aI3
aI1
aI0
aa(lp1648
I6
aI8
aI4
aI11
aI32
aI12
aI8
aI4
aI1
aI3
aa(lp1649
F0.12419488026424443
aaa(lp1650
(lp1651
I272
aI3
aI1
aI0
aa(lp1652
I4
aI5
aI29
aI11
aI21
aI30
aI12
aI31
aI0
aI0
aa(lp1653
F0.12419488026424443
aaa(lp1654
(lp1655
I1425
aI3
aI1
aI0
aa(lp1656
I6
aI8
aI4
aI11
aI32
aI12
aI8
aI4
aI1
aI3
aa(lp1657
F0.12419488026424443
aaa(lp1658
(lp1659
I658
aI3
aI1
aI0
aa(lp1660
I6
aI8
aI4
aI11
aI32
aI12
aI8
aI4
aI1
aI3
aa(lp1661
F0.12419488026424443
aaa(lp1662
(lp1663
I1079
aI3
aI1
aI0
aa(lp1664
I6
aI8
aI4
aI11
aI32
aI12
aI8
aI4
aI1
aI3
aa(lp1665
F0.12419488026424443
aaa(lp1666
(lp1667
I1466
aI3
aI1
aI0
aa(lp1668
I4
aI5
aI29
aI11
aI21
aI30
aI12
aI31
aI11
aI1
aa(lp1669
F0.12419488026424443
aaa(lp1670
(lp1671
I2620
aI3
aI1
aI0
aa(lp1672
I8
aI9
aI7
aI8
aI4
aI9
aI8
aI0
aI0
aI0
aa(lp1673
F0.12419488026424443
aaa(lp1674
(lp1675
I2609
aI3
aI1
aI0
aa(lp1676
I34
aI8
aI12
aI3
aI5
aI9
aI9
aI8
aI0
aI0
aa(lp1677
F0.12419488026424443
aaa(lp1678
(lp1679
I2249
aI3
aI1
aI0
aa(lp1680
I4
aI5
aI29
aI11
aI21
aI30
aI12
aI31
aI0
aI0
aa(lp1681
F0.12419488026424443
aaa(lp1682
(lp1683
I2632
aI3
aI1
aI0
aa(lp1684
I4
aI5
aI29
aI11
aI21
aI30
aI12
aI31
aI0
aI0
aa(lp1685
F0.12419488026424443
aaa(lp1686
(lp1687
I2601
aI3
aI1
aI0
aa(lp1688
I8
aI9
aI7
aI8
aI4
aI9
aI8
aI0
aI0
aI0
aa(lp1689
F0.12419488026424443
aaa(lp1690
(lp1691
I2646
aI3
aI1
aI0
aa(lp1692
I7
aI8
aI6
aI11
aI38
aI5
aI39
aI8
aI6
aI0
aa(lp1693
F0.12419488026424443
aaa(lp1694
(lp1695
I43
aI6
aI1
aI0
aa(lp1696
I1
aI30
aI4
aI9
aI3
aI4
aI5
aI4
aI9
aI8
aa(lp1697
F0.018662262592898431
aaa(lp1698
(lp1699
I1655
aI3
aI1
aI0
aa(lp1700
I6
aI8
aI4
aI11
aI32
aI12
aI8
aI4
aI1
aI3
aa(lp1701
F0.12419488026424443
aaa(lp1702
(lp1703
I564
aI3
aI1
aI0
aa(lp1704
I8
aI9
aI7
aI8
aI4
aI9
aI8
aI0
aI0
aI0
aa(lp1705
F0.12419488026424443
aaa(lp1706
(lp1707
I2659
aI3
aI1
aI0
aa(lp1708
I4
aI5
aI29
aI11
aI21
aI30
aI12
aI31
aI0
aI0
aa(lp1709
F0.12419488026424443
aaa(lp1710
(lp1711
I2661
aI3
aI1
aI0
aa(lp1712
I4
aI5
aI29
aI11
aI21
aI30
aI12
aI31
aI11
aI1
aa(lp1713
F0.12419488026424443
aaa(lp1714
(lp1715
I2264
aI3
aI1
aI0
aa(lp1716
I6
aI8
aI4
aI9
aI8
aI11
aI34
aI30
aI4
aI3
aa(lp1717
F0.12419488026424443
aaa(lp1718
(lp1719
I857
aI3
aI1
aI0
aa(lp1720
I7
aI30
aI6
aI11
aI8
aI4
aI39
aI5
aI7
aI5
aa(lp1721
F0.12419488026424443
aaa(lp1722
(lp1723
I970
aI3
aI1
aI0
aa(lp1724
I6
aI8
aI4
aI11
aI32
aI12
aI8
aI4
aI1
aI3
aa(lp1725
F0.12419488026424443
aaa(lp1726
(lp1727
I2268
aI3
aI1
aI0
aa(lp1728
I4
aI5
aI29
aI11
aI21
aI30
aI12
aI31
aI11
aI1
aa(lp1729
F0.12419488026424443
aaa(lp1730
(lp1731
I2313
aI3
aI1
aI0
aa(lp1732
I8
aI9
aI7
aI8
aI4
aI9
aI8
aI0
aI0
aI0
aa(lp1733
F0.12419488026424443
aaa(lp1734
(lp1735
I1827
aI6
aI1
aI0
aa(lp1736
I3
aI9
aI8
aI7
aI3
aI8
aI4
aI0
aI0
aI0
aa(lp1737
F0.018662262592898431
aaa(lp1738
(lp1739
I1185
aI3
aI1
aI0
aa(lp1740
I8
aI9
aI7
aI8
aI4
aI9
aI8
aI0
aI0
aI0
aa(lp1741
F0.12419488026424443
aaa(lp1742
(lp1743
I591
aI3
aI1
aI0
aa(lp1744
I7
aI30
aI6
aI11
aI8
aI4
aI39
aI5
aI7
aI5
aa(lp1745
F0.12419488026424443
aaa(lp1746
(lp1747
I1471
aI6
aI1
aI0
aa(lp1748
I1
aI8
aI7
aI3
aI32
aI30
aI12
aI4
aI3
aI8
aa(lp1749
F0.018662262592898431
aaa(lp1750
(lp1751
I55
aI3
aI1
aI0
aa(lp1752
I20
aI12
aI30
aI30
aI31
aI7
aI21
aI4
aI0
aI0
aa(lp1753
F0.12419488026424443
aaa(lp1754
(lp1755
I1235
aI3
aI1
aI0
aa(lp1756
I8
aI9
aI7
aI8
aI4
aI9
aI8
aI0
aI0
aI0
aa(lp1757
F0.12419488026424443
aaa(lp1758
(lp1759
I1024
aI3
aI1
aI0
aa(lp1760
I4
aI5
aI29
aI11
aI21
aI30
aI12
aI31
aI0
aI0
aa(lp1761
F0.12419488026424443
aaa(lp1762
(lp1763
I2022
aI3
aI1
aI0
aa(lp1764
I6
aI9
aI36
aI22
aI3
aI30
aI11
aI1
aI3
aI9
aa(lp1765
F0.12419488026424443
aaa(lp1766
(lp1767
I418
aI3
aI1
aI0
aa(lp1768
I7
aI30
aI6
aI11
aI8
aI4
aI39
aI5
aI7
aI5
aa(lp1769
F0.12419488026424443
aaa(lp1770
(lp1771
I2697
aI3
aI1
aI0
aa(lp1772
I8
aI9
aI7
aI8
aI4
aI9
aI8
aI0
aI0
aI0
aa(lp1773
F0.12419488026424443
aaa(lp1774
(lp1775
I189
aI3
aI1
aI0
aa(lp1776
I8
aI9
aI7
aI8
aI4
aI9
aI8
aI0
aI0
aI0
aa(lp1777
F0.12419488026424443
aaa(lp1778
(lp1779
I2719
aI3
aI1
aI0
aa(lp1780
I4
aI5
aI29
aI11
aI21
aI30
aI12
aI31
aI0
aI0
aa(lp1781
F0.12419488026424443
aaa(lp1782
(lp1783
I2364
aI3
aI1
aI0
aa(lp1784
I6
aI8
aI4
aI11
aI32
aI12
aI8
aI4
aI1
aI3
aa(lp1785
F0.12419488026424443
aaa(lp1786
(lp1787
I2126
aI3
aI1
aI0
aa(lp1788
I4
aI5
aI29
aI11
aI21
aI30
aI12
aI31
aI0
aI0
aa(lp1789
F0.12419488026424443
aaa(lp1790
(lp1791
I2731
aI3
aI1
aI0
aa(lp1792
I6
aI8
aI4
aI11
aI32
aI12
aI8
aI4
aI1
aI3
aa(lp1793
F0.12419488026424443
aaa(lp1794
(lp1795
I364
aI6
aI1
aI0
aa(lp1796
I1
aI30
aI32
aI32
aI5
aI5
aI11
aI20
aI8
aI12
aa(lp1797
F0.018662262592898431
aaa(lp1798
(lp1799
I1048
aI3
aI1
aI0
aa(lp1800
I8
aI9
aI7
aI8
aI4
aI9
aI8
aI0
aI0
aI0
aa(lp1801
F0.12419488026424443
aaa(lp1802
(lp1803
I2513
aI3
aI1
aI0
aa(lp1804
I4
aI5
aI29
aI11
aI21
aI30
aI12
aI31
aI11
aI1
aa(lp1805
F0.12419488026424443
aaa(lp1806
(lp1807
I835
aI3
aI1
aI0
aa(lp1808
I4
aI5
aI29
aI11
aI21
aI30
aI12
aI31
aI0
aI0
aa(lp1809
F0.12419488026424443
aaa(lp1810
(lp1811
I799
aI3
aI1
aI0
aa(lp1812
I8
aI9
aI7
aI8
aI4
aI9
aI8
aI0
aI0
aI0
aa(lp1813
F0.12419488026424443
aaa(lp1814
(lp1815
I914
aI3
aI1
aI0
aa(lp1816
I4
aI5
aI29
aI11
aI21
aI30
aI12
aI31
aI11
aI1
aa(lp1817
F0.12419488026424443
aaa(lp1818
(lp1819
I1954
aI3
aI1
aI0
aa(lp1820
I7
aI30
aI6
aI11
aI8
aI4
aI39
aI5
aI7
aI5
aa(lp1821
F0.12419488026424443
aaa(lp1822
(lp1823
I1684
aI3
aI1
aI0
aa(lp1824
I42
aI36
aI5
aI5
aI4
aI6
aI0
aI0
aI0
aI0
aa(lp1825
F0.12419488026424443
aaa(lp1826
(lp1827
I163
aI3
aI1
aI0
aa(lp1828
I4
aI5
aI29
aI11
aI21
aI30
aI12
aI31
aI0
aI0
aa(lp1829
F0.12419488026424443
aaa(lp1830
(lp1831
I1474
aI3
aI1
aI0
aa(lp1832
I34
aI8
aI7
aI3
aI20
aI36
aI0
aI0
aI0
aI0
aa(lp1833
F0.12419488026424443
aaa(lp1834
(lp1835
I769
aI3
aI1
aI0
aa(lp1836
I4
aI5
aI29
aI11
aI21
aI30
aI12
aI31
aI0
aI0
aa(lp1837
F0.12419488026424443
aaa(lp1838
(lp1839
I1318
aI3
aI1
aI0
aa(lp1840
I7
aI8
aI6
aI11
aI38
aI5
aI39
aI8
aI6
aI0
aa(lp1841
F0.12419488026424443
aaa(lp1842
(lp1843
I2759
aI3
aI1
aI0
aa(lp1844
I7
aI30
aI6
aI11
aI8
aI4
aI39
aI5
aI7
aI5
aa(lp1845
F0.12419488026424443
aaa(lp1846
(lp1847
I38
aI3
aI1
aI0
aa(lp1848
I6
aI8
aI4
aI11
aI32
aI12
aI8
aI4
aI1
aI3
aa(lp1849
F0.12419488026424443
aaa(lp1850
(lp1851
I2597
aI6
aI1
aI0
aa(lp1852
I8
aI34
aI5
aI12
aI3
aI1
aI8
aI4
aI0
aI0
aa(lp1853
F0.018662262592898431
aaa(lp1854
(lp1855
I2489
aI3
aI1
aI0
aa(lp1856
I6
aI8
aI4
aI11
aI32
aI12
aI8
aI4
aI1
aI3
aa(lp1857
F0.12419488026424443
aaa(lp1858
(lp1859
I1865
aI6
aI1
aI0
aa(lp1860
I32
aI12
aI5
aI4
aI1
aI2
aI0
aI0
aI0
aI0
aa(lp1861
F0.018662262592898431
aaa(lp1862
(lp1863
I2771
aI3
aI1
aI0
aa(lp1864
I4
aI5
aI29
aI11
aI21
aI30
aI12
aI31
aI0
aI0
aa(lp1865
F0.12419488026424443
aaa(lp1866
(lp1867
I2772
aI3
aI1
aI0
aa(lp1868
I4
aI5
aI29
aI11
aI21
aI30
aI12
aI31
aI0
aI0
aa(lp1869
F0.12419488026424443
aaa(lp1870
(lp1871
I2763
aI3
aI1
aI0
aa(lp1872
I8
aI9
aI7
aI8
aI4
aI9
aI8
aI0
aI0
aI0
aa(lp1873
F0.12419488026424443
aaa(lp1874
(lp1875
I2365
aI3
aI1
aI0
aa(lp1876
I4
aI5
aI29
aI11
aI21
aI30
aI12
aI31
aI0
aI0
aa(lp1877
F0.12419488026424443
aaa(lp1878
(lp1879
I2777
aI3
aI1
aI0
aa(lp1880
I6
aI8
aI4
aI11
aI32
aI12
aI8
aI4
aI1
aI3
aa(lp1881
F0.12419488026424443
aaa(lp1882
(lp1883
I2778
aI3
aI1
aI0
aa(lp1884
I7
aI30
aI6
aI11
aI8
aI4
aI39
aI5
aI7
aI5
aa(lp1885
F0.12419488026424443
aaa(lp1886
(lp1887
I2247
aI3
aI1
aI0
aa(lp1888
I4
aI5
aI29
aI11
aI21
aI30
aI12
aI31
aI0
aI0
aa(lp1889
F0.12419488026424443
aaa(lp1890
(lp1891
I1111
aI3
aI1
aI0
aa(lp1892
I6
aI8
aI4
aI11
aI32
aI12
aI8
aI4
aI1
aI3
aa(lp1893
F0.12419488026424443
aaa(lp1894
(lp1895
I1405
aI3
aI1
aI0
aa(lp1896
I29
aI35
aI11
aI2
aI30
aI7
aI7
aI21
aI29
aI30
aa(lp1897
F0.12419488026424443
aaa(lp1898
(lp1899
I825
aI3
aI1
aI0
aa(lp1900
I7
aI8
aI0
aI0
aI0
aI0
aI0
aI0
aI0
aI0
aa(lp1901
F0.12419488026424443
aaa(lp1902
(lp1903
I2452
aI3
aI1
aI0
aa(lp1904
I4
aI5
aI29
aI11
aI21
aI30
aI12
aI31
aI11
aI1
aa(lp1905
F0.12419488026424443
aaa(lp1906
(lp1907
I2787
aI3
aI1
aI0
aa(lp1908
I4
aI5
aI29
aI11
aI21
aI30
aI12
aI31
aI0
aI0
aa(lp1909
F0.12419488026424443
aaa(lp1910
(lp1911
I2749
aI3
aI1
aI0
aa(lp1912
I34
aI8
aI12
aI3
aI4
aI8
aI11
aI22
aI5
aI7
aa(lp1913
F0.12419488026424443
aaa(lp1914
(lp1915
I2657
aI3
aI1
aI0
aa(lp1916
I8
aI9
aI7
aI8
aI4
aI9
aI8
aI0
aI0
aI0
aa(lp1917
F0.12419488026424443
aaa(lp1918
(lp1919
I140
aI3
aI1
aI0
aa(lp1920
I4
aI5
aI29
aI11
aI21
aI30
aI12
aI31
aI11
aI1
aa(lp1921
F0.12419488026424443
aaa(lp1922
(lp1923
I946
aI3
aI1
aI0
aa(lp1924
I4
aI5
aI29
aI11
aI21
aI30
aI12
aI31
aI11
aI1
aa(lp1925
F0.12419488026424443
aaa(lp1926
(lp1927
I1829
aI6
aI1
aI0
aa(lp1928
I6
aI30
aI36
aI9
aI2
aI5
aI12
aI4
aI0
aI0
aa(lp1929
F0.018662262592898431
aaa(lp1930
(lp1931
I2791
aI3
aI1
aI0
aa(lp1932
I8
aI9
aI7
aI8
aI4
aI9
aI8
aI0
aI0
aI0
aa(lp1933
F0.12419488026424443
aaa(lp1934
(lp1935
I2435
aI3
aI1
aI0
aa(lp1936
I4
aI5
aI29
aI11
aI21
aI30
aI12
aI31
aI0
aI0
aa(lp1937
F0.12419488026424443
aaa(lp1938
(lp1939
I2794
aI3
aI1
aI0
aa(lp1940
I4
aI5
aI29
aI11
aI21
aI30
aI12
aI31
aI0
aI0
aa(lp1941
F0.12419488026424443
aaa(lp1942
(lp1943
I2795
aI3
aI1
aI0
aa(lp1944
I20
aI12
aI30
aI30
aI31
aI7
aI21
aI4
aI0
aI0
aa(lp1945
F0.12419488026424443
aaa(lp1946
(lp1947
I1113
aI6
aI1
aI0
aa(lp1948
I3
aI9
aI8
aI7
aI3
aI8
aI4
aI0
aI0
aI0
aa(lp1949
F0.018662262592898431
aaa(lp1950
(lp1951
I2107
aI3
aI1
aI0
aa(lp1952
I4
aI5
aI29
aI11
aI21
aI30
aI12
aI31
aI0
aI0
aa(lp1953
F0.12419488026424443
aaa(lp1954
(lp1955
I1637
aI6
aI1
aI0
aa(lp1956
I8
aI34
aI5
aI12
aI3
aI1
aI8
aI4
aI0
aI0
aa(lp1957
F0.018662262592898431
aaa(lp1958
(lp1959
I1919
aI3
aI1
aI0
aa(lp1960
I7
aI8
aI6
aI11
aI38
aI5
aI39
aI8
aI6
aI0
aa(lp1961
F0.12419488026424443
aaa(lp1962
(lp1963
I2737
aI3
aI1
aI0
aa(lp1964
I4
aI5
aI29
aI11
aI21
aI30
aI12
aI31
aI0
aI0
aa(lp1965
F0.12419488026424443
aaa(lp1966
(lp1967
I1851
aI3
aI1
aI0
aa(lp1968
I6
aI8
aI4
aI11
aI32
aI12
aI8
aI4
aI1
aI3
aa(lp1969
F0.12419488026424443
aaa(lp1970
(lp1971
I2815
aI3
aI1
aI0
aa(lp1972
I6
aI8
aI4
aI11
aI32
aI12
aI8
aI4
aI1
aI3
aa(lp1973
F0.12419488026424443
aaa(lp1974
(lp1975
I1879
aI3
aI1
aI0
aa(lp1976
I42
aI36
aI5
aI5
aI4
aI6
aI0
aI0
aI0
aI0
aa(lp1977
F0.12419488026424443
aaa(lp1978
(lp1979
I2827
aI3
aI1
aI0
aa(lp1980
I4
aI5
aI29
aI11
aI21
aI30
aI12
aI31
aI0
aI0
aa(lp1981
F0.12419488026424443
aaa(lp1982
(lp1983
I379
aI3
aI1
aI0
aa(lp1984
I8
aI9
aI7
aI8
aI4
aI9
aI8
aI0
aI0
aI0
aa(lp1985
F0.12419488026424443
aaa(lp1986
(lp1987
I435
aI3
aI1
aI0
aa(lp1988
I6
aI9
aI36
aI22
aI3
aI30
aI11
aI1
aI3
aI9
aa(lp1989
F0.12419488026424443
aaa(lp1990
(lp1991
I803
aI3
aI1
aI0
aa(lp1992
I4
aI5
aI29
aI11
aI21
aI30
aI12
aI31
aI0
aI0
aa(lp1993
F0.12419488026424443
aaa(lp1994
(lp1995
I666
aI3
aI1
aI0
aa(lp1996
I1
aI2
aI3
aI4
aI8
aI9
aI30
aI29
aI4
aI0
aa(lp1997
F0.12419488026424443
aaa(lp1998
(lp1999
I1623
aI3
aI1
aI0
aa(lp2000
I8
aI9
aI7
aI8
aI4
aI9
aI8
aI0
aI0
aI0
aa(lp2001
F0.12419488026424443
aaa(lp2002
(lp2003
I2848
aI3
aI1
aI0
aa(lp2004
I4
aI5
aI29
aI11
aI21
aI30
aI12
aI31
aI0
aI0
aa(lp2005
F0.12419488026424443
aaa(lp2006
(lp2007
I1558
aI3
aI1
aI0
aa(lp2008
I4
aI5
aI29
aI11
aI21
aI30
aI12
aI31
aI0
aI0
aa(lp2009
F0.12419488026424443
aaa(lp2010
(lp2011
I2621
aI3
aI1
aI0
aa(lp2012
I7
aI8
aI0
aI0
aI0
aI0
aI0
aI0
aI0
aI0
aa(lp2013
F0.12419488026424443
aaa(lp2014
(lp2015
I2402
aI6
aI1
aI0
aa(lp2016
I3
aI9
aI8
aI7
aI3
aI8
aI4
aI0
aI0
aI0
aa(lp2017
F0.018662262592898431
aaa(lp2018
(lp2019
I310
aI3
aI1
aI0
aa(lp2020
I6
aI8
aI4
aI11
aI32
aI12
aI8
aI4
aI1
aI3
aa(lp2021
F0.12419488026424443
aaa(lp2022
(lp2023
I1877
aI3
aI1
aI0
aa(lp2024
I6
aI8
aI4
aI11
aI32
aI12
aI8
aI4
aI1
aI3
aa(lp2025
F0.12419488026424443
aaa(lp2026
(lp2027
I278
aI3
aI1
aI0
aa(lp2028
I8
aI9
aI7
aI8
aI4
aI9
aI8
aI0
aI0
aI0
aa(lp2029
F0.12419488026424443
aaa(lp2030
(lp2031
I1912
aI3
aI1
aI0
aa(lp2032
I4
aI5
aI29
aI11
aI21
aI30
aI12
aI31
aI11
aI1
aa(lp2033
F0.12419488026424443
aaa(lp2034
(lp2035
I2744
aI3
aI1
aI0
aa(lp2036
I4
aI5
aI29
aI11
aI21
aI30
aI12
aI31
aI0
aI0
aa(lp2037
F0.12419488026424443
aaa(lp2038
(lp2039
I343
aI3
aI1
aI0
aa(lp2040
I7
aI8
aI0
aI0
aI0
aI0
aI0
aI0
aI0
aI0
aa(lp2041
F0.12419488026424443
aaa(lp2042
(lp2043
I1504
aI3
aI1
aI0
aa(lp2044
I9
aI30
aI7
aI36
aI1
aI8
aI11
aI7
aI8
aI31
aa(lp2045
F0.12419488026424443
aaa(lp2046
(lp2047
I1883
aI3
aI1
aI0
aa(lp2048
I5
aI4
aI1
aI3
aI4
aI30
aI0
aI0
aI0
aI0
aa(lp2049
F0.12419488026424443
aaa(lp2050
(lp2051
I1603
aI3
aI1
aI0
aa(lp2052
I4
aI5
aI29
aI11
aI21
aI30
aI12
aI31
aI0
aI0
aa(lp2053
F0.12419488026424443
aaa(lp2054
(lp2055
I2370
aI6
aI1
aI0
aa(lp2056
I8
aI34
aI5
aI12
aI3
aI1
aI8
aI4
aI0
aI0
aa(lp2057
F0.018662262592898431
aaa(lp2058
(lp2059
I1398
aI6
aI1
aI0
aa(lp2060
I32
aI12
aI5
aI4
aI1
aI2
aI0
aI0
aI0
aI0
aa(lp2061
F0.018662262592898431
aaa(lp2062
(lp2063
I2368
aI3
aI1
aI0
aa(lp2064
I4
aI5
aI29
aI11
aI21
aI30
aI12
aI31
aI11
aI1
aa(lp2065
F0.12419488026424443
aaa(lp2066
(lp2067
I998
aI3
aI1
aI0
aa(lp2068
I4
aI5
aI29
aI11
aI21
aI30
aI12
aI31
aI11
aI1
aa(lp2069
F0.12419488026424443
aaa(lp2070
(lp2071
I1369
aI3
aI1
aI0
aa(lp2072
I7
aI30
aI6
aI11
aI32
aI5
aI7
aI3
aI10
aI0
aa(lp2073
F0.12419488026424443
aaa(lp2074
(lp2075
I2804
aI6
aI1
aI0
aa(lp2076
I3
aI4
aI9
aI5
aI12
aI4
aI8
aI9
aI3
aI30
aa(lp2077
F0.018662262592898431
aaa(lp2078
(lp2079
I200
aI6
aI1
aI0
aa(lp2080
I8
aI34
aI5
aI12
aI3
aI1
aI8
aI4
aI0
aI0
aa(lp2081
F0.018662262592898431
aaa(lp2082
(lp2083
I1775
aI3
aI1
aI0
aa(lp2084
I6
aI8
aI4
aI11
aI32
aI12
aI8
aI4
aI1
aI3
aa(lp2085
F0.12419488026424443
aaa(lp2086
(lp2087
I1784
aI6
aI1
aI0
aa(lp2088
I3
aI4
aI9
aI5
aI12
aI4
aI8
aI9
aI3
aI30
aa(lp2089
F0.018662262592898431
aaa(lp2090
(lp2091
I1644
aI3
aI1
aI0
aa(lp2092
I8
aI9
aI7
aI8
aI4
aI9
aI8
aI0
aI0
aI0
aa(lp2093
F0.12419488026424443
aaa(lp2094
(lp2095
I2785
aI3
aI1
aI0
aa(lp2096
I8
aI9
aI7
aI8
aI4
aI9
aI8
aI0
aI0
aI0
aa(lp2097
F0.12419488026424443
aaa(lp2098
(lp2099
I2036
aI3
aI1
aI0
aa(lp2100
I6
aI8
aI4
aI11
aI32
aI12
aI8
aI4
aI1
aI3
aa(lp2101
F0.12419488026424443
aaa(lp2102
(lp2103
I1777
aI3
aI1
aI0
aa(lp2104
I4
aI5
aI29
aI11
aI21
aI30
aI12
aI31
aI0
aI0
aa(lp2105
F0.12419488026424443
aaa(lp2106
(lp2107
I2890
aI3
aI1
aI0
aa(lp2108
I4
aI5
aI29
aI11
aI21
aI30
aI12
aI31
aI11
aI1
aa(lp2109
F0.12419488026424443
aaa(lp2110
(lp2111
I2918
aI3
aI1
aI0
aa(lp2112
I29
aI5
aI6
aI9
aI11
aI7
aI8
aI0
aI0
aI0
aa(lp2113
F0.12419488026424443
aaa(lp2114
(lp2115
I2922
aI6
aI1
aI0
aa(lp2116
I8
aI34
aI5
aI12
aI3
aI1
aI8
aI4
aI0
aI0
aa(lp2117
F0.018662262592898431
aaa(lp2118
(lp2119
I1253
aI3
aI1
aI0
aa(lp2120
I6
aI8
aI4
aI11
aI32
aI12
aI8
aI4
aI1
aI3
aa(lp2121
F0.12419488026424443
aaa(lp2122
(lp2123
I844
aI3
aI1
aI0
aa(lp2124
I4
aI5
aI29
aI11
aI21
aI30
aI12
aI31
aI11
aI1
aa(lp2125
F0.12419488026424443
aaa(lp2126
(lp2127
I2925
aI3
aI1
aI0
aa(lp2128
I7
aI30
aI6
aI11
aI8
aI4
aI39
aI5
aI7
aI5
aa(lp2129
F0.12419488026424443
aaa(lp2130
(lp2131
I2930
aI3
aI1
aI0
aa(lp2132
I6
aI8
aI4
aI11
aI32
aI12
aI8
aI4
aI1
aI3
aa(lp2133
F0.12419488026424443
aaa(lp2134
(lp2135
I531
aI3
aI1
aI0
aa(lp2136
I4
aI5
aI29
aI11
aI21
aI30
aI12
aI31
aI0
aI0
aa(lp2137
F0.12419488026424443
aaa(lp2138
(lp2139
I1838
aI3
aI1
aI0
aa(lp2140
I4
aI5
aI29
aI11
aI21
aI30
aI12
aI31
aI11
aI1
aa(lp2141
F0.12419488026424443
aaa(lp2142
(lp2143
I212
aI3
aI1
aI0
aa(lp2144
I6
aI8
aI4
aI11
aI32
aI12
aI8
aI4
aI1
aI3
aa(lp2145
F0.12419488026424443
aaa(lp2146
(lp2147
I59
aI3
aI1
aI0
aa(lp2148
I42
aI36
aI5
aI5
aI4
aI6
aI0
aI0
aI0
aI0
aa(lp2149
F0.12419488026424443
aaa(lp2150
(lp2151
I1825
aI3
aI1
aI0
aa(lp2152
I7
aI30
aI6
aI11
aI8
aI4
aI39
aI5
aI7
aI5
aa(lp2153
F0.12419488026424443
aaa(lp2154
(lp2155
I2211
aI3
aI1
aI0
aa(lp2156
I4
aI5
aI29
aI11
aI21
aI30
aI12
aI31
aI0
aI0
aa(lp2157
F0.12419488026424443
aaa(lp2158
(lp2159
I157
aI3
aI1
aI0
aa(lp2160
I7
aI8
aI6
aI11
aI38
aI5
aI39
aI8
aI6
aI0
aa(lp2161
F0.12419488026424443
aaa(lp2162
(lp2163
I77
aI6
aI1
aI0
aa(lp2164
I8
aI6
aI3
aI8
aI4
aI0
aI0
aI0
aI0
aI0
aa(lp2165
F0.018662262592898431
aaa(lp2166
(lp2167
I649
aI3
aI1
aI0
aa(lp2168
I8
aI9
aI7
aI8
aI4
aI9
aI8
aI0
aI0
aI0
aa(lp2169
F0.12419488026424443
aaa(lp2170
(lp2171
I2448
aI3
aI1
aI0
aa(lp2172
I6
aI8
aI4
aI11
aI32
aI12
aI8
aI4
aI1
aI3
aa(lp2173
F0.12419488026424443
aaa(lp2174
(lp2175
I2949
aI3
aI1
aI0
aa(lp2176
I4
aI5
aI29
aI11
aI21
aI30
aI12
aI31
aI11
aI1
aa(lp2177
F0.12419488026424443
aaa(lp2178
(lp2179
I450
aI3
aI1
aI0
aa(lp2180
I6
aI8
aI4
aI11
aI32
aI12
aI8
aI4
aI1
aI3
aa(lp2181
F0.12419488026424443
aaa(lp2182
(lp2183
I145
aI3
aI1
aI0
aa(lp2184
I7
aI8
aI6
aI11
aI38
aI5
aI39
aI8
aI6
aI0
aa(lp2185
F0.12419488026424443
aaa(lp2186
(lp2187
I7
aI3
aI1
aI0
aa(lp2188
I38
aI5
aI4
aI3
aI1
aI5
aI0
aI0
aI0
aI0
aa(lp2189
F0.12419488026424443
aaa(lp2190
(lp2191
I2263
aI3
aI1
aI0
aa(lp2192
I29
aI5
aI6
aI9
aI7
aI8
aI31
aI5
aI11
aI38
aa(lp2193
F0.12419488026424443
aaa(lp2194
(lp2195
I2969
aI3
aI1
aI0
aa(lp2196
I20
aI5
aI38
aI5
aI12
aI7
aI21
aI11
aI2
aI3
aa(lp2197
F0.12419488026424443
aaa(lp2198
(lp2199
I1026
aI3
aI1
aI0
aa(lp2200
I7
aI30
aI6
aI11
aI8
aI4
aI39
aI5
aI7
aI5
aa(lp2201
F0.12419488026424443
aaa(lp2202
(lp2203
I846
aI3
aI1
aI0
aa(lp2204
I4
aI5
aI29
aI11
aI21
aI30
aI12
aI31
aI11
aI1
aa(lp2205
F0.12419488026424443
aaa(lp2206
(lp2207
I2972
aI3
aI1
aI0
aa(lp2208
I4
aI5
aI29
aI11
aI21
aI30
aI12
aI31
aI0
aI0
aa(lp2209
F0.12419488026424443
aaa(lp2210
(lp2211
I2975
aI3
aI1
aI0
aa(lp2212
I5
aI4
aI1
aI3
aI4
aI30
aI0
aI0
aI0
aI0
aa(lp2213
F0.12419488026424443
aaa(lp2214
(lp2215
I243
aI3
aI1
aI0
aa(lp2216
I7
aI30
aI6
aI11
aI8
aI4
aI39
aI5
aI7
aI5
aa(lp2217
F0.12419488026424443
aaa(lp2218
(lp2219
I2556
aI3
aI1
aI0
aa(lp2220
I4
aI5
aI29
aI11
aI21
aI30
aI12
aI31
aI0
aI0
aa(lp2221
F0.12419488026424443
aaa(lp2222
(lp2223
I703
aI3
aI1
aI0
aa(lp2224
I6
aI8
aI4
aI11
aI32
aI12
aI8
aI4
aI1
aI3
aa(lp2225
F0.12419488026424443
aaa(lp2226
(lp2227
I2102
aI3
aI1
aI0
aa(lp2228
I12
aI8
aI4
aI1
aI2
aI30
aI11
aI28
aI8
aI12
aa(lp2229
F0.12419488026424443
aaa(lp2230
(lp2231
I1159
aI3
aI1
aI0
aa(lp2232
I8
aI9
aI7
aI8
aI4
aI9
aI8
aI0
aI0
aI0
aa(lp2233
F0.12419488026424443
aaa(lp2234
(lp2235
I2979
aI3
aI1
aI0
aa(lp2236
I7
aI30
aI6
aI11
aI8
aI4
aI39
aI5
aI7
aI5
aa(lp2237
F0.12419488026424443
aaa(lp2238
(lp2239
I2805
aI6
aI1
aI0
aa(lp2240
I1
aI30
aI4
aI9
aI3
aI4
aI5
aI4
aI9
aI8
aa(lp2241
F0.018662262592898431
aaa(lp2242
(lp2243
I1294
aI3
aI1
aI0
aa(lp2244
I7
aI8
aI6
aI11
aI38
aI5
aI39
aI8
aI6
aI0
aa(lp2245
F0.12419488026424443
aaa(lp2246
(lp2247
I773
aI3
aI1
aI0
aa(lp2248
I7
aI8
aI6
aI11
aI38
aI5
aI39
aI8
aI6
aI0
aa(lp2249
F0.12419488026424443
aaa(lp2250
(lp2251
I1194
aI6
aI1
aI0
aa(lp2252
I8
aI34
aI5
aI12
aI3
aI1
aI8
aI4
aI0
aI0
aa(lp2253
F0.018662262592898431
aaa(lp2254
(lp2255
I600
aI6
aI1
aI0
aa(lp2256
I8
aI34
aI5
aI12
aI3
aI1
aI8
aI4
aI0
aI0
aa(lp2257
F0.018662262592898431
aaa(lp2258
(lp2259
I2982
aI3
aI1
aI0
aa(lp2260
I6
aI8
aI4
aI11
aI32
aI12
aI8
aI4
aI1
aI3
aa(lp2261
F0.12419488026424443
aaa(lp2262
(lp2263
I1660
aI3
aI1
aI0
aa(lp2264
I4
aI5
aI29
aI11
aI21
aI30
aI12
aI31
aI0
aI0
aa(lp2265
F0.12419488026424443
aaa(lp2266
(lp2267
I833
aI3
aI1
aI0
aa(lp2268
I20
aI12
aI30
aI30
aI31
aI7
aI21
aI4
aI0
aI0
aa(lp2269
F0.12419488026424443
aaa(lp2270
(lp2271
I1561
aI3
aI1
aI0
aa(lp2272
I8
aI9
aI7
aI8
aI4
aI9
aI8
aI0
aI0
aI0
aa(lp2273
F0.12419488026424443
aaa(lp2274
(lp2275
I3013
aI3
aI1
aI0
aa(lp2276
I8
aI9
aI7
aI8
aI4
aI9
aI8
aI0
aI0
aI0
aa(lp2277
F0.12419488026424443
aaa(lp2278
(lp2279
I2544
aI3
aI1
aI0
aa(lp2280
I6
aI8
aI4
aI11
aI32
aI12
aI8
aI4
aI1
aI3
aa(lp2281
F0.12419488026424443
aaa(lp2282
(lp2283
I365
aI3
aI1
aI0
aa(lp2284
I8
aI9
aI7
aI8
aI4
aI9
aI8
aI0
aI0
aI0
aa(lp2285
F0.12419488026424443
aaa(lp2286
(lp2287
I2824
aI3
aI1
aI0
aa(lp2288
I6
aI8
aI4
aI11
aI32
aI12
aI8
aI4
aI1
aI3
aa(lp2289
F0.12419488026424443
aaa(lp2290
(lp2291
I1632
aI3
aI1
aI0
aa(lp2292
I8
aI9
aI7
aI8
aI4
aI9
aI8
aI0
aI0
aI0
aa(lp2293
F0.12419488026424443
aaa(lp2294
(lp2295
I10
aI3
aI1
aI0
aa(lp2296
I4
aI5
aI29
aI11
aI21
aI30
aI12
aI31
aI11
aI1
aa(lp2297
F0.12419488026424443
aaa(lp2298
(lp2299
I261
aI3
aI1
aI0
aa(lp2300
I6
aI8
aI4
aI11
aI32
aI12
aI8
aI4
aI1
aI3
aa(lp2301
F0.12419488026424443
aaa(lp2302
(lp2303
I1860
aI3
aI1
aI0
aa(lp2304
I7
aI8
aI6
aI11
aI38
aI5
aI39
aI8
aI6
aI0
aa(lp2305
F0.12419488026424443
aaa(lp2306
(lp2307
I1133
aI3
aI1
aI0
aa(lp2308
I4
aI5
aI29
aI11
aI21
aI30
aI12
aI31
aI11
aI1
aa(lp2309
F0.12419488026424443
aaa(lp2310
(lp2311
I3036
aI3
aI1
aI0
aa(lp2312
I8
aI9
aI7
aI8
aI4
aI9
aI8
aI0
aI0
aI0
aa(lp2313
F0.12419488026424443
aaa(lp2314
(lp2315
I2393
aI3
aI1
aI0
aa(lp2316
I4
aI5
aI29
aI11
aI21
aI30
aI12
aI31
aI11
aI1
aa(lp2317
F0.12419488026424443
aaa(lp2318
(lp2319
I2087
aI3
aI1
aI0
aa(lp2320
I38
aI5
aI4
aI3
aI1
aI5
aI0
aI0
aI0
aI0
aa(lp2321
F0.12419488026424443
aaa(lp2322
(lp2323
I1727
aI6
aI1
aI0
aa(lp2324
I8
aI34
aI5
aI12
aI3
aI1
aI8
aI4
aI0
aI0
aa(lp2325
F0.018662262592898431
aaa(lp2326
(lp2327
I695
aI6
aI1
aI0
aa(lp2328
I8
aI34
aI5
aI12
aI3
aI1
aI8
aI4
aI0
aI0
aa(lp2329
F0.018662262592898431
aaa(lp2330
(lp2331
I2881
aI3
aI1
aI0
aa(lp2332
I4
aI5
aI29
aI11
aI21
aI30
aI12
aI31
aI11
aI1
aa(lp2333
F0.12419488026424443
aaa(lp2334
(lp2335
I1175
aI3
aI1
aI0
aa(lp2336
I4
aI5
aI29
aI11
aI21
aI30
aI12
aI31
aI0
aI0
aa(lp2337
F0.12419488026424443
aaa(lp2338
(lp2339
I2623
aI3
aI1
aI0
aa(lp2340
I4
aI5
aI29
aI11
aI21
aI30
aI12
aI31
aI0
aI0
aa(lp2341
F0.12419488026424443
aaa(lp2342
(lp2343
I484
aI3
aI1
aI0
aa(lp2344
I6
aI8
aI4
aI11
aI32
aI12
aI8
aI4
aI1
aI3
aa(lp2345
F0.12419488026424443
aaa(lp2346
(lp2347
I3052
aI6
aI1
aI0
aa(lp2348
I1
aI8
aI7
aI3
aI32
aI30
aI12
aI4
aI3
aI8
aa(lp2349
F0.018662262592898431
aaa(lp2350
(lp2351
I2917
aI3
aI1
aI0
aa(lp2352
I4
aI5
aI29
aI11
aI21
aI30
aI12
aI31
aI0
aI0
aa(lp2353
F0.12419488026424443
aaa(lp2354
(lp2355
I3057
aI3
aI1
aI0
aa(lp2356
I6
aI8
aI4
aI9
aI8
aI11
aI34
aI30
aI4
aI3
aa(lp2357
F0.12419488026424443
aaa(lp2358
(lp2359
I3059
aI3
aI1
aI0
aa(lp2360
I4
aI5
aI29
aI11
aI21
aI30
aI12
aI31
aI0
aI0
aa(lp2361
F0.12419488026424443
aaa(lp2362
(lp2363
I325
aI3
aI1
aI0
aa(lp2364
I4
aI5
aI29
aI11
aI21
aI30
aI12
aI31
aI0
aI0
aa(lp2365
F0.12419488026424443
aaa(lp2366
(lp2367
I2530
aI3
aI1
aI0
aa(lp2368
I7
aI8
aI6
aI11
aI38
aI5
aI39
aI8
aI6
aI0
aa(lp2369
F0.12419488026424443
aaa(lp2370
(lp2371
I1067
aI3
aI1
aI0
aa(lp2372
I6
aI8
aI4
aI11
aI32
aI12
aI8
aI4
aI1
aI3
aa(lp2373
F0.12419488026424443
aaa(lp2374
(lp2375
I27
aI3
aI1
aI0
aa(lp2376
I6
aI8
aI4
aI11
aI32
aI12
aI8
aI4
aI1
aI3
aa(lp2377
F0.12419488026424443
aaa(lp2378
(lp2379
I1264
aI3
aI1
aI0
aa(lp2380
I4
aI5
aI29
aI11
aI21
aI30
aI12
aI31
aI0
aI0
aa(lp2381
F0.12419488026424443
aaa(lp2382
(lp2383
I431
aI3
aI1
aI0
aa(lp2384
I8
aI9
aI7
aI8
aI4
aI9
aI8
aI0
aI0
aI0
aa(lp2385
F0.12419488026424443
aaa(lp2386
(lp2387
I2251
aI3
aI1
aI0
aa(lp2388
I8
aI9
aI7
aI8
aI4
aI9
aI8
aI0
aI0
aI0
aa(lp2389
F0.12419488026424443
aaa(lp2390
(lp2391
I1449
aI3
aI1
aI0
aa(lp2392
I7
aI8
aI6
aI11
aI38
aI5
aI39
aI8
aI6
aI0
aa(lp2393
F0.12419488026424443
aaa(lp2394
(lp2395
I90
aI6
aI1
aI0
aa(lp2396
I3
aI9
aI8
aI7
aI3
aI8
aI4
aI0
aI0
aI0
aa(lp2397
F0.018662262592898431
aaa(lp2398
(lp2399
I1941
aI3
aI1
aI0
aa(lp2400
I6
aI8
aI4
aI11
aI32
aI12
aI8
aI4
aI1
aI3
aa(lp2401
F0.12419488026424443
aaa(lp2402
(lp2403
I2709
aI3
aI1
aI0
aa(lp2404
I4
aI5
aI29
aI11
aI21
aI30
aI12
aI31
aI11
aI1
aa(lp2405
F0.12419488026424443
aaa(lp2406
(lp2407
I3092
aI3
aI1
aI0
aa(lp2408
I7
aI30
aI6
aI11
aI8
aI4
aI39
aI5
aI7
aI5
aa(lp2409
F0.12419488026424443
aaa(lp2410
(lp2411
I2903
aI3
aI1
aI0
aa(lp2412
I6
aI8
aI4
aI11
aI32
aI12
aI8
aI4
aI1
aI3
aa(lp2413
F0.12419488026424443
aaa(lp2414
(lp2415
I231
aI3
aI1
aI0
aa(lp2416
I20
aI12
aI5
aI4
aI9
aI29
aI30
aI30
aI22
aI0
aa(lp2417
F0.12419488026424443
aaa(lp2418
(lp2419
I2816
aI6
aI1
aI0
aa(lp2420
I34
aI5
aI22
aI3
aI9
aI5
aI12
aI12
aI8
aI4
aa(lp2421
F0.018662262592898431
aaa(lp2422
(lp2423
I2936
aI3
aI1
aI0
aa(lp2424
I4
aI5
aI29
aI11
aI21
aI30
aI12
aI31
aI11
aI1
aa(lp2425
F0.12419488026424443
aaa(lp2426
(lp2427
I3099
aI3
aI1
aI0
aa(lp2428
I4
aI5
aI29
aI11
aI21
aI30
aI12
aI31
aI0
aI0
aa(lp2429
F0.12419488026424443
aaa(lp2430
(lp2431
I467
aI3
aI1
aI0
aa(lp2432
I4
aI5
aI29
aI11
aI21
aI30
aI12
aI31
aI11
aI1
aa(lp2433
F0.12419488026424443
aaa(lp2434
(lp2435
I1915
aI3
aI1
aI0
aa(lp2436
I8
aI9
aI7
aI8
aI4
aI9
aI8
aI0
aI0
aI0
aa(lp2437
F0.12419488026424443
aaa(lp2438
(lp2439
I1774
aI3
aI1
aI0
aa(lp2440
I6
aI8
aI4
aI11
aI32
aI12
aI8
aI4
aI1
aI3
aa(lp2441
F0.12419488026424443
aaa(lp2442
(lp2443
I1541
aI3
aI1
aI0
aa(lp2444
I4
aI5
aI29
aI11
aI21
aI30
aI12
aI31
aI11
aI1
aa(lp2445
F0.12419488026424443
aaa(lp2446
(lp2447
I830
aI3
aI1
aI0
aa(lp2448
I7
aI30
aI6
aI11
aI8
aI4
aI39
aI5
aI7
aI5
aa(lp2449
F0.12419488026424443
aaa(lp2450
(lp2451
I34
aI3
aI1
aI0
aa(lp2452
I29
aI35
aI11
aI2
aI30
aI7
aI7
aI21
aI29
aI30
aa(lp2453
F0.12419488026424443
aaa(lp2454
(lp2455
I2507
aI3
aI1
aI0
aa(lp2456
I7
aI8
aI6
aI11
aI38
aI5
aI39
aI8
aI6
aI0
aa(lp2457
F0.12419488026424443
aaa(lp2458
(lp2459
I2091
aI3
aI1
aI0
aa(lp2460
I6
aI8
aI4
aI11
aI32
aI12
aI8
aI4
aI1
aI3
aa(lp2461
F0.12419488026424443
aaa(lp2462
(lp2463
I1857
aI3
aI1
aI0
aa(lp2464
I7
aI30
aI6
aI11
aI8
aI4
aI39
aI5
aI7
aI5
aa(lp2465
F0.12419488026424443
aaa(lp2466
(lp2467
I2324
aI3
aI1
aI0
aa(lp2468
I7
aI8
aI6
aI11
aI38
aI5
aI39
aI8
aI6
aI0
aa(lp2469
F0.12419488026424443
aaa(lp2470
(lp2471
I888
aI6
aI1
aI0
aa(lp2472
I32
aI12
aI5
aI4
aI1
aI2
aI0
aI0
aI0
aI0
aa(lp2473
F0.018662262592898431
aaa(lp2474
(lp2475
I2027
aI3
aI1
aI0
aa(lp2476
I20
aI5
aI38
aI5
aI12
aI7
aI21
aI11
aI2
aI3
aa(lp2477
F0.12419488026424443
aaa(lp2478
(lp2479
I2940
aI3
aI1
aI0
aa(lp2480
I8
aI9
aI7
aI8
aI4
aI9
aI8
aI0
aI0
aI0
aa(lp2481
F0.12419488026424443
aaa(lp2482
(lp2483
I926
aI3
aI1
aI0
aa(lp2484
I4
aI5
aI29
aI11
aI21
aI30
aI12
aI31
aI0
aI0
aa(lp2485
F0.12419488026424443
aaa(lp2486
(lp2487
I535
aI3
aI1
aI0
aa(lp2488
I4
aI5
aI29
aI11
aI21
aI30
aI12
aI31
aI0
aI0
aa(lp2489
F0.12419488026424443
aaa(lp2490
(lp2491
I615
aI3
aI1
aI0
aa(lp2492
I7
aI30
aI6
aI11
aI8
aI4
aI39
aI5
aI7
aI5
aa(lp2493
F0.12419488026424443
aaa(lp2494
(lp2495
I1206
aI3
aI1
aI0
aa(lp2496
I7
aI8
aI6
aI11
aI38
aI5
aI39
aI8
aI6
aI0
aa(lp2497
F0.12419488026424443
aaa(lp2498
(lp2499
I2352
aI3
aI1
aI0
aa(lp2500
I28
aI8
aI6
aI8
aI22
aI5
aI4
aI8
aI0
aI0
aa(lp2501
F0.12419488026424443
aaa(lp2502
(lp2503
I528
aI3
aI1
aI0
aa(lp2504
I8
aI9
aI7
aI8
aI4
aI9
aI8
aI0
aI0
aI0
aa(lp2505
F0.12419488026424443
aaa(lp2506
(lp2507
I183
aI3
aI1
aI0
aa(lp2508
I7
aI8
aI0
aI0
aI0
aI0
aI0
aI0
aI0
aI0
aa(lp2509
F0.12419488026424443
aaa(lp2510
(lp2511
I2125
aI3
aI1
aI0
aa(lp2512
I6
aI8
aI4
aI11
aI32
aI12
aI8
aI4
aI1
aI3
aa(lp2513
F0.12419488026424443
aaa(lp2514
(lp2515
I1256
aI3
aI1
aI0
aa(lp2516
I6
aI8
aI4
aI11
aI32
aI12
aI8
aI4
aI1
aI3
aa(lp2517
F0.12419488026424443
aaa(lp2518
(lp2519
I1693
aI3
aI1
aI0
aa(lp2520
I4
aI5
aI29
aI11
aI21
aI30
aI12
aI31
aI0
aI0
aa(lp2521
F0.12419488026424443
aaa(lp2522
(lp2523
I2869
aI3
aI1
aI0
aa(lp2524
I8
aI9
aI7
aI8
aI4
aI9
aI8
aI0
aI0
aI0
aa(lp2525
F0.12419488026424443
aaa(lp2526
(lp2527
I579
aI6
aI1
aI0
aa(lp2528
I1
aI30
aI4
aI9
aI3
aI4
aI5
aI4
aI9
aI8
aa(lp2529
F0.018662262592898431
aaa(lp2530
(lp2531
I49
aI6
aI1
aI0
aa(lp2532
I8
aI34
aI5
aI12
aI3
aI1
aI8
aI4
aI0
aI0
aa(lp2533
F0.018662262592898431
aaa(lp2534
(lp2535
I1044
aI3
aI1
aI0
aa(lp2536
I7
aI30
aI6
aI11
aI8
aI4
aI39
aI5
aI7
aI5
aa(lp2537
F0.12419488026424443
aaa(lp2538
(lp2539
I3085
aI3
aI1
aI0
aa(lp2540
I8
aI9
aI7
aI8
aI4
aI9
aI8
aI0
aI0
aI0
aa(lp2541
F0.12419488026424443
aaa(lp2542
(lp2543
I1617
aI6
aI1
aI0
aa(lp2544
I32
aI12
aI5
aI4
aI1
aI2
aI0
aI0
aI0
aI0
aa(lp2545
F0.018662262592898431
aaa(lp2546
(lp2547
I806
aI3
aI1
aI0
aa(lp2548
I4
aI5
aI29
aI11
aI21
aI30
aI12
aI31
aI0
aI0
aa(lp2549
F0.12419488026424443
aaa(lp2550
(lp2551
I1047
aI6
aI1
aI0
aa(lp2552
I8
aI34
aI5
aI12
aI3
aI1
aI8
aI4
aI0
aI0
aa(lp2553
F0.018662262592898431
aaa(lp2554
(lp2555
I2168
aI3
aI1
aI0
aa(lp2556
I6
aI8
aI4
aI11
aI32
aI12
aI8
aI4
aI1
aI3
aa(lp2557
F0.12419488026424443
aaa(lp2558
(lp2559
I2156
aI3
aI1
aI0
aa(lp2560
I29
aI5
aI6
aI9
aI29
aI30
aI30
aI22
aI0
aI0
aa(lp2561
F0.12419488026424443
aaa(lp2562
(lp2563
I2270
aI3
aI1
aI0
aa(lp2564
I4
aI5
aI29
aI11
aI21
aI30
aI12
aI31
aI0
aI0
aa(lp2565
F0.12419488026424443
aaa(lp2566
(lp2567
I2333
aI3
aI1
aI0
aa(lp2568
I7
aI8
aI6
aI11
aI38
aI5
aI39
aI8
aI6
aI0
aa(lp2569
F0.12419488026424443
aaa(lp2570
(lp2571
I553
aI3
aI1
aI0
aa(lp2572
I29
aI35
aI11
aI2
aI30
aI7
aI7
aI21
aI29
aI30
aa(lp2573
F0.12419488026424443
aaa(lp2574
(lp2575
I1891
aI3
aI1
aI0
aa(lp2576
I4
aI5
aI29
aI11
aI21
aI30
aI12
aI31
aI0
aI0
aa(lp2577
F0.12419488026424443
aaa(lp2578
(lp2579
I2033
aI3
aI1
aI0
aa(lp2580
I8
aI9
aI7
aI8
aI4
aI9
aI8
aI0
aI0
aI0
aa(lp2581
F0.12419488026424443
aaa(lp2582
(lp2583
I2375
aI3
aI1
aI0
aa(lp2584
I4
aI5
aI29
aI11
aI21
aI30
aI12
aI31
aI0
aI0
aa(lp2585
F0.12419488026424443
aaa(lp2586
(lp2587
I3154
aI3
aI1
aI0
aa(lp2588
I7
aI8
aI6
aI11
aI38
aI5
aI39
aI8
aI6
aI0
aa(lp2589
F0.12419488026424443
aaa(lp2590
(lp2591
I632
aI3
aI1
aI0
aa(lp2592
I7
aI8
aI6
aI11
aI38
aI5
aI39
aI8
aI6
aI0
aa(lp2593
F0.12419488026424443
aaa(lp2594
(lp2595
I3115
aI3
aI1
aI0
aa(lp2596
I7
aI30
aI6
aI11
aI8
aI4
aI39
aI5
aI7
aI5
aa(lp2597
F0.12419488026424443
aaa(lp2598
(lp2599
I1373
aI6
aI1
aI0
aa(lp2600
I32
aI12
aI5
aI4
aI1
aI2
aI0
aI0
aI0
aI0
aa(lp2601
F0.018662262592898431
aaa(lp2602
(lp2603
I476
aI3
aI1
aI0
aa(lp2604
I7
aI30
aI6
aI11
aI8
aI4
aI39
aI5
aI7
aI5
aa(lp2605
F0.12419488026424443
aaa(lp2606
(lp2607
I3161
aI3
aI1
aI0
aa(lp2608
I7
aI8
aI0
aI0
aI0
aI0
aI0
aI0
aI0
aI0
aa(lp2609
F0.12419488026424443
aaa(lp2610
(lp2611
I1536
aI3
aI1
aI0
aa(lp2612
I4
aI5
aI29
aI11
aI21
aI30
aI12
aI31
aI0
aI0
aa(lp2613
F0.12419488026424443
aaa(lp2614
(lp2615
I136
aI3
aI1
aI0
aa(lp2616
I4
aI5
aI29
aI11
aI21
aI30
aI12
aI31
aI11
aI1
aa(lp2617
F0.12419488026424443
aaa(lp2618
(lp2619
I3089
aI3
aI1
aI0
aa(lp2620
I6
aI9
aI36
aI22
aI3
aI30
aI11
aI1
aI3
aI9
aa(lp2621
F0.12419488026424443
aaa(lp2622
(lp2623
I3049
aI3
aI1
aI0
aa(lp2624
I6
aI8
aI4
aI11
aI32
aI12
aI8
aI4
aI1
aI3
aa(lp2625
F0.12419488026424443
aaa(lp2626
(lp2627
I2427
aI3
aI1
aI0
aa(lp2628
I4
aI5
aI29
aI11
aI21
aI30
aI12
aI31
aI0
aI0
aa(lp2629
F0.12419488026424443
aaa(lp2630
(lp2631
I2542
aI3
aI1
aI0
aa(lp2632
I6
aI8
aI4
aI11
aI32
aI12
aI8
aI4
aI1
aI3
aa(lp2633
F0.12419488026424443
aaa(lp2634
(lp2635
I1331
aI3
aI1
aI0
aa(lp2636
I28
aI8
aI1
aI3
aI32
aI3
aI1
aI11
aI28
aI8
aa(lp2637
F0.12419488026424443
aaa(lp2638
(lp2639
I53
aI3
aI1
aI0
aa(lp2640
I6
aI8
aI4
aI9
aI8
aI11
aI34
aI30
aI4
aI3
aa(lp2641
F0.12419488026424443
aaa(lp2642
(lp2643
I931
aI3
aI1
aI0
aa(lp2644
I4
aI5
aI29
aI11
aI21
aI30
aI12
aI31
aI0
aI0
aa(lp2645
F0.12419488026424443
aaa(lp2646
(lp2647
I3188
aI3
aI1
aI0
aa(lp2648
I4
aI5
aI29
aI11
aI21
aI30
aI12
aI31
aI0
aI0
aa(lp2649
F0.12419488026424443
aaa(lp2650
(lp2651
I760
aI3
aI1
aI0
aa(lp2652
I7
aI8
aI0
aI0
aI0
aI0
aI0
aI0
aI0
aI0
aa(lp2653
F0.12419488026424443
aaa(lp2654
(lp2655
I1682
aI3
aI1
aI0
aa(lp2656
I4
aI5
aI29
aI11
aI21
aI30
aI12
aI31
aI0
aI0
aa(lp2657
F0.12419488026424443
aaa(lp2658
(lp2659
I2446
aI3
aI1
aI0
aa(lp2660
I4
aI5
aI29
aI11
aI21
aI30
aI12
aI31
aI11
aI1
aa(lp2661
F0.12419488026424443
aaa(lp2662
(lp2663
I1233
aI3
aI1
aI0
aa(lp2664
I42
aI36
aI5
aI5
aI4
aI6
aI0
aI0
aI0
aI0
aa(lp2665
F0.12419488026424443
aaa(lp2666
(lp2667
I1579
aI3
aI1
aI0
aa(lp2668
I4
aI5
aI29
aI11
aI21
aI30
aI12
aI31
aI0
aI0
aa(lp2669
F0.12419488026424443
aaa(lp2670
(lp2671
I2180
aI3
aI1
aI0
aa(lp2672
I12
aI30
aI6
aI29
aI5
aI7
aI7
aI0
aI0
aI0
aa(lp2673
F0.12419488026424443
aaa(lp2674
(lp2675
I2551
aI3
aI1
aI0
aa(lp2676
I4
aI5
aI29
aI11
aI21
aI30
aI12
aI31
aI0
aI0
aa(lp2677
F0.12419488026424443
aaa(lp2678
(lp2679
I107
aI3
aI1
aI0
aa(lp2680
I4
aI5
aI29
aI11
aI21
aI30
aI12
aI31
aI0
aI0
aa(lp2681
F0.12419488026424443
aaa(lp2682
(lp2683
I3204
aI3
aI1
aI0
aa(lp2684
I8
aI9
aI7
aI8
aI4
aI9
aI8
aI0
aI0
aI0
aa(lp2685
F0.12419488026424443
aaa(lp2686
(lp2687
I267
aI3
aI1
aI0
aa(lp2688
I4
aI5
aI29
aI11
aI21
aI30
aI12
aI31
aI0
aI0
aa(lp2689
F0.12419488026424443
aaa(lp2690
(lp2691
I2350
aI3
aI1
aI0
aa(lp2692
I6
aI8
aI4
aI11
aI32
aI12
aI8
aI4
aI1
aI3
aa(lp2693
F0.12419488026424443
aaa(lp2694
(lp2695
I2019
aI3
aI1
aI0
aa(lp2696
I4
aI5
aI29
aI11
aI21
aI30
aI12
aI31
aI11
aI1
aa(lp2697
F0.12419488026424443
aaa(lp2698
(lp2699
I964
aI3
aI1
aI0
aa(lp2700
I8
aI9
aI7
aI8
aI4
aI9
aI8
aI0
aI0
aI0
aa(lp2701
F0.12419488026424443
aaa(lp2702
(lp2703
I413
aI3
aI1
aI0
aa(lp2704
I7
aI30
aI6
aI11
aI8
aI4
aI39
aI5
aI7
aI5
aa(lp2705
F0.12419488026424443
aaa(lp2706
(lp2707
I3215
aI3
aI1
aI0
aa(lp2708
I7
aI30
aI6
aI11
aI8
aI4
aI39
aI5
aI7
aI5
aa(lp2709
F0.12419488026424443
aaa(lp2710
(lp2711
I2329
aI3
aI1
aI0
aa(lp2712
I4
aI5
aI29
aI11
aI21
aI30
aI12
aI31
aI0
aI0
aa(lp2713
F0.12419488026424443
aaa(lp2714
(lp2715
I1670
aI3
aI1
aI0
aa(lp2716
I8
aI9
aI7
aI8
aI4
aI9
aI8
aI0
aI0
aI0
aa(lp2717
F0.12419488026424443
aaa(lp2718
(lp2719
I229
aI3
aI1
aI0
aa(lp2720
I6
aI8
aI4
aI11
aI32
aI12
aI8
aI4
aI1
aI3
aa(lp2721
F0.12419488026424443
aaa(lp2722
(lp2723
I960
aI3
aI1
aI0
aa(lp2724
I6
aI8
aI4
aI11
aI32
aI12
aI8
aI4
aI1
aI3
aa(lp2725
F0.12419488026424443
aaa(lp2726
(lp2727
I1070
aI3
aI1
aI0
aa(lp2728
I4
aI5
aI29
aI11
aI21
aI30
aI12
aI31
aI0
aI0
aa(lp2729
F0.12419488026424443
aaa(lp2730
(lp2731
I2961
aI3
aI1
aI0
aa(lp2732
I7
aI30
aI6
aI11
aI8
aI4
aI39
aI5
aI7
aI5
aa(lp2733
F0.12419488026424443
aaa(lp2734
(lp2735
I3160
aI3
aI1
aI0
aa(lp2736
I6
aI8
aI4
aI11
aI32
aI12
aI8
aI4
aI1
aI3
aa(lp2737
F0.12419488026424443
aaa(lp2738
(lp2739
I2686
aI6
aI1
aI0
aa(lp2740
I32
aI12
aI5
aI4
aI1
aI2
aI0
aI0
aI0
aI0
aa(lp2741
F0.018662262592898431
aaa(lp2742
(lp2743
I1639
aI3
aI1
aI0
aa(lp2744
I6
aI8
aI4
aI11
aI32
aI12
aI8
aI4
aI1
aI3
aa(lp2745
F0.12419488026424443
aaa(lp2746
(lp2747
I2241
aI3
aI1
aI0
aa(lp2748
I7
aI8
aI6
aI11
aI38
aI5
aI39
aI8
aI6
aI0
aa(lp2749
F0.12419488026424443
aaa(lp2750
(lp2751
I2714
aI3
aI1
aI0
aa(lp2752
I4
aI5
aI29
aI11
aI21
aI30
aI12
aI31
aI0
aI0
aa(lp2753
F0.12419488026424443
aaa(lp2754
(lp2755
I3236
aI3
aI1
aI0
aa(lp2756
I7
aI30
aI6
aI11
aI8
aI4
aI39
aI5
aI7
aI5
aa(lp2757
F0.12419488026424443
aaa(lp2758
(lp2759
I294
aI6
aI1
aI0
aa(lp2760
I8
aI34
aI5
aI12
aI3
aI1
aI8
aI4
aI0
aI0
aa(lp2761
F0.018662262592898431
aaa(lp2762
(lp2763
I84
aI6
aI1
aI0
aa(lp2764
I1
aI8
aI12
aI3
aI20
aI20
aI5
aI8
aI4
aI0
aa(lp2765
F0.018662262592898431
aaa(lp2766
(lp2767
I503
aI3
aI1
aI0
aa(lp2768
I4
aI5
aI29
aI11
aI21
aI30
aI12
aI31
aI11
aI1
aa(lp2769
F0.12419488026424443
aaa(lp2770
(lp2771
I3245
aI3
aI1
aI0
aa(lp2772
I4
aI5
aI29
aI11
aI21
aI30
aI12
aI31
aI0
aI0
aa(lp2773
F0.12419488026424443
aaa(lp2774
(lp2775
I369
aI3
aI1
aI0
aa(lp2776
I4
aI5
aI29
aI11
aI21
aI30
aI12
aI31
aI0
aI0
aa(lp2777
F0.12419488026424443
aaa(lp2778
(lp2779
I2362
aI3
aI1
aI0
aa(lp2780
I6
aI8
aI4
aI9
aI8
aI11
aI34
aI30
aI4
aI3
aa(lp2781
F0.12419488026424443
aaa(lp2782
(lp2783
I2678
aI3
aI1
aI0
aa(lp2784
I4
aI5
aI29
aI11
aI21
aI30
aI12
aI31
aI0
aI0
aa(lp2785
F0.12419488026424443
aaa(lp2786
(lp2787
I3076
aI3
aI1
aI0
aa(lp2788
I7
aI30
aI6
aI11
aI8
aI4
aI39
aI5
aI7
aI5
aa(lp2789
F0.12419488026424443
aaa(lp2790
(lp2791
I492
aI3
aI1
aI0
aa(lp2792
I6
aI9
aI35
aI11
aI20
aI30
aI21
aI7
aI5
aI11
aa(lp2793
F0.12419488026424443
aaa(lp2794
(lp2795
I747
aI3
aI1
aI0
aa(lp2796
I4
aI5
aI29
aI11
aI21
aI30
aI12
aI31
aI11
aI1
aa(lp2797
F0.12419488026424443
aaa(lp2798
(lp2799
I1661
aI3
aI1
aI0
aa(lp2800
I4
aI5
aI29
aI11
aI21
aI30
aI12
aI31
aI0
aI0
aa(lp2801
F0.12419488026424443
aaa(lp2802
(lp2803
I3030
aI3
aI1
aI0
aa(lp2804
I6
aI8
aI4
aI11
aI32
aI12
aI8
aI4
aI1
aI3
aa(lp2805
F0.12419488026424443
aaa(lp2806
(lp2807
I302
aI6
aI1
aI0
aa(lp2808
I32
aI12
aI5
aI4
aI1
aI2
aI0
aI0
aI0
aI0
aa(lp2809
F0.018662262592898431
aaa(lp2810
(lp2811
I3000
aI3
aI1
aI0
aa(lp2812
I7
aI8
aI6
aI11
aI38
aI5
aI39
aI8
aI6
aI0
aa(lp2813
F0.12419488026424443
aaa(lp2814
(lp2815
I2919
aI3
aI1
aI0
aa(lp2816
I7
aI30
aI6
aI11
aI32
aI5
aI7
aI3
aI10
aI0
aa(lp2817
F0.12419488026424443
aaa(lp2818
(lp2819
I2872
aI3
aI1
aI0
aa(lp2820
I7
aI30
aI6
aI11
aI8
aI4
aI39
aI5
aI7
aI5
aa(lp2821
F0.12419488026424443
aaa(lp2822
(lp2823
I1399
aI6
aI1
aI0
aa(lp2824
I22
aI5
aI7
aI3
aI1
aI8
aI9
aI5
aI6
aI6
aa(lp2825
F0.018662262592898431
aaa(lp2826
(lp2827
I1380
aI3
aI1
aI0
aa(lp2828
I6
aI8
aI4
aI11
aI32
aI12
aI8
aI4
aI1
aI3
aa(lp2829
F0.12419488026424443
aaa(lp2830
(lp2831
I623
aI3
aI1
aI0
aa(lp2832
I8
aI9
aI7
aI8
aI4
aI9
aI8
aI0
aI0
aI0
aa(lp2833
F0.12419488026424443
aaa(lp2834
(lp2835
I1382
aI3
aI1
aI0
aa(lp2836
I4
aI5
aI29
aI11
aI21
aI30
aI12
aI31
aI0
aI0
aa(lp2837
F0.12419488026424443
aaa(lp2838
(lp2839
I2821
aI3
aI1
aI0
aa(lp2840
I34
aI30
aI4
aI9
aI5
aI12
aI5
aI21
aI11
aI28
aa(lp2841
F0.12419488026424443
aaa(lp2842
(lp2843
I1355
aI3
aI1
aI0
aa(lp2844
I6
aI8
aI4
aI11
aI32
aI12
aI8
aI4
aI1
aI3
aa(lp2845
F0.12419488026424443
aaa(lp2846
(lp2847
I3272
aI3
aI1
aI0
aa(lp2848
I6
aI8
aI4
aI11
aI32
aI12
aI8
aI4
aI1
aI3
aa(lp2849
F0.12419488026424443
aaa(lp2850
(lp2851
I627
aI3
aI1
aI0
aa(lp2852
I34
aI8
aI4
aI2
aI8
aI9
aI9
aI8
aI4
aI11
aa(lp2853
F0.12419488026424443
aaa(lp2854
(lp2855
I1147
aI3
aI1
aI0
aa(lp2856
I7
aI30
aI6
aI11
aI8
aI4
aI39
aI5
aI7
aI5
aa(lp2857
F0.12419488026424443
aaa(lp2858
(lp2859
I2859
aI3
aI1
aI0
aa(lp2860
I4
aI5
aI29
aI11
aI21
aI30
aI12
aI31
aI0
aI0
aa(lp2861
F0.12419488026424443
aaa(lp2862
(lp2863
I2281
aI3
aI1
aI0
aa(lp2864
I6
aI8
aI4
aI11
aI32
aI12
aI8
aI4
aI1
aI3
aa(lp2865
F0.12419488026424443
aaa(lp2866
(lp2867
I1033
aI6
aI1
aI0
aa(lp2868
I8
aI6
aI3
aI8
aI4
aI0
aI0
aI0
aI0
aI0
aa(lp2869
F0.018662262592898431
aaa(lp2870
(lp2871
I874
aI3
aI1
aI0
aa(lp2872
I7
aI8
aI6
aI11
aI38
aI5
aI39
aI8
aI6
aI0
aa(lp2873
F0.12419488026424443
aaa(lp2874
(lp2875
I2967
aI3
aI1
aI0
aa(lp2876
I4
aI5
aI29
aI11
aI21
aI30
aI12
aI31
aI0
aI0
aa(lp2877
F0.12419488026424443
aaa(lp2878
(lp2879
I2792
aI3
aI1
aI0
aa(lp2880
I7
aI30
aI6
aI11
aI8
aI4
aI39
aI5
aI7
aI5
aa(lp2881
F0.12419488026424443
aaa(lp2882
(lp2883
I3063
aI3
aI1
aI0
aa(lp2884
I6
aI8
aI4
aI11
aI32
aI12
aI8
aI4
aI1
aI3
aa(lp2885
F0.12419488026424443
aaa(lp2886
(lp2887
I2838
aI3
aI1
aI0
aa(lp2888
I4
aI5
aI29
aI11
aI21
aI30
aI12
aI31
aI0
aI0
aa(lp2889
F0.12419488026424443
aaa(lp2890
(lp2891
I1936
aI3
aI1
aI0
aa(lp2892
I8
aI9
aI7
aI8
aI4
aI9
aI8
aI0
aI0
aI0
aa(lp2893
F0.12419488026424443
aaa(lp2894
(lp2895
I3016
aI6
aI1
aI0
aa(lp2896
I3
aI4
aI9
aI5
aI12
aI4
aI8
aI9
aI3
aI30
aa(lp2897
F0.018662262592898431
aaa(lp2898
(lp2899
I1465
aI6
aI1
aI0
aa(lp2900
I1
aI30
aI4
aI9
aI3
aI4
aI5
aI4
aI9
aI8
aa(lp2901
F0.018662262592898431
aaa(lp2902
(lp2903
I1335
aI3
aI1
aI0
aa(lp2904
I6
aI8
aI4
aI11
aI32
aI12
aI8
aI4
aI1
aI3
aa(lp2905
F0.12419488026424443
aaa(lp2906
(lp2907
I3213
aI3
aI1
aI0
aa(lp2908
I8
aI9
aI7
aI8
aI4
aI9
aI8
aI0
aI0
aI0
aa(lp2909
F0.12419488026424443
aaa(lp2910
(lp2911
I3207
aI3
aI1
aI0
aa(lp2912
I7
aI8
aI6
aI11
aI38
aI5
aI39
aI8
aI6
aI0
aa(lp2913
F0.12419488026424443
aaa(lp2914
(lp2915
I3100
aI3
aI1
aI0
aa(lp2916
I4
aI5
aI29
aI11
aI21
aI30
aI12
aI31
aI11
aI1
aa(lp2917
F0.12419488026424443
aaa(lp2918
(lp2919
I1415
aI3
aI1
aI0
aa(lp2920
I6
aI8
aI4
aI11
aI32
aI12
aI8
aI4
aI1
aI3
aa(lp2921
F0.12419488026424443
aaa(lp2922
(lp2923
I657
aI3
aI1
aI0
aa(lp2924
I7
aI8
aI6
aI11
aI38
aI5
aI39
aI8
aI6
aI0
aa(lp2925
F0.12419488026424443
aaa(lp2926
(lp2927
I1971
aI3
aI1
aI0
aa(lp2928
I4
aI5
aI29
aI11
aI21
aI30
aI12
aI31
aI11
aI1
aa(lp2929
F0.12419488026424443
aaa(lp2930
(lp2931
I2593
aI3
aI1
aI0
aa(lp2932
I7
aI30
aI6
aI11
aI8
aI4
aI39
aI5
aI7
aI5
aa(lp2933
F0.12419488026424443
aaa(lp2934
(lp2935
I2414
aI3
aI1
aI0
aa(lp2936
I4
aI5
aI29
aI11
aI21
aI30
aI12
aI31
aI0
aI0
aa(lp2937
F0.12419488026424443
aaa(lp2938
(lp2939
I3263
aI3
aI1
aI0
aa(lp2940
I6
aI8
aI4
aI11
aI32
aI12
aI8
aI4
aI1
aI3
aa(lp2941
F0.12419488026424443
aaa(lp2942
(lp2943
I1973
aI3
aI1
aI0
aa(lp2944
I4
aI5
aI29
aI11
aI21
aI30
aI12
aI31
aI0
aI0
aa(lp2945
F0.12419488026424443
aaa(lp2946
(lp2947
I1276
aI3
aI1
aI0
aa(lp2948
I4
aI5
aI29
aI11
aI21
aI30
aI12
aI31
aI0
aI0
aa(lp2949
F0.12419488026424443
aaa(lp2950
(lp2951
I209
aI3
aI1
aI0
aa(lp2952
I6
aI8
aI4
aI11
aI32
aI12
aI8
aI4
aI1
aI3
aa(lp2953
F0.12419488026424443
aaa(lp2954
(lp2955
I1524
aI3
aI1
aI0
aa(lp2956
I1
aI2
aI3
aI4
aI8
aI9
aI30
aI29
aI4
aI0
aa(lp2957
F0.12419488026424443
aaa(lp2958
(lp2959
I3027
aI3
aI1
aI0
aa(lp2960
I28
aI8
aI6
aI8
aI22
aI5
aI4
aI8
aI0
aI0
aa(lp2961
F0.12419488026424443
aaa(lp2962
(lp2963
I2449
aI3
aI1
aI0
aa(lp2964
I29
aI5
aI6
aI9
aI11
aI7
aI8
aI0
aI0
aI0
aa(lp2965
F0.12419488026424443
aaa(lp2966
(lp2967
I1211
aI3
aI1
aI0
aa(lp2968
I6
aI8
aI4
aI11
aI32
aI12
aI8
aI4
aI1
aI3
aa(lp2969
F0.12419488026424443
aaa(lp2970
(lp2971
I2359
aI3
aI1
aI0
aa(lp2972
I7
aI8
aI6
aI11
aI38
aI5
aI39
aI8
aI6
aI0
aa(lp2973
F0.12419488026424443
aaa(lp2974
(lp2975
I2721
aI3
aI1
aI0
aa(lp2976
I4
aI5
aI29
aI11
aI21
aI30
aI12
aI31
aI0
aI0
aa(lp2977
F0.12419488026424443
aaa(lp2978
(lp2979
I1923
aI3
aI1
aI0
aa(lp2980
I6
aI8
aI4
aI11
aI32
aI12
aI8
aI4
aI1
aI3
aa(lp2981
F0.12419488026424443
aaa(lp2982
(lp2983
I2085
aI3
aI1
aI0
aa(lp2984
I7
aI8
aI6
aI11
aI38
aI5
aI39
aI8
aI6
aI0
aa(lp2985
F0.12419488026424443
aaa(lp2986
(lp2987
I2954
aI3
aI1
aI0
aa(lp2988
I6
aI8
aI4
aI11
aI32
aI12
aI8
aI4
aI1
aI3
aa(lp2989
F0.12419488026424443
aaa(lp2990
(lp2991
I572
aI3
aI1
aI0
aa(lp2992
I6
aI8
aI4
aI11
aI32
aI12
aI8
aI4
aI1
aI3
aa(lp2993
F0.12419488026424443
aaa(lp2994
(lp2995
I1767
aI3
aI1
aI0
aa(lp2996
I7
aI8
aI6
aI11
aI38
aI5
aI39
aI8
aI6
aI0
aa(lp2997
F0.12419488026424443
aaa(lp2998
(lp2999
I2856
aI3
aI1
aI0
aa(lp3000
I4
aI5
aI29
aI11
aI21
aI30
aI12
aI31
aI0
aI0
aa(lp3001
F0.12419488026424443
aaa(lp3002
(lp3003
I184
aI3
aI1
aI0
aa(lp3004
I4
aI5
aI29
aI11
aI21
aI30
aI12
aI31
aI0
aI0
aa(lp3005
F0.12419488026424443
aaa(lp3006
(lp3007
I1768
aI3
aI1
aI0
aa(lp3008
I4
aI5
aI29
aI11
aI21
aI30
aI12
aI31
aI0
aI0
aa(lp3009
F0.12419488026424443
aaa(lp3010
(lp3011
I2340
aI3
aI1
aI0
aa(lp3012
I6
aI8
aI4
aI9
aI8
aI11
aI34
aI30
aI4
aI3
aa(lp3013
F0.12419488026424443
aaa(lp3014
(lp3015
I1886
aI3
aI1
aI0
aa(lp3016
I4
aI5
aI29
aI11
aI21
aI30
aI12
aI31
aI0
aI0
aa(lp3017
F0.12419488026424443
aaa(lp3018
(lp3019
I318
aI3
aI1
aI0
aa(lp3020
I4
aI5
aI29
aI11
aI21
aI30
aI12
aI31
aI0
aI0
aa(lp3021
F0.12419488026424443
aaa(lp3022
(lp3023
I1904
aI3
aI1
aI0
aa(lp3024
I6
aI8
aI4
aI11
aI32
aI12
aI8
aI4
aI1
aI3
aa(lp3025
F0.12419488026424443
aaa(lp3026
(lp3027
I3086
aI6
aI1
aI0
aa(lp3028
I6
aI5
aI8
aI32
aI30
aI30
aI22
aI0
aI0
aI0
aa(lp3029
F0.018662262592898431
aaa(lp3030
(lp3031
I972
aI3
aI1
aI0
aa(lp3032
I4
aI5
aI29
aI11
aI21
aI30
aI12
aI31
aI0
aI0
aa(lp3033
F0.12419488026424443
aaa(lp3034
(lp3035
I2121
aI3
aI1
aI0
aa(lp3036
I8
aI9
aI7
aI8
aI4
aI9
aI8
aI0
aI0
aI0
aa(lp3037
F0.12419488026424443
aaa(lp3038
(lp3039
I2705
aI3
aI1
aI0
aa(lp3040
I7
aI8
aI6
aI11
aI38
aI5
aI39
aI8
aI6
aI0
aa(lp3041
F0.12419488026424443
aaa(lp3042
(lp3043
I2256
aI3
aI1
aI0
aa(lp3044
I6
aI8
aI4
aI11
aI32
aI12
aI8
aI4
aI1
aI3
aa(lp3045
F0.12419488026424443
aaa(lp3046
(lp3047
I1129
aI3
aI1
aI0
aa(lp3048
I4
aI5
aI29
aI11
aI21
aI30
aI12
aI31
aI11
aI1
aa(lp3049
F0.12419488026424443
aaa(lp3050
(lp3051
I2951
aI3
aI1
aI0
aa(lp3052
I4
aI5
aI29
aI11
aI21
aI30
aI12
aI31
aI0
aI0
aa(lp3053
F0.12419488026424443
aaa(lp3054
(lp3055
I2877
aI3
aI1
aI0
aa(lp3056
I7
aI8
aI6
aI11
aI38
aI5
aI39
aI8
aI6
aI0
aa(lp3057
F0.12419488026424443
aaa(lp3058
(lp3059
I1601
aI6
aI1
aI0
aa(lp3060
I32
aI12
aI5
aI4
aI1
aI2
aI0
aI0
aI0
aI0
aa(lp3061
F0.018662262592898431
aaa(lp3062
(lp3063
I2651
aI3
aI1
aI0
aa(lp3064
I22
aI36
aI7
aI36
aI9
aI2
aI0
aI0
aI0
aI0
aa(lp3065
F0.12419488026424443
aaa(lp3066
(lp3067
I1975
aI3
aI1
aI0
aa(lp3068
I6
aI8
aI4
aI11
aI32
aI12
aI8
aI4
aI1
aI3
aa(lp3069
F0.12419488026424443
aaa(lp3070
(lp3071
I2323
aI6
aI1
aI0
aa(lp3072
I8
aI34
aI5
aI12
aI3
aI1
aI8
aI4
aI0
aI0
aa(lp3073
F0.018662262592898431
aaa(lp3074
(lp3075
I2063
aI3
aI1
aI0
aa(lp3076
I7
aI8
aI6
aI11
aI38
aI5
aI39
aI8
aI6
aI0
aa(lp3077
F0.12419488026424443
aaa(lp3078
(lp3079
I3270
aI3
aI1
aI0
aa(lp3080
I4
aI5
aI29
aI11
aI21
aI30
aI12
aI31
aI11
aI1
aa(lp3081
F0.12419488026424443
aaa(lp3082
(lp3083
I381
aI3
aI1
aI0
aa(lp3084
I6
aI8
aI4
aI11
aI32
aI12
aI8
aI4
aI1
aI3
aa(lp3085
F0.12419488026424443
aaa(lp3086
(lp3087
I191
aI6
aI1
aI0
aa(lp3088
I8
aI34
aI5
aI12
aI3
aI1
aI8
aI4
aI0
aI0
aa(lp3089
F0.018662262592898431
aaa(lp3090
(lp3091
I2662
aI3
aI1
aI0
aa(lp3092
I6
aI8
aI4
aI11
aI32
aI12
aI8
aI4
aI1
aI3
aa(lp3093
F0.12419488026424443
aaa(lp3094
(lp3095
I770
aI3
aI1
aI0
aa(lp3096
I4
aI5
aI29
aI11
aI21
aI30
aI12
aI31
aI0
aI0
aa(lp3097
F0.12419488026424443
aaa(lp3098
(lp3099
I1964
aI3
aI1
aI0
aa(lp3100
I4
aI5
aI29
aI11
aI21
aI30
aI12
aI31
aI0
aI0
aa(lp3101
F0.12419488026424443
aaa(lp3102
(lp3103
I1998
aI3
aI1
aI0
aa(lp3104
I6
aI8
aI4
aI11
aI32
aI12
aI8
aI4
aI1
aI3
aa(lp3105
F0.12419488026424443
aaa(lp3106
(lp3107
I3159
aI3
aI1
aI0
aa(lp3108
I28
aI8
aI6
aI8
aI22
aI5
aI4
aI8
aI0
aI0
aa(lp3109
F0.12419488026424443
aaa(lp3110
(lp3111
I3349
aI3
aI1
aI0
aa(lp3112
I4
aI5
aI29
aI11
aI21
aI30
aI12
aI31
aI11
aI1
aa(lp3113
F0.12419488026424443
aaa(lp3114
(lp3115
I2997
aI6
aI1
aI0
aa(lp3116
I32
aI12
aI5
aI4
aI1
aI2
aI0
aI0
aI0
aI0
aa(lp3117
F0.018662262592898431
aaa(lp3118
(lp3119
I714
aI6
aI1
aI0
aa(lp3120
I8
aI6
aI3
aI8
aI4
aI0
aI0
aI0
aI0
aI0
aa(lp3121
F0.018662262592898431
aaa(lp3122
(lp3123
I3189
aI3
aI1
aI0
aa(lp3124
I4
aI5
aI29
aI11
aI21
aI30
aI12
aI31
aI11
aI1
aa(lp3125
F0.12419488026424443
aaa(lp3126
(lp3127
I2605
aI3
aI1
aI0
aa(lp3128
I4
aI5
aI29
aI11
aI21
aI30
aI12
aI31
aI0
aI0
aa(lp3129
F0.12419488026424443
aaa(lp3130
(lp3131
I1980
aI3
aI1
aI0
aa(lp3132
I4
aI5
aI29
aI11
aI21
aI30
aI12
aI31
aI0
aI0
aa(lp3133
F0.12419488026424443
aaa(lp3134
(lp3135
I1668
aI3
aI1
aI0
aa(lp3136
I39
aI7
aI5
aI4
aI22
aI8
aI7
aI5
aI0
aI0
aa(lp3137
F0.12419488026424443
aaa(lp3138
(lp3139
I185
aI3
aI1
aI0
aa(lp3140
I20
aI5
aI38
aI5
aI12
aI7
aI21
aI11
aI2
aI3
aa(lp3141
F0.12419488026424443
aaa(lp3142
(lp3143
I2573
aI3
aI1
aI0
aa(lp3144
I4
aI5
aI29
aI11
aI21
aI30
aI12
aI31
aI11
aI1
aa(lp3145
F0.12419488026424443
aaa(lp3146
(lp3147
I3003
aI3
aI1
aI0
aa(lp3148
I8
aI9
aI7
aI8
aI4
aI9
aI8
aI0
aI0
aI0
aa(lp3149
F0.12419488026424443
aaa(lp3150
(lp3151
I1118
aI3
aI1
aI0
aa(lp3152
I4
aI5
aI29
aI11
aI21
aI30
aI12
aI31
aI0
aI0
aa(lp3153
F0.12419488026424443
aaa(lp3154
(lp3155
I1059
aI3
aI1
aI0
aa(lp3156
I6
aI8
aI4
aI11
aI32
aI12
aI8
aI4
aI1
aI3
aa(lp3157
F0.12419488026424443
aaa(lp3158
(lp3159
I1978
aI3
aI1
aI0
aa(lp3160
I4
aI5
aI29
aI11
aI21
aI30
aI12
aI31
aI0
aI0
aa(lp3161
F0.12419488026424443
aaa(lp3162
(lp3163
I2226
aI3
aI1
aI0
aa(lp3164
I4
aI5
aI29
aI11
aI21
aI30
aI12
aI31
aI11
aI1
aa(lp3165
F0.12419488026424443
aaa(lp3166
(lp3167
I1428
aI3
aI1
aI0
aa(lp3168
I4
aI5
aI29
aI11
aI21
aI30
aI12
aI31
aI11
aI1
aa(lp3169
F0.12419488026424443
aaa(lp3170
(lp3171
I892
aI3
aI1
aI0
aa(lp3172
I4
aI5
aI29
aI11
aI21
aI30
aI12
aI31
aI0
aI0
aa(lp3173
F0.12419488026424443
aaa(lp3174
(lp3175
I167
aI3
aI1
aI0
aa(lp3176
I4
aI5
aI29
aI11
aI21
aI30
aI12
aI31
aI0
aI0
aa(lp3177
F0.12419488026424443
aaa(lp3178
(lp3179
I802
aI6
aI1
aI0
aa(lp3180
I32
aI12
aI5
aI4
aI1
aI2
aI0
aI0
aI0
aI0
aa(lp3181
F0.018662262592898431
aaa(lp3182
(lp3183
I132
aI6
aI1
aI0
aa(lp3184
I34
aI5
aI22
aI3
aI9
aI5
aI12
aI12
aI8
aI4
aa(lp3185
F0.018662262592898431
aaa(lp3186
(lp3187
I1917
aI3
aI1
aI0
aa(lp3188
I7
aI30
aI6
aI11
aI8
aI4
aI39
aI5
aI7
aI5
aa(lp3189
F0.12419488026424443
aaa(lp3190
(lp3191
I2480
aI3
aI1
aI0
aa(lp3192
I7
aI8
aI0
aI0
aI0
aI0
aI0
aI0
aI0
aI0
aa(lp3193
F0.12419488026424443
aaa(lp3194
(lp3195
I3035
aI6
aI1
aI0
aa(lp3196
I9
aI5
aI7
aI11
aI1
aI8
aI12
aI3
aI20
aI20
aa(lp3197
F0.018662262592898431
aaa(lp3198
(lp3199
I2675
aI3
aI1
aI0
aa(lp3200
I4
aI5
aI29
aI11
aI21
aI30
aI12
aI31
aI0
aI0
aa(lp3201
F0.12419488026424443
aaa(lp3202
(lp3203
I947
aI3
aI1
aI0
aa(lp3204
I8
aI9
aI7
aI8
aI4
aI9
aI8
aI0
aI0
aI0
aa(lp3205
F0.12419488026424443
aaa(lp3206
(lp3207
I2548
aI3
aI1
aI0
aa(lp3208
I6
aI2
aI5
aI12
aI34
aI8
aI4
aI11
aI30
aI8
aa(lp3209
F0.12419488026424443
aaa(lp3210
(lp3211
I2078
aI6
aI1
aI0
aa(lp3212
I32
aI12
aI5
aI4
aI1
aI2
aI0
aI0
aI0
aI0
aa(lp3213
F0.018662262592898431
aaa(lp3214
(lp3215
I101
aI3
aI1
aI0
aa(lp3216
I6
aI8
aI4
aI11
aI32
aI12
aI8
aI4
aI1
aI3
aa(lp3217
F0.12419488026424443
aaa(lp3218
(lp3219
I1081
aI3
aI1
aI0
aa(lp3220
I4
aI5
aI29
aI11
aI21
aI30
aI12
aI31
aI0
aI0
aa(lp3221
F0.12419488026424443
aaa(lp3222
(lp3223
I2887
aI3
aI1
aI0
aa(lp3224
I4
aI5
aI29
aI11
aI21
aI30
aI12
aI31
aI0
aI0
aa(lp3225
F0.12419488026424443
aaa(lp3226
(lp3227
I1247
aI3
aI1
aI0
aa(lp3228
I4
aI5
aI29
aI11
aI21
aI30
aI12
aI31
aI11
aI1
aa(lp3229
F0.12419488026424443
aaa(lp3230
(lp3231
I1242
aI3
aI1
aI0
aa(lp3232
I7
aI30
aI6
aI11
aI8
aI4
aI39
aI5
aI7
aI5
aa(lp3233
F0.12419488026424443
aaa(lp3234
(lp3235
I2985
aI3
aI1
aI0
aa(lp3236
I7
aI8
aI6
aI11
aI38
aI5
aI39
aI8
aI6
aI0
aa(lp3237
F0.12419488026424443
aaa(lp3238
(lp3239
I2463
aI3
aI1
aI0
aa(lp3240
I4
aI5
aI29
aI11
aI21
aI30
aI12
aI31
aI0
aI0
aa(lp3241
F0.12419488026424443
aaa(lp3242
(lp3243
I111
aI3
aI1
aI0
aa(lp3244
I4
aI5
aI29
aI11
aI21
aI30
aI12
aI31
aI0
aI0
aa(lp3245
F0.12419488026424443
aaa(lp3246
(lp3247
I2636
aI6
aI1
aI0
aa(lp3248
I8
aI34
aI5
aI12
aI3
aI1
aI8
aI4
aI0
aI0
aa(lp3249
F0.018662262592898431
aaa(lp3250
(lp3251
I624
aI3
aI1
aI0
aa(lp3252
I4
aI5
aI29
aI11
aI21
aI30
aI12
aI31
aI11
aI1
aa(lp3253
F0.12419488026424443
aaa(lp3254
(lp3255
I1484
aI3
aI1
aI0
aa(lp3256
I4
aI5
aI29
aI11
aI21
aI30
aI12
aI31
aI11
aI1
aa(lp3257
F0.12419488026424443
aaa(lp3258
(lp3259
I1988
aI3
aI1
aI0
aa(lp3260
I6
aI8
aI4
aI11
aI32
aI12
aI8
aI4
aI1
aI3
aa(lp3261
F0.12419488026424443
aaa(lp3262
(lp3263
I2557
aI3
aI1
aI0
aa(lp3264
I4
aI5
aI29
aI11
aI21
aI30
aI12
aI31
aI0
aI0
aa(lp3265
F0.12419488026424443
aaa(lp3266
(lp3267
I2835
aI3
aI1
aI0
aa(lp3268
I6
aI8
aI4
aI11
aI32
aI12
aI8
aI4
aI1
aI3
aa(lp3269
F0.12419488026424443
aaa(lp3270
(lp3271
I2250
aI6
aI1
aI0
aa(lp3272
I32
aI12
aI5
aI4
aI1
aI2
aI0
aI0
aI0
aI0
aa(lp3273
F0.018662262592898431
aaa(lp3274
(lp3275
I1577
aI3
aI1
aI0
aa(lp3276
I6
aI8
aI4
aI11
aI32
aI12
aI8
aI4
aI1
aI3
aa(lp3277
F0.12419488026424443
aaa(lp3278
(lp3279
I1191
aI3
aI1
aI0
aa(lp3280
I7
aI8
aI0
aI0
aI0
aI0
aI0
aI0
aI0
aI0
aa(lp3281
F0.12419488026424443
aaa(lp3282
(lp3283
I1259
aI6
aI1
aI0
aa(lp3284
I8
aI34
aI5
aI12
aI3
aI1
aI8
aI4
aI0
aI0
aa(lp3285
F0.018662262592898431
aaa(lp3286
(lp3287
I2292
aI3
aI1
aI0
aa(lp3288
I7
aI8
aI6
aI11
aI38
aI5
aI39
aI8
aI6
aI0
aa(lp3289
F0.12419488026424443
aaa(lp3290
(lp3291
I2066
aI6
aI1
aI0
aa(lp3292
I1
aI8
aI7
aI3
aI32
aI30
aI12
aI4
aI3
aI8
aa(lp3293
F0.018662262592898431
aaa(lp3294
(lp3295
I2242
aI3
aI1
aI0
aa(lp3296
I4
aI5
aI29
aI11
aI21
aI30
aI12
aI31
aI0
aI0
aa(lp3297
F0.12419488026424443
aaa(lp3298
(lp3299
I688
aI3
aI1
aI0
aa(lp3300
I7
aI30
aI6
aI11
aI8
aI4
aI39
aI5
aI7
aI5
aa(lp3301
F0.12419488026424443
aaa(lp3302
(lp3303
I2980
aI3
aI1
aI0
aa(lp3304
I6
aI8
aI4
aI11
aI32
aI12
aI8
aI4
aI1
aI3
aa(lp3305
F0.12419488026424443
aaa(lp3306
(lp3307
I263
aI6
aI1
aI0
aa(lp3308
I8
aI34
aI5
aI12
aI3
aI1
aI8
aI4
aI0
aI0
aa(lp3309
F0.018662262592898431
aaa(lp3310
(lp3311
I1966
aI6
aI1
aI0
aa(lp3312
I8
aI34
aI5
aI12
aI3
aI1
aI8
aI4
aI0
aI0
aa(lp3313
F0.018662262592898431
aaa(lp3314
(lp3315
I1462
aI3
aI1
aI0
aa(lp3316
I7
aI8
aI6
aI11
aI38
aI5
aI39
aI8
aI6
aI0
aa(lp3317
F0.12419488026424443
aaa(lp3318
(lp3319
I1708
aI3
aI1
aI0
aa(lp3320
I6
aI8
aI4
aI11
aI32
aI12
aI8
aI4
aI1
aI3
aa(lp3321
F0.12419488026424443
aaa(lp3322
(lp3323
I3196
aI3
aI1
aI0
aa(lp3324
I7
aI8
aI6
aI11
aI38
aI5
aI39
aI8
aI6
aI0
aa(lp3325
F0.12419488026424443
aaa(lp3326
(lp3327
I1071
aI3
aI1
aI0
aa(lp3328
I8
aI9
aI7
aI8
aI4
aI9
aI8
aI0
aI0
aI0
aa(lp3329
F0.12419488026424443
aaa(lp3330
(lp3331
I2711
aI3
aI1
aI0
aa(lp3332
I7
aI30
aI6
aI11
aI8
aI4
aI39
aI5
aI7
aI5
aa(lp3333
F0.12419488026424443
aaa(lp3334
(lp3335
I3042
aI3
aI1
aI0
aa(lp3336
I4
aI5
aI29
aI11
aI21
aI30
aI12
aI31
aI0
aI0
aa(lp3337
F0.12419488026424443
aaa(lp3338
(lp3339
I1772
aI6
aI1
aI0
aa(lp3340
I32
aI12
aI5
aI4
aI1
aI2
aI0
aI0
aI0
aI0
aa(lp3341
F0.018662262592898431
aaa(lp3342
(lp3343
I3103
aI3
aI1
aI0
aa(lp3344
I4
aI5
aI29
aI11
aI21
aI30
aI12
aI31
aI11
aI1
aa(lp3345
F0.12419488026424443
aaa(lp3346
(lp3347
I898
aI3
aI1
aI0
aa(lp3348
I8
aI9
aI7
aI8
aI4
aI9
aI8
aI0
aI0
aI0
aa(lp3349
F0.12419488026424443
aaa(lp3350
(lp3351
I3181
aI3
aI1
aI0
aa(lp3352
I4
aI5
aI29
aI11
aI21
aI30
aI12
aI31
aI0
aI0
aa(lp3353
F0.12419488026424443
aaa(lp3354
(lp3355
I338
aI6
aI1
aI0
aa(lp3356
I8
aI34
aI5
aI12
aI3
aI1
aI8
aI4
aI0
aI0
aa(lp3357
F0.018662262592898431
aaa(lp3358
(lp3359
I3326
aI3
aI1
aI0
aa(lp3360
I4
aI5
aI29
aI11
aI21
aI30
aI12
aI31
aI11
aI1
aa(lp3361
F0.12419488026424443
aaa(lp3362
(lp3363
I1394
aI6
aI1
aI0
aa(lp3364
I6
aI5
aI8
aI32
aI30
aI30
aI22
aI0
aI0
aI0
aa(lp3365
F0.018662262592898431
aaa(lp3366
(lp3367
I2488
aI3
aI1
aI0
aa(lp3368
I8
aI9
aI7
aI8
aI4
aI9
aI8
aI0
aI0
aI0
aa(lp3369
F0.12419488026424443
aaa(lp3370
(lp3371
I214
aI3
aI1
aI0
aa(lp3372
I6
aI5
aI8
aI7
aI11
aI20
aI5
aI8
aI1
aI2
aa(lp3373
F0.12419488026424443
aaa(lp3374
(lp3375
I1615
aI3
aI1
aI0
aa(lp3376
I4
aI5
aI29
aI11
aI21
aI30
aI12
aI31
aI0
aI0
aa(lp3377
F0.12419488026424443
aaa(lp3378
(lp3379
I1112
aI6
aI1
aI0
aa(lp3380
I8
aI34
aI5
aI12
aI3
aI1
aI8
aI4
aI0
aI0
aa(lp3381
F0.018662262592898431
aaa(lp3382
(lp3383
I3106
aI3
aI1
aI0
aa(lp3384
I6
aI8
aI4
aI9
aI8
aI11
aI34
aI30
aI4
aI3
aa(lp3385
F0.12419488026424443
aaa(lp3386
(lp3387
I2142
aI6
aI1
aI0
aa(lp3388
I8
aI34
aI5
aI12
aI3
aI1
aI8
aI4
aI0
aI0
aa(lp3389
F0.018662262592898431
aaa(lp3390
(lp3391
I2409
aI3
aI1
aI0
aa(lp3392
I4
aI5
aI29
aI11
aI21
aI30
aI12
aI31
aI11
aI1
aa(lp3393
F0.12419488026424443
aaa(lp3394
(lp3395
I2285
aI3
aI1
aI0
aa(lp3396
I29
aI5
aI6
aI9
aI11
aI7
aI8
aI0
aI0
aI0
aa(lp3397
F0.12419488026424443
aaa(lp3398
(lp3399
I940
aI3
aI1
aI0
aa(lp3400
I4
aI5
aI29
aI11
aI21
aI30
aI12
aI31
aI11
aI1
aa(lp3401
F0.12419488026424443
aaa(lp3402
(lp3403
I2568
aI3
aI1
aI0
aa(lp3404
I6
aI8
aI4
aI11
aI32
aI12
aI8
aI4
aI1
aI3
aa(lp3405
F0.12419488026424443
aaa(lp3406
(lp3407
I253
aI6
aI1
aI0
aa(lp3408
I8
aI6
aI3
aI8
aI4
aI0
aI0
aI0
aI0
aI0
aa(lp3409
F0.018662262592898431
aaa(lp3410
(lp3411
I2765
aI3
aI1
aI0
aa(lp3412
I4
aI5
aI29
aI11
aI21
aI30
aI12
aI31
aI0
aI0
aa(lp3413
F0.12419488026424443
aaa(lp3414
(lp3415
I530
aI3
aI1
aI0
aa(lp3416
I4
aI5
aI29
aI11
aI21
aI30
aI12
aI31
aI0
aI0
aa(lp3417
F0.12419488026424443
aaa(lp3418
(lp3419
I1924
aI3
aI1
aI0
aa(lp3420
I8
aI9
aI7
aI8
aI4
aI9
aI8
aI0
aI0
aI0
aa(lp3421
F0.12419488026424443
aaa(lp3422
(lp3423
I1152
aI3
aI1
aI0
aa(lp3424
I4
aI5
aI29
aI11
aI21
aI30
aI12
aI31
aI0
aI0
aa(lp3425
F0.12419488026424443
aaa(lp3426
(lp3427
I2707
aI3
aI1
aI0
aa(lp3428
I4
aI5
aI29
aI11
aI21
aI30
aI12
aI31
aI11
aI1
aa(lp3429
F0.12419488026424443
aaa(lp3430
(lp3431
I2904
aI3
aI1
aI0
aa(lp3432
I8
aI9
aI7
aI8
aI4
aI9
aI8
aI0
aI0
aI0
aa(lp3433
F0.12419488026424443
aaa(lp3434
(lp3435
I2768
aI3
aI1
aI0
aa(lp3436
I4
aI5
aI29
aI11
aI21
aI30
aI12
aI31
aI11
aI1
aa(lp3437
F0.12419488026424443
aaa(lp3438
(lp3439
I957
aI3
aI1
aI0
aa(lp3440
I4
aI5
aI29
aI11
aI21
aI30
aI12
aI31
aI0
aI0
aa(lp3441
F0.12419488026424443
aaa(lp3442
(lp3443
I3230
aI3
aI1
aI0
aa(lp3444
I7
aI8
aI0
aI0
aI0
aI0
aI0
aI0
aI0
aI0
aa(lp3445
F0.12419488026424443
aaa(lp3446
(lp3447
I2724
aI3
aI1
aI0
aa(lp3448
I4
aI5
aI29
aI11
aI21
aI30
aI12
aI31
aI0
aI0
aa(lp3449
F0.12419488026424443
aaa(lp3450
(lp3451
I1120
aI3
aI1
aI0
aa(lp3452
I6
aI8
aI4
aI11
aI32
aI12
aI8
aI4
aI1
aI3
aa(lp3453
F0.12419488026424443
aaa(lp3454
(lp3455
I1434
aI3
aI1
aI0
aa(lp3456
I8
aI9
aI7
aI8
aI4
aI9
aI8
aI0
aI0
aI0
aa(lp3457
F0.12419488026424443
aaa(lp3458
(lp3459
I1814
aI3
aI1
aI0
aa(lp3460
I6
aI8
aI4
aI11
aI32
aI12
aI8
aI4
aI1
aI3
aa(lp3461
F0.12419488026424443
aaa.