(lp1
(lp2
(lp3
I6
aI4
aI7
aI0
aa(lp4
I0
aI0
aI0
aI0
aI0
aI0
aI0
aI0
aI0
aI0
aa(lp5
F0.14285714285714285
aaa(lp6
(lp7
I16
aI4
aI17
aI0
aa(lp8
I0
aI0
aI0
aI0
aI0
aI0
aI0
aI0
aI0
aI0
aa(lp9
F0.14285714285714285
aaa(lp10
(lp11
I20
aI4
aI21
aI0
aa(lp12
I0
aI0
aI0
aI0
aI0
aI0
aI0
aI0
aI0
aI0
aa(lp13
F0.14285714285714285
aaa(lp14
(lp15
I30
aI4
aI31
aI0
aa(lp16
I0
aI0
aI0
aI0
aI0
aI0
aI0
aI0
aI0
aI0
aa(lp17
F0.14285714285714285
aaa(lp18
(lp19
I37
aI4
aI38
aI0
aa(lp20
I0
aI0
aI0
aI0
aI0
aI0
aI0
aI0
aI0
aI0
aa(lp21
F0.14285714285714285
aaa(lp22
(lp23
I49
aI4
aI50
aI0
aa(lp24
I0
aI0
aI0
aI0
aI0
aI0
aI0
aI0
aI0
aI0
aa(lp25
F0.14285714285714285
aaa(lp26
(lp27
I54
aI4
aI55
aI0
aa(lp28
I0
aI0
aI0
aI0
aI0
aI0
aI0
aI0
aI0
aI0
aa(lp29
F0.14285714285714285
aaa(lp30
(lp31
I58
aI4
aI59
aI0
aa(lp32
I0
aI0
aI0
aI0
aI0
aI0
aI0
aI0
aI0
aI0
aa(lp33
F0.14285714285714285
aaa(lp34
(lp35
I62
aI4
aI63
aI0
aa(lp36
I0
aI0
aI0
aI0
aI0
aI0
aI0
aI0
aI0
aI0
aa(lp37
F0.14285714285714285
aaa(lp38
(lp39
I73
aI4
aI74
aI0
aa(lp40
I0
aI0
aI0
aI0
aI0
aI0
aI0
aI0
aI0
aI0
aa(lp41
F0.14285714285714285
aaa(lp42
(lp43
I77
aI4
aI78
aI0
aa(lp44
I0
aI0
aI0
aI0
aI0
aI0
aI0
aI0
aI0
aI0
aa(lp45
F0.14285714285714285
aaa(lp46
(lp47
I84
aI4
aI85
aI0
aa(lp48
I0
aI0
aI0
aI0
aI0
aI0
aI0
aI0
aI0
aI0
aa(lp49
F0.14285714285714285
aaa(lp50
(lp51
I100
aI4
aI101
aI0
aa(lp52
I0
aI0
aI0
aI0
aI0
aI0
aI0
aI0
aI0
aI0
aa(lp53
F0.14285714285714285
aaa(lp54
(lp55
I106
aI4
aI107
aI0
aa(lp56
I0
aI0
aI0
aI0
aI0
aI0
aI0
aI0
aI0
aI0
aa(lp57
F0.14285714285714285
aaa(lp58
(lp59
I110
aI4
aI111
aI0
aa(lp60
I0
aI0
aI0
aI0
aI0
aI0
aI0
aI0
aI0
aI0
aa(lp61
F0.14285714285714285
aaa(lp62
(lp63
I114
aI4
aI115
aI0
aa(lp64
I0
aI0
aI0
aI0
aI0
aI0
aI0
aI0
aI0
aI0
aa(lp65
F0.14285714285714285
aaa(lp66
(lp67
I126
aI4
aI127
aI0
aa(lp68
I0
aI0
aI0
aI0
aI0
aI0
aI0
aI0
aI0
aI0
aa(lp69
F0.14285714285714285
aaa(lp70
(lp71
I144
aI4
aI145
aI0
aa(lp72
I0
aI0
aI0
aI0
aI0
aI0
aI0
aI0
aI0
aI0
aa(lp73
F0.14285714285714285
aaa(lp74
(lp75
I138
aI4
aI148
aI0
aa(lp76
I0
aI0
aI0
aI0
aI0
aI0
aI0
aI0
aI0
aI0
aa(lp77
F0.14285714285714285
aaa(lp78
(lp79
I156
aI4
aI157
aI0
aa(lp80
I0
aI0
aI0
aI0
aI0
aI0
aI0
aI0
aI0
aI0
aa(lp81
F0.14285714285714285
aaa(lp82
(lp83
I169
aI4
aI170
aI0
aa(lp84
I0
aI0
aI0
aI0
aI0
aI0
aI0
aI0
aI0
aI0
aa(lp85
F0.14285714285714285
aaa(lp86
(lp87
I188
aI4
aI189
aI0
aa(lp88
I0
aI0
aI0
aI0
aI0
aI0
aI0
aI0
aI0
aI0
aa(lp89
F0.14285714285714285
aaa(lp90
(lp91
I208
aI4
aI209
aI0
aa(lp92
I0
aI0
aI0
aI0
aI0
aI0
aI0
aI0
aI0
aI0
aa(lp93
F0.14285714285714285
aaa(lp94
(lp95
I213
aI4
aI214
aI0
aa(lp96
I0
aI0
aI0
aI0
aI0
aI0
aI0
aI0
aI0
aI0
aa(lp97
F0.14285714285714285
aaa(lp98
(lp99
I230
aI4
aI231
aI0
aa(lp100
I0
aI0
aI0
aI0
aI0
aI0
aI0
aI0
aI0
aI0
aa(lp101
F0.14285714285714285
aaa(lp102
(lp103
I235
aI4
aI236
aI0
aa(lp104
I0
aI0
aI0
aI0
aI0
aI0
aI0
aI0
aI0
aI0
aa(lp105
F0.14285714285714285
aaa(lp106
(lp107
I242
aI4
aI243
aI0
aa(lp108
I0
aI0
aI0
aI0
aI0
aI0
aI0
aI0
aI0
aI0
aa(lp109
F0.14285714285714285
aaa(lp110
(lp111
I256
aI4
aI257
aI0
aa(lp112
I0
aI0
aI0
aI0
aI0
aI0
aI0
aI0
aI0
aI0
aa(lp113
F0.14285714285714285
aaa(lp114
(lp115
I260
aI4
aI261
aI0
aa(lp116
I0
aI0
aI0
aI0
aI0
aI0
aI0
aI0
aI0
aI0
aa(lp117
F0.14285714285714285
aaa(lp118
(lp119
I266
aI4
aI267
aI0
aa(lp120
I0
aI0
aI0
aI0
aI0
aI0
aI0
aI0
aI0
aI0
aa(lp121
F0.14285714285714285
aaa(lp122
(lp123
I274
aI4
aI275
aI0
aa(lp124
I0
aI0
aI0
aI0
aI0
aI0
aI0
aI0
aI0
aI0
aa(lp125
F0.14285714285714285
aaa(lp126
(lp127
I42
aI4
aI279
aI0
aa(lp128
I0
aI0
aI0
aI0
aI0
aI0
aI0
aI0
aI0
aI0
aa(lp129
F0.14285714285714285
aaa(lp130
(lp131
I284
aI4
aI66
aI0
aa(lp132
I0
aI0
aI0
aI0
aI0
aI0
aI0
aI0
aI0
aI0
aa(lp133
F0.14285714285714285
aaa(lp134
(lp135
I294
aI4
aI295
aI0
aa(lp136
I0
aI0
aI0
aI0
aI0
aI0
aI0
aI0
aI0
aI0
aa(lp137
F0.14285714285714285
aaa(lp138
(lp139
I299
aI4
aI300
aI0
aa(lp140
I0
aI0
aI0
aI0
aI0
aI0
aI0
aI0
aI0
aI0
aa(lp141
F0.14285714285714285
aaa(lp142
(lp143
I305
aI4
aI306
aI0
aa(lp144
I0
aI0
aI0
aI0
aI0
aI0
aI0
aI0
aI0
aI0
aa(lp145
F0.14285714285714285
aaa(lp146
(lp147
I309
aI4
aI310
aI0
aa(lp148
I0
aI0
aI0
aI0
aI0
aI0
aI0
aI0
aI0
aI0
aa(lp149
F0.14285714285714285
aaa(lp150
(lp151
I342
aI4
aI343
aI0
aa(lp152
I0
aI0
aI0
aI0
aI0
aI0
aI0
aI0
aI0
aI0
aa(lp153
F0.14285714285714285
aaa(lp154
(lp155
I349
aI4
aI350
aI0
aa(lp156
I0
aI0
aI0
aI0
aI0
aI0
aI0
aI0
aI0
aI0
aa(lp157
F0.14285714285714285
aaa(lp158
(lp159
I174
aI4
aI369
aI0
aa(lp160
I0
aI0
aI0
aI0
aI0
aI0
aI0
aI0
aI0
aI0
aa(lp161
F0.14285714285714285
aaa(lp162
(lp163
I371
aI4
aI372
aI0
aa(lp164
I0
aI0
aI0
aI0
aI0
aI0
aI0
aI0
aI0
aI0
aa(lp165
F0.14285714285714285
aaa(lp166
(lp167
I378
aI4
aI379
aI0
aa(lp168
I0
aI0
aI0
aI0
aI0
aI0
aI0
aI0
aI0
aI0
aa(lp169
F0.14285714285714285
aaa(lp170
(lp171
I97
aI4
aI407
aI0
aa(lp172
I0
aI0
aI0
aI0
aI0
aI0
aI0
aI0
aI0
aI0
aa(lp173
F0.14285714285714285
aaa(lp174
(lp175
I409
aI4
aI410
aI0
aa(lp176
I0
aI0
aI0
aI0
aI0
aI0
aI0
aI0
aI0
aI0
aa(lp177
F0.14285714285714285
aaa(lp178
(lp179
I412
aI4
aI413
aI0
aa(lp180
I0
aI0
aI0
aI0
aI0
aI0
aI0
aI0
aI0
aI0
aa(lp181
F0.14285714285714285
aaa(lp182
(lp183
I250
aI4
aI418
aI0
aa(lp184
I0
aI0
aI0
aI0
aI0
aI0
aI0
aI0
aI0
aI0
aa(lp185
F0.14285714285714285
aaa(lp186
(lp187
I426
aI4
aI427
aI0
aa(lp188
I0
aI0
aI0
aI0
aI0
aI0
aI0
aI0
aI0
aI0
aa(lp189
F0.14285714285714285
aaa(lp190
(lp191
I430
aI4
aI431
aI0
aa(lp192
I0
aI0
aI0
aI0
aI0
aI0
aI0
aI0
aI0
aI0
aa(lp193
F0.14285714285714285
aaa(lp194
(lp195
I434
aI4
aI435
aI0
aa(lp196
I0
aI0
aI0
aI0
aI0
aI0
aI0
aI0
aI0
aI0
aa(lp197
F0.14285714285714285
aaa(lp198
(lp199
I45
aI4
aI454
aI0
aa(lp200
I0
aI0
aI0
aI0
aI0
aI0
aI0
aI0
aI0
aI0
aa(lp201
F0.14285714285714285
aaa(lp202
(lp203
I466
aI4
aI467
aI0
aa(lp204
I0
aI0
aI0
aI0
aI0
aI0
aI0
aI0
aI0
aI0
aa(lp205
F0.14285714285714285
aaa(lp206
(lp207
I475
aI4
aI476
aI0
aa(lp208
I0
aI0
aI0
aI0
aI0
aI0
aI0
aI0
aI0
aI0
aa(lp209
F0.14285714285714285
aaa(lp210
(lp211
I489
aI4
aI187
aI0
aa(lp212
I0
aI0
aI0
aI0
aI0
aI0
aI0
aI0
aI0
aI0
aa(lp213
F0.14285714285714285
aaa(lp214
(lp215
I491
aI4
aI492
aI0
aa(lp216
I0
aI0
aI0
aI0
aI0
aI0
aI0
aI0
aI0
aI0
aa(lp217
F0.14285714285714285
aaa(lp218
(lp219
I109
aI4
aI93
aI0
aa(lp220
I0
aI0
aI0
aI0
aI0
aI0
aI0
aI0
aI0
aI0
aa(lp221
F0.14285714285714285
aaa(lp222
(lp223
I502
aI4
aI503
aI0
aa(lp224
I0
aI0
aI0
aI0
aI0
aI0
aI0
aI0
aI0
aI0
aa(lp225
F0.14285714285714285
aaa(lp226
(lp227
I508
aI4
aI509
aI0
aa(lp228
I0
aI0
aI0
aI0
aI0
aI0
aI0
aI0
aI0
aI0
aa(lp229
F0.14285714285714285
aaa(lp230
(lp231
I520
aI4
aI521
aI0
aa(lp232
I0
aI0
aI0
aI0
aI0
aI0
aI0
aI0
aI0
aI0
aa(lp233
F0.14285714285714285
aaa(lp234
(lp235
I542
aI4
aI543
aI0
aa(lp236
I0
aI0
aI0
aI0
aI0
aI0
aI0
aI0
aI0
aI0
aa(lp237
F0.14285714285714285
aaa(lp238
(lp239
I552
aI4
aI553
aI0
aa(lp240
I0
aI0
aI0
aI0
aI0
aI0
aI0
aI0
aI0
aI0
aa(lp241
F0.14285714285714285
aaa(lp242
(lp243
I565
aI4
aI566
aI0
aa(lp244
I0
aI0
aI0
aI0
aI0
aI0
aI0
aI0
aI0
aI0
aa(lp245
F0.14285714285714285
aaa(lp246
(lp247
I551
aI4
aI575
aI0
aa(lp248
I0
aI0
aI0
aI0
aI0
aI0
aI0
aI0
aI0
aI0
aa(lp249
F0.14285714285714285
aaa(lp250
(lp251
I590
aI4
aI591
aI0
aa(lp252
I0
aI0
aI0
aI0
aI0
aI0
aI0
aI0
aI0
aI0
aa(lp253
F0.14285714285714285
aaa(lp254
(lp255
I595
aI4
aI596
aI0
aa(lp256
I0
aI0
aI0
aI0
aI0
aI0
aI0
aI0
aI0
aI0
aa(lp257
F0.14285714285714285
aaa(lp258
(lp259
I601
aI4
aI458
aI0
aa(lp260
I0
aI0
aI0
aI0
aI0
aI0
aI0
aI0
aI0
aI0
aa(lp261
F0.14285714285714285
aaa(lp262
(lp263
I605
aI4
aI278
aI0
aa(lp264
I0
aI0
aI0
aI0
aI0
aI0
aI0
aI0
aI0
aI0
aa(lp265
F0.14285714285714285
aaa(lp266
(lp267
I609
aI4
aI557
aI0
aa(lp268
I0
aI0
aI0
aI0
aI0
aI0
aI0
aI0
aI0
aI0
aa(lp269
F0.14285714285714285
aaa(lp270
(lp271
I614
aI4
aI615
aI0
aa(lp272
I0
aI0
aI0
aI0
aI0
aI0
aI0
aI0
aI0
aI0
aa(lp273
F0.14285714285714285
aaa(lp274
(lp275
I617
aI4
aI618
aI0
aa(lp276
I0
aI0
aI0
aI0
aI0
aI0
aI0
aI0
aI0
aI0
aa(lp277
F0.14285714285714285
aaa(lp278
(lp279
I628
aI4
aI629
aI0
aa(lp280
I0
aI0
aI0
aI0
aI0
aI0
aI0
aI0
aI0
aI0
aa(lp281
F0.14285714285714285
aaa(lp282
(lp283
I631
aI4
aI632
aI0
aa(lp284
I0
aI0
aI0
aI0
aI0
aI0
aI0
aI0
aI0
aI0
aa(lp285
F0.14285714285714285
aaa(lp286
(lp287
I638
aI4
aI639
aI0
aa(lp288
I0
aI0
aI0
aI0
aI0
aI0
aI0
aI0
aI0
aI0
aa(lp289
F0.14285714285714285
aaa(lp290
(lp291
I322
aI4
aI649
aI0
aa(lp292
I0
aI0
aI0
aI0
aI0
aI0
aI0
aI0
aI0
aI0
aa(lp293
F0.14285714285714285
aaa(lp294
(lp295
I402
aI4
aI668
aI0
aa(lp296
I0
aI0
aI0
aI0
aI0
aI0
aI0
aI0
aI0
aI0
aa(lp297
F0.14285714285714285
aaa(lp298
(lp299
I191
aI4
aI675
aI0
aa(lp300
I0
aI0
aI0
aI0
aI0
aI0
aI0
aI0
aI0
aI0
aa(lp301
F0.14285714285714285
aaa(lp302
(lp303
I680
aI4
aI681
aI0
aa(lp304
I0
aI0
aI0
aI0
aI0
aI0
aI0
aI0
aI0
aI0
aa(lp305
F0.14285714285714285
aaa(lp306
(lp307
I687
aI4
aI688
aI0
aa(lp308
I0
aI0
aI0
aI0
aI0
aI0
aI0
aI0
aI0
aI0
aa(lp309
F0.14285714285714285
aaa(lp310
(lp311
I724
aI4
aI725
aI0
aa(lp312
I0
aI0
aI0
aI0
aI0
aI0
aI0
aI0
aI0
aI0
aa(lp313
F0.14285714285714285
aaa(lp314
(lp315
I746
aI4
aI747
aI0
aa(lp316
I0
aI0
aI0
aI0
aI0
aI0
aI0
aI0
aI0
aI0
aa(lp317
F0.14285714285714285
aaa(lp318
(lp319
I282
aI4
aI770
aI0
aa(lp320
I0
aI0
aI0
aI0
aI0
aI0
aI0
aI0
aI0
aI0
aa(lp321
F0.14285714285714285
aaa(lp322
(lp323
I772
aI4
aI773
aI0
aa(lp324
I0
aI0
aI0
aI0
aI0
aI0
aI0
aI0
aI0
aI0
aa(lp325
F0.14285714285714285
aaa(lp326
(lp327
I793
aI4
aI794
aI0
aa(lp328
I0
aI0
aI0
aI0
aI0
aI0
aI0
aI0
aI0
aI0
aa(lp329
F0.14285714285714285
aaa(lp330
(lp331
I796
aI4
aI304
aI0
aa(lp332
I0
aI0
aI0
aI0
aI0
aI0
aI0
aI0
aI0
aI0
aa(lp333
F0.14285714285714285
aaa(lp334
(lp335
I805
aI4
aI806
aI0
aa(lp336
I0
aI0
aI0
aI0
aI0
aI0
aI0
aI0
aI0
aI0
aa(lp337
F0.14285714285714285
aaa(lp338
(lp339
I812
aI4
aI813
aI0
aa(lp340
I0
aI0
aI0
aI0
aI0
aI0
aI0
aI0
aI0
aI0
aa(lp341
F0.14285714285714285
aaa(lp342
(lp343
I816
aI4
aI425
aI0
aa(lp344
I0
aI0
aI0
aI0
aI0
aI0
aI0
aI0
aI0
aI0
aa(lp345
F0.14285714285714285
aaa(lp346
(lp347
I331
aI4
aI825
aI0
aa(lp348
I0
aI0
aI0
aI0
aI0
aI0
aI0
aI0
aI0
aI0
aa(lp349
F0.14285714285714285
aaa(lp350
(lp351
I829
aI4
aI830
aI0
aa(lp352
I0
aI0
aI0
aI0
aI0
aI0
aI0
aI0
aI0
aI0
aa(lp353
F0.14285714285714285
aaa(lp354
(lp355
I839
aI4
aI840
aI0
aa(lp356
I0
aI0
aI0
aI0
aI0
aI0
aI0
aI0
aI0
aI0
aa(lp357
F0.14285714285714285
aaa(lp358
(lp359
I845
aI4
aI846
aI0
aa(lp360
I0
aI0
aI0
aI0
aI0
aI0
aI0
aI0
aI0
aI0
aa(lp361
F0.14285714285714285
aaa(lp362
(lp363
I856
aI4
aI857
aI0
aa(lp364
I0
aI0
aI0
aI0
aI0
aI0
aI0
aI0
aI0
aI0
aa(lp365
F0.14285714285714285
aaa(lp366
(lp367
I35
aI4
aI864
aI0
aa(lp368
I0
aI0
aI0
aI0
aI0
aI0
aI0
aI0
aI0
aI0
aa(lp369
F0.14285714285714285
aaa(lp370
(lp371
I888
aI4
aI549
aI0
aa(lp372
I0
aI0
aI0
aI0
aI0
aI0
aI0
aI0
aI0
aI0
aa(lp373
F0.14285714285714285
aaa(lp374
(lp375
I180
aI4
aI892
aI0
aa(lp376
I0
aI0
aI0
aI0
aI0
aI0
aI0
aI0
aI0
aI0
aa(lp377
F0.14285714285714285
aaa(lp378
(lp379
I587
aI4
aI898
aI0
aa(lp380
I0
aI0
aI0
aI0
aI0
aI0
aI0
aI0
aI0
aI0
aa(lp381
F0.14285714285714285
aaa(lp382
(lp383
I903
aI4
aI904
aI0
aa(lp384
I0
aI0
aI0
aI0
aI0
aI0
aI0
aI0
aI0
aI0
aa(lp385
F0.14285714285714285
aaa(lp386
(lp387
I910
aI4
aI183
aI0
aa(lp388
I0
aI0
aI0
aI0
aI0
aI0
aI0
aI0
aI0
aI0
aa(lp389
F0.14285714285714285
aaa(lp390
(lp391
I928
aI4
aI929
aI0
aa(lp392
I0
aI0
aI0
aI0
aI0
aI0
aI0
aI0
aI0
aI0
aa(lp393
F0.14285714285714285
aaa(lp394
(lp395
I956
aI4
aI957
aI0
aa(lp396
I0
aI0
aI0
aI0
aI0
aI0
aI0
aI0
aI0
aI0
aa(lp397
F0.14285714285714285
aaa(lp398
(lp399
I959
aI4
aI960
aI0
aa(lp400
I0
aI0
aI0
aI0
aI0
aI0
aI0
aI0
aI0
aI0
aa(lp401
F0.14285714285714285
aaa(lp402
(lp403
I963
aI4
aI964
aI0
aa(lp404
I0
aI0
aI0
aI0
aI0
aI0
aI0
aI0
aI0
aI0
aa(lp405
F0.14285714285714285
aaa(lp406
(lp407
I954
aI4
aI972
aI0
aa(lp408
I0
aI0
aI0
aI0
aI0
aI0
aI0
aI0
aI0
aI0
aa(lp409
F0.14285714285714285
aaa(lp410
(lp411
I987
aI4
aI752
aI0
aa(lp412
I0
aI0
aI0
aI0
aI0
aI0
aI0
aI0
aI0
aI0
aa(lp413
F0.14285714285714285
aaa(lp414
(lp415
I440
aI4
aI83
aI0
aa(lp416
I0
aI0
aI0
aI0
aI0
aI0
aI0
aI0
aI0
aI0
aa(lp417
F0.14285714285714285
aaa(lp418
(lp419
I523
aI4
aI1006
aI0
aa(lp420
I0
aI0
aI0
aI0
aI0
aI0
aI0
aI0
aI0
aI0
aa(lp421
F0.14285714285714285
aaa(lp422
(lp423
I1016
aI4
aI652
aI0
aa(lp424
I0
aI0
aI0
aI0
aI0
aI0
aI0
aI0
aI0
aI0
aa(lp425
F0.14285714285714285
aaa(lp426
(lp427
I804
aI4
aI319
aI0
aa(lp428
I0
aI0
aI0
aI0
aI0
aI0
aI0
aI0
aI0
aI0
aa(lp429
F0.14285714285714285
aaa(lp430
(lp431
I980
aI4
aI1048
aI0
aa(lp432
I0
aI0
aI0
aI0
aI0
aI0
aI0
aI0
aI0
aI0
aa(lp433
F0.14285714285714285
aaa(lp434
(lp435
I1058
aI4
aI1059
aI0
aa(lp436
I0
aI0
aI0
aI0
aI0
aI0
aI0
aI0
aI0
aI0
aa(lp437
F0.14285714285714285
aaa(lp438
(lp439
I1066
aI4
aI1067
aI0
aa(lp440
I0
aI0
aI0
aI0
aI0
aI0
aI0
aI0
aI0
aI0
aa(lp441
F0.14285714285714285
aaa(lp442
(lp443
I1073
aI4
aI1074
aI0
aa(lp444
I0
aI0
aI0
aI0
aI0
aI0
aI0
aI0
aI0
aI0
aa(lp445
F0.14285714285714285
aaa(lp446
(lp447
I516
aI4
aI1104
aI0
aa(lp448
I0
aI0
aI0
aI0
aI0
aI0
aI0
aI0
aI0
aI0
aa(lp449
F0.14285714285714285
aaa(lp450
(lp451
I1113
aI4
aI1114
aI0
aa(lp452
I0
aI0
aI0
aI0
aI0
aI0
aI0
aI0
aI0
aI0
aa(lp453
F0.14285714285714285
aaa(lp454
(lp455
I1117
aI4
aI1118
aI0
aa(lp456
I0
aI0
aI0
aI0
aI0
aI0
aI0
aI0
aI0
aI0
aa(lp457
F0.14285714285714285
aaa(lp458
(lp459
I1125
aI4
aI1126
aI0
aa(lp460
I0
aI0
aI0
aI0
aI0
aI0
aI0
aI0
aI0
aI0
aa(lp461
F0.14285714285714285
aaa(lp462
(lp463
I532
aI4
aI1129
aI0
aa(lp464
I0
aI0
aI0
aI0
aI0
aI0
aI0
aI0
aI0
aI0
aa(lp465
F0.14285714285714285
aaa(lp466
(lp467
I1132
aI4
aI1133
aI0
aa(lp468
I0
aI0
aI0
aI0
aI0
aI0
aI0
aI0
aI0
aI0
aa(lp469
F0.14285714285714285
aaa(lp470
(lp471
I43
aI4
aI1139
aI0
aa(lp472
I0
aI0
aI0
aI0
aI0
aI0
aI0
aI0
aI0
aI0
aa(lp473
F0.14285714285714285
aaa(lp474
(lp475
I1151
aI4
aI1152
aI0
aa(lp476
I0
aI0
aI0
aI0
aI0
aI0
aI0
aI0
aI0
aI0
aa(lp477
F0.14285714285714285
aaa(lp478
(lp479
I819
aI4
aI321
aI0
aa(lp480
I0
aI0
aI0
aI0
aI0
aI0
aI0
aI0
aI0
aI0
aa(lp481
F0.14285714285714285
aaa(lp482
(lp483
I125
aI4
aI623
aI0
aa(lp484
I0
aI0
aI0
aI0
aI0
aI0
aI0
aI0
aI0
aI0
aa(lp485
F0.14285714285714285
aaa(lp486
(lp487
I131
aI4
aI1156
aI0
aa(lp488
I0
aI0
aI0
aI0
aI0
aI0
aI0
aI0
aI0
aI0
aa(lp489
F0.14285714285714285
aaa(lp490
(lp491
I744
aI4
aI1159
aI0
aa(lp492
I0
aI0
aI0
aI0
aI0
aI0
aI0
aI0
aI0
aI0
aa(lp493
F0.14285714285714285
aaa(lp494
(lp495
I1162
aI4
aI1163
aI0
aa(lp496
I0
aI0
aI0
aI0
aI0
aI0
aI0
aI0
aI0
aI0
aa(lp497
F0.14285714285714285
aaa(lp498
(lp499
I1165
aI4
aI1166
aI0
aa(lp500
I0
aI0
aI0
aI0
aI0
aI0
aI0
aI0
aI0
aI0
aa(lp501
F0.14285714285714285
aaa(lp502
(lp503
I938
aI4
aI1032
aI0
aa(lp504
I0
aI0
aI0
aI0
aI0
aI0
aI0
aI0
aI0
aI0
aa(lp505
F0.14285714285714285
aaa(lp506
(lp507
I1176
aI4
aI711
aI0
aa(lp508
I0
aI0
aI0
aI0
aI0
aI0
aI0
aI0
aI0
aI0
aa(lp509
F0.14285714285714285
aaa(lp510
(lp511
I1178
aI4
aI1179
aI0
aa(lp512
I0
aI0
aI0
aI0
aI0
aI0
aI0
aI0
aI0
aI0
aa(lp513
F0.14285714285714285
aaa(lp514
(lp515
I659
aI4
aI1185
aI0
aa(lp516
I0
aI0
aI0
aI0
aI0
aI0
aI0
aI0
aI0
aI0
aa(lp517
F0.14285714285714285
aaa(lp518
(lp519
I164
aI4
aI1191
aI0
aa(lp520
I0
aI0
aI0
aI0
aI0
aI0
aI0
aI0
aI0
aI0
aa(lp521
F0.14285714285714285
aaa(lp522
(lp523
I1205
aI4
aI1206
aI0
aa(lp524
I0
aI0
aI0
aI0
aI0
aI0
aI0
aI0
aI0
aI0
aa(lp525
F0.14285714285714285
aaa(lp526
(lp527
I447
aI4
aI365
aI0
aa(lp528
I0
aI0
aI0
aI0
aI0
aI0
aI0
aI0
aI0
aI0
aa(lp529
F0.14285714285714285
aaa(lp530
(lp531
I122
aI4
aI1211
aI0
aa(lp532
I0
aI0
aI0
aI0
aI0
aI0
aI0
aI0
aI0
aI0
aa(lp533
F0.14285714285714285
aaa(lp534
(lp535
I1221
aI4
aI1222
aI0
aa(lp536
I0
aI0
aI0
aI0
aI0
aI0
aI0
aI0
aI0
aI0
aa(lp537
F0.14285714285714285
aaa(lp538
(lp539
I1238
aI4
aI1239
aI0
aa(lp540
I0
aI0
aI0
aI0
aI0
aI0
aI0
aI0
aI0
aI0
aa(lp541
F0.14285714285714285
aaa(lp542
(lp543
I1246
aI4
aI1247
aI0
aa(lp544
I0
aI0
aI0
aI0
aI0
aI0
aI0
aI0
aI0
aI0
aa(lp545
F0.14285714285714285
aaa(lp546
(lp547
I1249
aI4
aI913
aI0
aa(lp548
I0
aI0
aI0
aI0
aI0
aI0
aI0
aI0
aI0
aI0
aa(lp549
F0.14285714285714285
aaa(lp550
(lp551
I1255
aI4
aI1256
aI0
aa(lp552
I0
aI0
aI0
aI0
aI0
aI0
aI0
aI0
aI0
aI0
aa(lp553
F0.14285714285714285
aaa(lp554
(lp555
I1259
aI4
aI1260
aI0
aa(lp556
I0
aI0
aI0
aI0
aI0
aI0
aI0
aI0
aI0
aI0
aa(lp557
F0.14285714285714285
aaa(lp558
(lp559
I1273
aI4
aI1274
aI0
aa(lp560
I0
aI0
aI0
aI0
aI0
aI0
aI0
aI0
aI0
aI0
aa(lp561
F0.14285714285714285
aaa(lp562
(lp563
I423
aI4
aI1276
aI0
aa(lp564
I0
aI0
aI0
aI0
aI0
aI0
aI0
aI0
aI0
aI0
aa(lp565
F0.14285714285714285
aaa(lp566
(lp567
I1281
aI4
aI1282
aI0
aa(lp568
I0
aI0
aI0
aI0
aI0
aI0
aI0
aI0
aI0
aI0
aa(lp569
F0.14285714285714285
aaa(lp570
(lp571
I1288
aI4
aI1264
aI0
aa(lp572
I0
aI0
aI0
aI0
aI0
aI0
aI0
aI0
aI0
aI0
aa(lp573
F0.14285714285714285
aaa(lp574
(lp575
I1019
aI4
aI1294
aI0
aa(lp576
I0
aI0
aI0
aI0
aI0
aI0
aI0
aI0
aI0
aI0
aa(lp577
F0.14285714285714285
aaa(lp578
(lp579
I473
aI4
aI1307
aI0
aa(lp580
I0
aI0
aI0
aI0
aI0
aI0
aI0
aI0
aI0
aI0
aa(lp581
F0.14285714285714285
aaa(lp582
(lp583
I1312
aI4
aI1313
aI0
aa(lp584
I0
aI0
aI0
aI0
aI0
aI0
aI0
aI0
aI0
aI0
aa(lp585
F0.14285714285714285
aaa(lp586
(lp587
I951
aI4
aI1319
aI0
aa(lp588
I0
aI0
aI0
aI0
aI0
aI0
aI0
aI0
aI0
aI0
aa(lp589
F0.14285714285714285
aaa(lp590
(lp591
I1330
aI4
aI1331
aI0
aa(lp592
I0
aI0
aI0
aI0
aI0
aI0
aI0
aI0
aI0
aI0
aa(lp593
F0.14285714285714285
aaa(lp594
(lp595
I1334
aI4
aI1335
aI0
aa(lp596
I0
aI0
aI0
aI0
aI0
aI0
aI0
aI0
aI0
aI0
aa(lp597
F0.14285714285714285
aaa(lp598
(lp599
I698
aI4
aI947
aI0
aa(lp600
I0
aI0
aI0
aI0
aI0
aI0
aI0
aI0
aI0
aI0
aa(lp601
F0.14285714285714285
aaa(lp602
(lp603
I1338
aI4
aI1339
aI0
aa(lp604
I0
aI0
aI0
aI0
aI0
aI0
aI0
aI0
aI0
aI0
aa(lp605
F0.14285714285714285
aaa(lp606
(lp607
I1352
aI4
aI224
aI0
aa(lp608
I0
aI0
aI0
aI0
aI0
aI0
aI0
aI0
aI0
aI0
aa(lp609
F0.14285714285714285
aaa(lp610
(lp611
I1354
aI4
aI1355
aI0
aa(lp612
I0
aI0
aI0
aI0
aI0
aI0
aI0
aI0
aI0
aI0
aa(lp613
F0.14285714285714285
aaa(lp614
(lp615
I1358
aI4
aI1359
aI0
aa(lp616
I0
aI0
aI0
aI0
aI0
aI0
aI0
aI0
aI0
aI0
aa(lp617
F0.14285714285714285
aaa(lp618
(lp619
I1368
aI4
aI1369
aI0
aa(lp620
I0
aI0
aI0
aI0
aI0
aI0
aI0
aI0
aI0
aI0
aa(lp621
F0.14285714285714285
aaa(lp622
(lp623
I1373
aI4
aI1220
aI0
aa(lp624
I0
aI0
aI0
aI0
aI0
aI0
aI0
aI0
aI0
aI0
aa(lp625
F0.14285714285714285
aaa(lp626
(lp627
I113
aI4
aI1380
aI0
aa(lp628
I0
aI0
aI0
aI0
aI0
aI0
aI0
aI0
aI0
aI0
aa(lp629
F0.14285714285714285
aaa(lp630
(lp631
I1102
aI4
aI1382
aI0
aa(lp632
I0
aI0
aI0
aI0
aI0
aI0
aI0
aI0
aI0
aI0
aa(lp633
F0.14285714285714285
aaa(lp634
(lp635
I979
aI4
aI1349
aI0
aa(lp636
I0
aI0
aI0
aI0
aI0
aI0
aI0
aI0
aI0
aI0
aa(lp637
F0.14285714285714285
aaa(lp638
(lp639
I1414
aI4
aI1415
aI0
aa(lp640
I0
aI0
aI0
aI0
aI0
aI0
aI0
aI0
aI0
aI0
aa(lp641
F0.14285714285714285
aaa(lp642
(lp643
I1417
aI4
aI26
aI0
aa(lp644
I0
aI0
aI0
aI0
aI0
aI0
aI0
aI0
aI0
aI0
aa(lp645
F0.14285714285714285
aaa(lp646
(lp647
I1208
aI4
aI1425
aI0
aa(lp648
I0
aI0
aI0
aI0
aI0
aI0
aI0
aI0
aI0
aI0
aa(lp649
F0.14285714285714285
aaa(lp650
(lp651
I1427
aI4
aI1428
aI0
aa(lp652
I0
aI0
aI0
aI0
aI0
aI0
aI0
aI0
aI0
aI0
aa(lp653
F0.14285714285714285
aaa(lp654
(lp655
I1433
aI4
aI1434
aI0
aa(lp656
I0
aI0
aI0
aI0
aI0
aI0
aI0
aI0
aI0
aI0
aa(lp657
F0.14285714285714285
aaa(lp658
(lp659
I1448
aI4
aI1449
aI0
aa(lp660
I0
aI0
aI0
aI0
aI0
aI0
aI0
aI0
aI0
aI0
aa(lp661
F0.14285714285714285
aaa(lp662
(lp663
I1461
aI4
aI1462
aI0
aa(lp664
I0
aI0
aI0
aI0
aI0
aI0
aI0
aI0
aI0
aI0
aa(lp665
F0.14285714285714285
aaa(lp666
(lp667
I1315
aI4
aI483
aI0
aa(lp668
I0
aI0
aI0
aI0
aI0
aI0
aI0
aI0
aI0
aI0
aa(lp669
F0.14285714285714285
aaa(lp670
(lp671
I637
aI4
aI340
aI0
aa(lp672
I0
aI0
aI0
aI0
aI0
aI0
aI0
aI0
aI0
aI0
aa(lp673
F0.14285714285714285
aaa(lp674
(lp675
I809
aI4
aI1474
aI0
aa(lp676
I0
aI0
aI0
aI0
aI0
aI0
aI0
aI0
aI0
aI0
aa(lp677
F0.14285714285714285
aaa(lp678
(lp679
I854
aI4
aI1095
aI0
aa(lp680
I0
aI0
aI0
aI0
aI0
aI0
aI0
aI0
aI0
aI0
aa(lp681
F0.14285714285714285
aaa(lp682
(lp683
I1085
aI4
aI538
aI0
aa(lp684
I0
aI0
aI0
aI0
aI0
aI0
aI0
aI0
aI0
aI0
aa(lp685
F0.14285714285714285
aaa(lp686
(lp687
I1503
aI4
aI1504
aI0
aa(lp688
I0
aI0
aI0
aI0
aI0
aI0
aI0
aI0
aI0
aI0
aa(lp689
F0.14285714285714285
aaa(lp690
(lp691
I517
aI4
aI501
aI0
aa(lp692
I0
aI0
aI0
aI0
aI0
aI0
aI0
aI0
aI0
aI0
aa(lp693
F0.14285714285714285
aaa(lp694
(lp695
I453
aI4
aI1489
aI0
aa(lp696
I0
aI0
aI0
aI0
aI0
aI0
aI0
aI0
aI0
aI0
aa(lp697
F0.14285714285714285
aaa(lp698
(lp699
I1514
aI4
aI1515
aI0
aa(lp700
I0
aI0
aI0
aI0
aI0
aI0
aI0
aI0
aI0
aI0
aa(lp701
F0.14285714285714285
aaa(lp702
(lp703
I1523
aI4
aI1524
aI0
aa(lp704
I0
aI0
aI0
aI0
aI0
aI0
aI0
aI0
aI0
aI0
aa(lp705
F0.14285714285714285
aaa(lp706
(lp707
I1533
aI4
aI1534
aI0
aa(lp708
I0
aI0
aI0
aI0
aI0
aI0
aI0
aI0
aI0
aI0
aa(lp709
F0.14285714285714285
aaa(lp710
(lp711
I885
aI4
aI1536
aI0
aa(lp712
I0
aI0
aI0
aI0
aI0
aI0
aI0
aI0
aI0
aI0
aa(lp713
F0.14285714285714285
aaa(lp714
(lp715
I1539
aI4
aI613
aI0
aa(lp716
I0
aI0
aI0
aI0
aI0
aI0
aI0
aI0
aI0
aI0
aa(lp717
F0.14285714285714285
aaa(lp718
(lp719
I1011
aI4
aI1553
aI0
aa(lp720
I0
aI0
aI0
aI0
aI0
aI0
aI0
aI0
aI0
aI0
aa(lp721
F0.14285714285714285
aaa(lp722
(lp723
I1560
aI4
aI1561
aI0
aa(lp724
I0
aI0
aI0
aI0
aI0
aI0
aI0
aI0
aI0
aI0
aa(lp725
F0.14285714285714285
aaa(lp726
(lp727
I330
aI4
aI68
aI0
aa(lp728
I0
aI0
aI0
aI0
aI0
aI0
aI0
aI0
aI0
aI0
aa(lp729
F0.14285714285714285
aaa(lp730
(lp731
I1576
aI4
aI1577
aI0
aa(lp732
I0
aI0
aI0
aI0
aI0
aI0
aI0
aI0
aI0
aI0
aa(lp733
F0.14285714285714285
aaa(lp734
(lp735
I1602
aI4
aI1603
aI0
aa(lp736
I0
aI0
aI0
aI0
aI0
aI0
aI0
aI0
aI0
aI0
aa(lp737
F0.14285714285714285
aaa(lp738
(lp739
I1607
aI4
aI1284
aI0
aa(lp740
I0
aI0
aI0
aI0
aI0
aI0
aI0
aI0
aI0
aI0
aa(lp741
F0.14285714285714285
aaa(lp742
(lp743
I374
aI4
aI36
aI0
aa(lp744
I0
aI0
aI0
aI0
aI0
aI0
aI0
aI0
aI0
aI0
aa(lp745
F0.14285714285714285
aaa(lp746
(lp747
I635
aI4
aI1253
aI0
aa(lp748
I0
aI0
aI0
aI0
aI0
aI0
aI0
aI0
aI0
aI0
aa(lp749
F0.14285714285714285
aaa(lp750
(lp751
I1614
aI4
aI1615
aI0
aa(lp752
I0
aI0
aI0
aI0
aI0
aI0
aI0
aI0
aI0
aI0
aa(lp753
F0.14285714285714285
aaa(lp754
(lp755
I1622
aI4
aI1623
aI0
aa(lp756
I0
aI0
aI0
aI0
aI0
aI0
aI0
aI0
aI0
aI0
aa(lp757
F0.14285714285714285
aaa(lp758
(lp759
I1628
aI4
aI1629
aI0
aa(lp760
I0
aI0
aI0
aI0
aI0
aI0
aI0
aI0
aI0
aI0
aa(lp761
F0.14285714285714285
aaa(lp762
(lp763
I1495
aI4
aI498
aI0
aa(lp764
I0
aI0
aI0
aI0
aI0
aI0
aI0
aI0
aI0
aI0
aa(lp765
F0.14285714285714285
aaa(lp766
(lp767
I1638
aI4
aI1639
aI0
aa(lp768
I0
aI0
aI0
aI0
aI0
aI0
aI0
aI0
aI0
aI0
aa(lp769
F0.14285714285714285
aaa(lp770
(lp771
I1643
aI4
aI1644
aI0
aa(lp772
I0
aI0
aI0
aI0
aI0
aI0
aI0
aI0
aI0
aI0
aa(lp773
F0.14285714285714285
aaa(lp774
(lp775
I1654
aI4
aI1655
aI0
aa(lp776
I0
aI0
aI0
aI0
aI0
aI0
aI0
aI0
aI0
aI0
aa(lp777
F0.14285714285714285
aaa(lp778
(lp779
I1664
aI4
aI1665
aI0
aa(lp780
I0
aI0
aI0
aI0
aI0
aI0
aI0
aI0
aI0
aI0
aa(lp781
F0.14285714285714285
aaa(lp782
(lp783
I1471
aI4
aI1686
aI0
aa(lp784
I0
aI0
aI0
aI0
aI0
aI0
aI0
aI0
aI0
aI0
aa(lp785
F0.14285714285714285
aaa(lp786
(lp787
I1692
aI4
aI1693
aI0
aa(lp788
I0
aI0
aI0
aI0
aI0
aI0
aI0
aI0
aI0
aI0
aa(lp789
F0.14285714285714285
aaa(lp790
(lp791
I841
aI4
aI1563
aI0
aa(lp792
I0
aI0
aI0
aI0
aI0
aI0
aI0
aI0
aI0
aI0
aa(lp793
F0.14285714285714285
aaa(lp794
(lp795
I1697
aI4
aI1698
aI0
aa(lp796
I0
aI0
aI0
aI0
aI0
aI0
aI0
aI0
aI0
aI0
aa(lp797
F0.14285714285714285
aaa(lp798
(lp799
I1189
aI4
aI844
aI0
aa(lp800
I0
aI0
aI0
aI0
aI0
aI0
aI0
aI0
aI0
aI0
aa(lp801
F0.14285714285714285
aaa(lp802
(lp803
I1230
aI4
aI1708
aI0
aa(lp804
I0
aI0
aI0
aI0
aI0
aI0
aI0
aI0
aI0
aI0
aa(lp805
F0.14285714285714285
aaa(lp806
(lp807
I1710
aI4
aI1711
aI0
aa(lp808
I0
aI0
aI0
aI0
aI0
aI0
aI0
aI0
aI0
aI0
aa(lp809
F0.14285714285714285
aaa(lp810
(lp811
I1717
aI4
aI1718
aI0
aa(lp812
I0
aI0
aI0
aI0
aI0
aI0
aI0
aI0
aI0
aI0
aa(lp813
F0.14285714285714285
aaa(lp814
(lp815
I1723
aI4
aI1318
aI0
aa(lp816
I0
aI0
aI0
aI0
aI0
aI0
aI0
aI0
aI0
aI0
aa(lp817
F0.14285714285714285
aaa(lp818
(lp819
I1731
aI4
aI1732
aI0
aa(lp820
I0
aI0
aI0
aI0
aI0
aI0
aI0
aI0
aI0
aI0
aa(lp821
F0.14285714285714285
aaa(lp822
(lp823
I1740
aI4
aI27
aI0
aa(lp824
I0
aI0
aI0
aI0
aI0
aI0
aI0
aI0
aI0
aI0
aa(lp825
F0.14285714285714285
aaa(lp826
(lp827
I1297
aI4
aI1745
aI0
aa(lp828
I0
aI0
aI0
aI0
aI0
aI0
aI0
aI0
aI0
aI0
aa(lp829
F0.14285714285714285
aaa(lp830
(lp831
I104
aI4
aI199
aI0
aa(lp832
I0
aI0
aI0
aI0
aI0
aI0
aI0
aI0
aI0
aI0
aa(lp833
F0.14285714285714285
aaa(lp834
(lp835
I750
aI4
aI1304
aI0
aa(lp836
I0
aI0
aI0
aI0
aI0
aI0
aI0
aI0
aI0
aI0
aa(lp837
F0.14285714285714285
aaa(lp838
(lp839
I751
aI4
aI1764
aI0
aa(lp840
I0
aI0
aI0
aI0
aI0
aI0
aI0
aI0
aI0
aI0
aa(lp841
F0.14285714285714285
aaa(lp842
(lp843
I1769
aI4
aI1202
aI0
aa(lp844
I0
aI0
aI0
aI0
aI0
aI0
aI0
aI0
aI0
aI0
aa(lp845
F0.14285714285714285
aaa(lp846
(lp847
I1445
aI4
aI1775
aI0
aa(lp848
I0
aI0
aI0
aI0
aI0
aI0
aI0
aI0
aI0
aI0
aa(lp849
F0.14285714285714285
aaa(lp850
(lp851
I1676
aI4
aI1778
aI0
aa(lp852
I0
aI0
aI0
aI0
aI0
aI0
aI0
aI0
aI0
aI0
aa(lp853
F0.14285714285714285
aaa(lp854
(lp855
I1784
aI4
aI1785
aI0
aa(lp856
I0
aI0
aI0
aI0
aI0
aI0
aI0
aI0
aI0
aI0
aa(lp857
F0.14285714285714285
aaa(lp858
(lp859
I1706
aI4
aI438
aI0
aa(lp860
I0
aI0
aI0
aI0
aI0
aI0
aI0
aI0
aI0
aI0
aa(lp861
F0.14285714285714285
aaa(lp862
(lp863
I1791
aI4
aI1323
aI0
aa(lp864
I0
aI0
aI0
aI0
aI0
aI0
aI0
aI0
aI0
aI0
aa(lp865
F0.14285714285714285
aaa(lp866
(lp867
I1800
aI4
aI940
aI0
aa(lp868
I0
aI0
aI0
aI0
aI0
aI0
aI0
aI0
aI0
aI0
aa(lp869
F0.14285714285714285
aaa(lp870
(lp871
I132
aI4
aI1807
aI0
aa(lp872
I0
aI0
aI0
aI0
aI0
aI0
aI0
aI0
aI0
aI0
aa(lp873
F0.14285714285714285
aaa(lp874
(lp875
I1813
aI4
aI1814
aI0
aa(lp876
I0
aI0
aI0
aI0
aI0
aI0
aI0
aI0
aI0
aI0
aa(lp877
F0.14285714285714285
aaa(lp878
(lp879
I308
aI4
aI153
aI0
aa(lp880
I0
aI0
aI0
aI0
aI0
aI0
aI0
aI0
aI0
aI0
aa(lp881
F0.14285714285714285
aaa(lp882
(lp883
I1631
aI4
aI645
aI0
aa(lp884
I0
aI0
aI0
aI0
aI0
aI0
aI0
aI0
aI0
aI0
aa(lp885
F0.14285714285714285
aaa(lp886
(lp887
I868
aI4
aI1825
aI0
aa(lp888
I0
aI0
aI0
aI0
aI0
aI0
aI0
aI0
aI0
aI0
aa(lp889
F0.14285714285714285
aaa(lp890
(lp891
I1827
aI4
aI1728
aI0
aa(lp892
I0
aI0
aI0
aI0
aI0
aI0
aI0
aI0
aI0
aI0
aa(lp893
F0.14285714285714285
aaa(lp894
(lp895
I443
aI4
aI1252
aI0
aa(lp896
I0
aI0
aI0
aI0
aI0
aI0
aI0
aI0
aI0
aI0
aa(lp897
F0.14285714285714285
aaa(lp898
(lp899
I1844
aI4
aI1845
aI0
aa(lp900
I0
aI0
aI0
aI0
aI0
aI0
aI0
aI0
aI0
aI0
aa(lp901
F0.14285714285714285
aaa(lp902
(lp903
I1573
aI4
aI1851
aI0
aa(lp904
I0
aI0
aI0
aI0
aI0
aI0
aI0
aI0
aI0
aI0
aa(lp905
F0.14285714285714285
aaa(lp906
(lp907
I569
aI4
aI1860
aI0
aa(lp908
I0
aI0
aI0
aI0
aI0
aI0
aI0
aI0
aI0
aI0
aa(lp909
F0.14285714285714285
aaa(lp910
(lp911
I1169
aI4
aI1477
aI0
aa(lp912
I0
aI0
aI0
aI0
aI0
aI0
aI0
aI0
aI0
aI0
aa(lp913
F0.14285714285714285
aaa(lp914
(lp915
I600
aI4
aI953
aI0
aa(lp916
I0
aI0
aI0
aI0
aI0
aI0
aI0
aI0
aI0
aI0
aa(lp917
F0.14285714285714285
aaa(lp918
(lp919
I465
aI4
aI1877
aI0
aa(lp920
I0
aI0
aI0
aI0
aI0
aI0
aI0
aI0
aI0
aI0
aa(lp921
F0.14285714285714285
aaa(lp922
(lp923
I1441
aI4
aI1879
aI0
aa(lp924
I0
aI0
aI0
aI0
aI0
aI0
aI0
aI0
aI0
aI0
aa(lp925
F0.14285714285714285
aaa(lp926
(lp927
I1884
aI4
aI1752
aI0
aa(lp928
I0
aI0
aI0
aI0
aI0
aI0
aI0
aI0
aI0
aI0
aa(lp929
F0.14285714285714285
aaa(lp930
(lp931
I784
aI4
aI1889
aI0
aa(lp932
I0
aI0
aI0
aI0
aI0
aI0
aI0
aI0
aI0
aI0
aa(lp933
F0.14285714285714285
aaa(lp934
(lp935
I353
aI4
aI1081
aI0
aa(lp936
I0
aI0
aI0
aI0
aI0
aI0
aI0
aI0
aI0
aI0
aa(lp937
F0.14285714285714285
aaa(lp938
(lp939
I1736
aI4
aI789
aI0
aa(lp940
I0
aI0
aI0
aI0
aI0
aI0
aI0
aI0
aI0
aI0
aa(lp941
F0.14285714285714285
aaa(lp942
(lp943
I1657
aI4
aI1606
aI0
aa(lp944
I0
aI0
aI0
aI0
aI0
aI0
aI0
aI0
aI0
aI0
aa(lp945
F0.14285714285714285
aaa(lp946
(lp947
I1914
aI4
aI1915
aI0
aa(lp948
I0
aI0
aI0
aI0
aI0
aI0
aI0
aI0
aI0
aI0
aa(lp949
F0.14285714285714285
aaa(lp950
(lp951
I1921
aI4
aI1886
aI0
aa(lp952
I0
aI0
aI0
aI0
aI0
aI0
aI0
aI0
aI0
aI0
aa(lp953
F0.14285714285714285
aaa(lp954
(lp955
I860
aI4
aI1927
aI0
aa(lp956
I0
aI0
aI0
aI0
aI0
aI0
aI0
aI0
aI0
aI0
aa(lp957
F0.14285714285714285
aaa(lp958
(lp959
I451
aI4
aI1931
aI0
aa(lp960
I0
aI0
aI0
aI0
aI0
aI0
aI0
aI0
aI0
aI0
aa(lp961
F0.14285714285714285
aaa(lp962
(lp963
I673
aI4
aI1936
aI0
aa(lp964
I0
aI0
aI0
aI0
aI0
aI0
aI0
aI0
aI0
aI0
aa(lp965
F0.14285714285714285
aaa(lp966
(lp967
I969
aI4
aI1004
aI0
aa(lp968
I0
aI0
aI0
aI0
aI0
aI0
aI0
aI0
aI0
aI0
aa(lp969
F0.14285714285714285
aaa(lp970
(lp971
I1942
aI4
aI1026
aI0
aa(lp972
I0
aI0
aI0
aI0
aI0
aI0
aI0
aI0
aI0
aI0
aa(lp973
F0.14285714285714285
aaa(lp974
(lp975
I1482
aI4
aI1945
aI0
aa(lp976
I0
aI0
aI0
aI0
aI0
aI0
aI0
aI0
aI0
aI0
aa(lp977
F0.14285714285714285
aaa(lp978
(lp979
I1055
aI4
aI1400
aI0
aa(lp980
I0
aI0
aI0
aI0
aI0
aI0
aI0
aI0
aI0
aI0
aa(lp981
F0.14285714285714285
aaa(lp982
(lp983
I850
aI4
aI1951
aI0
aa(lp984
I0
aI0
aI0
aI0
aI0
aI0
aI0
aI0
aI0
aI0
aa(lp985
F0.14285714285714285
aaa(lp986
(lp987
I1555
aI4
aI1954
aI0
aa(lp988
I0
aI0
aI0
aI0
aI0
aI0
aI0
aI0
aI0
aI0
aa(lp989
F0.14285714285714285
aaa(lp990
(lp991
I1956
aI4
aI53
aI0
aa(lp992
I0
aI0
aI0
aI0
aI0
aI0
aI0
aI0
aI0
aI0
aa(lp993
F0.14285714285714285
aaa(lp994
(lp995
I95
aI4
aI998
aI0
aa(lp996
I0
aI0
aI0
aI0
aI0
aI0
aI0
aI0
aI0
aI0
aa(lp997
F0.14285714285714285
aaa(lp998
(lp999
I1966
aI4
aI168
aI0
aa(lp1000
I0
aI0
aI0
aI0
aI0
aI0
aI0
aI0
aI0
aI0
aa(lp1001
F0.14285714285714285
aaa(lp1002
(lp1003
I1969
aI4
aI1092
aI0
aa(lp1004
I0
aI0
aI0
aI0
aI0
aI0
aI0
aI0
aI0
aI0
aa(lp1005
F0.14285714285714285
aaa(lp1006
(lp1007
I1143
aI4
aI1971
aI0
aa(lp1008
I0
aI0
aI0
aI0
aI0
aI0
aI0
aI0
aI0
aI0
aa(lp1009
F0.14285714285714285
aaa(lp1010
(lp1011
I908
aI4
aI1973
aI0
aa(lp1012
I0
aI0
aI0
aI0
aI0
aI0
aI0
aI0
aI0
aI0
aa(lp1013
F0.14285714285714285
aaa(lp1014
(lp1015
I44
aI4
aI1975
aI0
aa(lp1016
I0
aI0
aI0
aI0
aI0
aI0
aI0
aI0
aI0
aI0
aa(lp1017
F0.14285714285714285
aaa(lp1018
(lp1019
I1820
aI4
aI691
aI0
aa(lp1020
I0
aI0
aI0
aI0
aI0
aI0
aI0
aI0
aI0
aI0
aa(lp1021
F0.14285714285714285
aaa(lp1022
(lp1023
I161
aI4
aI1978
aI0
aa(lp1024
I0
aI0
aI0
aI0
aI0
aI0
aI0
aI0
aI0
aI0
aa(lp1025
F0.14285714285714285
aaa(lp1026
(lp1027
I403
aI4
aI1980
aI0
aa(lp1028
I0
aI0
aI0
aI0
aI0
aI0
aI0
aI0
aI0
aI0
aa(lp1029
F0.14285714285714285
aaa(lp1030
(lp1031
I1782
aI4
aI1682
aI0
aa(lp1032
I0
aI0
aI0
aI0
aI0
aI0
aI0
aI0
aI0
aI0
aa(lp1033
F0.14285714285714285
aaa(lp1034
(lp1035
I177
aI4
aI1988
aI0
aa(lp1036
I0
aI0
aI0
aI0
aI0
aI0
aI0
aI0
aI0
aI0
aa(lp1037
F0.14285714285714285
aaa(lp1038
(lp1039
I1990
aI4
aI167
aI0
aa(lp1040
I0
aI0
aI0
aI0
aI0
aI0
aI0
aI0
aI0
aI0
aa(lp1041
F0.14285714285714285
aaa(lp1042
(lp1043
I1995
aI4
aI1996
aI0
aa(lp1044
I0
aI0
aI0
aI0
aI0
aI0
aI0
aI0
aI0
aI0
aa(lp1045
F0.14285714285714285
aaa(lp1046
(lp1047
I704
aI4
aI1999
aI0
aa(lp1048
I0
aI0
aI0
aI0
aI0
aI0
aI0
aI0
aI0
aI0
aa(lp1049
F0.14285714285714285
aaa(lp1050
(lp1051
I1605
aI4
aI719
aI0
aa(lp1052
I0
aI0
aI0
aI0
aI0
aI0
aI0
aI0
aI0
aI0
aa(lp1053
F0.14285714285714285
aaa(lp1054
(lp1055
I2013
aI4
aI2014
aI0
aa(lp1056
I0
aI0
aI0
aI0
aI0
aI0
aI0
aI0
aI0
aI0
aa(lp1057
F0.14285714285714285
aaa(lp1058
(lp1059
I217
aI4
aI1101
aI0
aa(lp1060
I0
aI0
aI0
aI0
aI0
aI0
aI0
aI0
aI0
aI0
aa(lp1061
F0.14285714285714285
aaa(lp1062
(lp1063
I997
aI4
aI2019
aI0
aa(lp1064
I0
aI0
aI0
aI0
aI0
aI0
aI0
aI0
aI0
aI0
aa(lp1065
F0.14285714285714285
aaa(lp1066
(lp1067
I974
aI4
aI2022
aI0
aa(lp1068
I0
aI0
aI0
aI0
aI0
aI0
aI0
aI0
aI0
aI0
aa(lp1069
F0.14285714285714285
aaa(lp1070
(lp1071
I2026
aI4
aI2027
aI0
aa(lp1072
I0
aI0
aI0
aI0
aI0
aI0
aI0
aI0
aI0
aI0
aa(lp1073
F0.14285714285714285
aaa(lp1074
(lp1075
I2030
aI4
aI1913
aI0
aa(lp1076
I0
aI0
aI0
aI0
aI0
aI0
aI0
aI0
aI0
aI0
aa(lp1077
F0.14285714285714285
aaa(lp1078
(lp1079
I1962
aI4
aI1365
aI0
aa(lp1080
I0
aI0
aI0
aI0
aI0
aI0
aI0
aI0
aI0
aI0
aa(lp1081
F0.14285714285714285
aaa(lp1082
(lp1083
I1399
aI4
aI1327
aI0
aa(lp1084
I0
aI0
aI0
aI0
aI0
aI0
aI0
aI0
aI0
aI0
aa(lp1085
F0.14285714285714285
aaa(lp1086
(lp1087
I1680
aI4
aI2038
aI0
aa(lp1088
I0
aI0
aI0
aI0
aI0
aI0
aI0
aI0
aI0
aI0
aa(lp1089
F0.14285714285714285
aaa(lp1090
(lp1091
I1347
aI4
aI361
aI0
aa(lp1092
I0
aI0
aI0
aI0
aI0
aI0
aI0
aI0
aI0
aI0
aa(lp1093
F0.14285714285714285
aaa(lp1094
(lp1095
I1183
aI4
aI1447
aI0
aa(lp1096
I0
aI0
aI0
aI0
aI0
aI0
aI0
aI0
aI0
aI0
aa(lp1097
F0.14285714285714285
aaa(lp1098
(lp1099
I573
aI4
aI2044
aI0
aa(lp1100
I0
aI0
aI0
aI0
aI0
aI0
aI0
aI0
aI0
aI0
aa(lp1101
F0.14285714285714285
aaa(lp1102
(lp1103
I1076
aI4
aI1565
aI0
aa(lp1104
I0
aI0
aI0
aI0
aI0
aI0
aI0
aI0
aI0
aI0
aa(lp1105
F0.14285714285714285
aaa(lp1106
(lp1107
I922
aI4
aI2063
aI0
aa(lp1108
I0
aI0
aI0
aI0
aI0
aI0
aI0
aI0
aI0
aI0
aa(lp1109
F0.14285714285714285
aaa(lp1110
(lp1111
I2082
aI4
aI2074
aI0
aa(lp1112
I0
aI0
aI0
aI0
aI0
aI0
aI0
aI0
aI0
aI0
aa(lp1113
F0.14285714285714285
aaa(lp1114
(lp1115
I152
aI4
aI2085
aI0
aa(lp1116
I0
aI0
aI0
aI0
aI0
aI0
aI0
aI0
aI0
aI0
aa(lp1117
F0.14285714285714285
aaa(lp1118
(lp1119
I496
aI4
aI2087
aI0
aa(lp1120
I0
aI0
aI0
aI0
aI0
aI0
aI0
aI0
aI0
aI0
aa(lp1121
F0.14285714285714285
aaa(lp1122
(lp1123
I1958
aI4
aI2021
aI0
aa(lp1124
I0
aI0
aI0
aI0
aI0
aI0
aI0
aI0
aI0
aI0
aa(lp1125
F0.14285714285714285
aaa(lp1126
(lp1127
I512
aI4
aI2103
aI0
aa(lp1128
I0
aI0
aI0
aI0
aI0
aI0
aI0
aI0
aI0
aI0
aa(lp1129
F0.14285714285714285
aaa(lp1130
(lp1131
I1754
aI4
aI2105
aI0
aa(lp1132
I0
aI0
aI0
aI0
aI0
aI0
aI0
aI0
aI0
aI0
aa(lp1133
F0.14285714285714285
aaa(lp1134
(lp1135
I1762
aI4
aI356
aI0
aa(lp1136
I0
aI0
aI0
aI0
aI0
aI0
aI0
aI0
aI0
aI0
aa(lp1137
F0.14285714285714285
aaa(lp1138
(lp1139
I105
aI4
aI1964
aI0
aa(lp1140
I0
aI0
aI0
aI0
aI0
aI0
aI0
aI0
aI0
aI0
aa(lp1141
F0.14285714285714285
aaa(lp1142
(lp1143
I1510
aI4
aI1039
aI0
aa(lp1144
I0
aI0
aI0
aI0
aI0
aI0
aI0
aI0
aI0
aI0
aa(lp1145
F0.14285714285714285
aaa(lp1146
(lp1147
I1648
aI4
aI47
aI0
aa(lp1148
I0
aI0
aI0
aI0
aI0
aI0
aI0
aI0
aI0
aI0
aa(lp1149
F0.14285714285714285
aaa(lp1150
(lp1151
I1831
aI4
aI721
aI0
aa(lp1152
I0
aI0
aI0
aI0
aI0
aI0
aI0
aI0
aI0
aI0
aa(lp1153
F0.14285714285714285
aaa(lp1154
(lp1155
I346
aI4
aI1835
aI0
aa(lp1156
I0
aI0
aI0
aI0
aI0
aI0
aI0
aI0
aI0
aI0
aa(lp1157
F0.14285714285714285
aaa(lp1158
(lp1159
I2120
aI4
aI2121
aI0
aa(lp1160
I0
aI0
aI0
aI0
aI0
aI0
aI0
aI0
aI0
aI0
aa(lp1161
F0.14285714285714285
aaa(lp1162
(lp1163
I1442
aI4
aI1750
aI0
aa(lp1164
I0
aI0
aI0
aI0
aI0
aI0
aI0
aI0
aI0
aI0
aa(lp1165
F0.14285714285714285
aaa(lp1166
(lp1167
I2128
aI4
aI2129
aI0
aa(lp1168
I0
aI0
aI0
aI0
aI0
aI0
aI0
aI0
aI0
aI0
aa(lp1169
F0.14285714285714285
aaa(lp1170
(lp1171
I2134
aI4
aI2135
aI0
aa(lp1172
I0
aI0
aI0
aI0
aI0
aI0
aI0
aI0
aI0
aI0
aa(lp1173
F0.14285714285714285
aaa(lp1174
(lp1175
I1551
aI4
aI386
aI0
aa(lp1176
I0
aI0
aI0
aI0
aI0
aI0
aI0
aI0
aI0
aI0
aa(lp1177
F0.14285714285714285
aaa(lp1178
(lp1179
I1121
aI4
aI2148
aI0
aa(lp1180
I0
aI0
aI0
aI0
aI0
aI0
aI0
aI0
aI0
aI0
aa(lp1181
F0.14285714285714285
aaa(lp1182
(lp1183
I890
aI4
aI2153
aI0
aa(lp1184
I0
aI0
aI0
aI0
aI0
aI0
aI0
aI0
aI0
aI0
aa(lp1185
F0.14285714285714285
aaa(lp1186
(lp1187
I1395
aI4
aI182
aI0
aa(lp1188
I0
aI0
aI0
aI0
aI0
aI0
aI0
aI0
aI0
aI0
aa(lp1189
F0.14285714285714285
aaa(lp1190
(lp1191
I2162
aI4
aI1317
aI0
aa(lp1192
I0
aI0
aI0
aI0
aI0
aI0
aI0
aI0
aI0
aI0
aa(lp1193
F0.14285714285714285
aaa(lp1194
(lp1195
I253
aI4
aI28
aI0
aa(lp1196
I0
aI0
aI0
aI0
aI0
aI0
aI0
aI0
aI0
aI0
aa(lp1197
F0.14285714285714285
aaa(lp1198
(lp1199
I88
aI4
aI2168
aI0
aa(lp1200
I0
aI0
aI0
aI0
aI0
aI0
aI0
aI0
aI0
aI0
aa(lp1201
F0.14285714285714285
aaa(lp1202
(lp1203
I912
aI4
aI2171
aI0
aa(lp1204
I0
aI0
aI0
aI0
aI0
aI0
aI0
aI0
aI0
aI0
aa(lp1205
F0.14285714285714285
aaa(lp1206
(lp1207
I2174
aI4
aI450
aI0
aa(lp1208
I0
aI0
aI0
aI0
aI0
aI0
aI0
aI0
aI0
aI0
aa(lp1209
F0.14285714285714285
aaa(lp1210
(lp1211
I464
aI4
aI1641
aI0
aa(lp1212
I0
aI0
aI0
aI0
aI0
aI0
aI0
aI0
aI0
aI0
aa(lp1213
F0.14285714285714285
aaa(lp1214
(lp1215
I2179
aI4
aI2180
aI0
aa(lp1216
I0
aI0
aI0
aI0
aI0
aI0
aI0
aI0
aI0
aI0
aa(lp1217
F0.14285714285714285
aaa(lp1218
(lp1219
I2182
aI4
aI1857
aI0
aa(lp1220
I0
aI0
aI0
aI0
aI0
aI0
aI0
aI0
aI0
aI0
aa(lp1221
F0.14285714285714285
aaa(lp1222
(lp1223
I2066
aI4
aI2184
aI0
aa(lp1224
I0
aI0
aI0
aI0
aI0
aI0
aI0
aI0
aI0
aI0
aa(lp1225
F0.14285714285714285
aaa(lp1226
(lp1227
I927
aI4
aI2192
aI0
aa(lp1228
I0
aI0
aI0
aI0
aI0
aI0
aI0
aI0
aI0
aI0
aa(lp1229
F0.14285714285714285
aaa(lp1230
(lp1231
I1009
aI4
aI1767
aI0
aa(lp1232
I0
aI0
aI0
aI0
aI0
aI0
aI0
aI0
aI0
aI0
aa(lp1233
F0.14285714285714285
aaa(lp1234
(lp1235
I2204
aI4
aI2205
aI0
aa(lp1236
I0
aI0
aI0
aI0
aI0
aI0
aI0
aI0
aI0
aI0
aa(lp1237
F0.14285714285714285
aaa(lp1238
(lp1239
I655
aI4
aI1917
aI0
aa(lp1240
I0
aI0
aI0
aI0
aI0
aI0
aI0
aI0
aI0
aI0
aa(lp1241
F0.14285714285714285
aaa(lp1242
(lp1243
I981
aI4
aI72
aI0
aa(lp1244
I0
aI0
aI0
aI0
aI0
aI0
aI0
aI0
aI0
aI0
aa(lp1245
F0.14285714285714285
aaa(lp1246
(lp1247
I91
aI4
aI2211
aI0
aa(lp1248
I0
aI0
aI0
aI0
aI0
aI0
aI0
aI0
aI0
aI0
aa(lp1249
F0.14285714285714285
aaa(lp1250
(lp1251
I1438
aI4
aI2214
aI0
aa(lp1252
I0
aI0
aI0
aI0
aI0
aI0
aI0
aI0
aI0
aI0
aa(lp1253
F0.14285714285714285
aaa(lp1254
(lp1255
I1627
aI4
aI1061
aI0
aa(lp1256
I0
aI0
aI0
aI0
aI0
aI0
aI0
aI0
aI0
aI0
aa(lp1257
F0.14285714285714285
aaa(lp1258
(lp1259
I2223
aI4
aI2084
aI0
aa(lp1260
I0
aI0
aI0
aI0
aI0
aI0
aI0
aI0
aI0
aI0
aa(lp1261
F0.14285714285714285
aaa(lp1262
(lp1263
I2225
aI4
aI2226
aI0
aa(lp1264
I0
aI0
aI0
aI0
aI0
aI0
aI0
aI0
aI0
aI0
aa(lp1265
F0.14285714285714285
aaa(lp1266
(lp1267
I779
aI4
aI754
aI0
aa(lp1268
I0
aI0
aI0
aI0
aI0
aI0
aI0
aI0
aI0
aI0
aa(lp1269
F0.14285714285714285
aaa(lp1270
(lp1271
I332
aI4
aI2233
aI0
aa(lp1272
I0
aI0
aI0
aI0
aI0
aI0
aI0
aI0
aI0
aI0
aa(lp1273
F0.14285714285714285
aaa(lp1274
(lp1275
I2196
aI4
aI2247
aI0
aa(lp1276
I0
aI0
aI0
aI0
aI0
aI0
aI0
aI0
aI0
aI0
aa(lp1277
F0.14285714285714285
aaa(lp1278
(lp1279
I1929
aI4
aI2251
aI0
aa(lp1280
I0
aI0
aI0
aI0
aI0
aI0
aI0
aI0
aI0
aI0
aa(lp1281
F0.14285714285714285
aaa(lp1282
(lp1283
I2255
aI4
aI2256
aI0
aa(lp1284
I0
aI0
aI0
aI0
aI0
aI0
aI0
aI0
aI0
aI0
aa(lp1285
F0.14285714285714285
aaa(lp1286
(lp1287
I2099
aI4
aI2268
aI0
aa(lp1288
I0
aI0
aI0
aI0
aI0
aI0
aI0
aI0
aI0
aI0
aa(lp1289
F0.14285714285714285
aaa(lp1290
(lp1291
I2280
aI4
aI2281
aI0
aa(lp1292
I0
aI0
aI0
aI0
aI0
aI0
aI0
aI0
aI0
aI0
aa(lp1293
F0.14285714285714285
aaa(lp1294
(lp1295
I1181
aI4
aI762
aI0
aa(lp1296
I0
aI0
aI0
aI0
aI0
aI0
aI0
aI0
aI0
aI0
aa(lp1297
F0.14285714285714285
aaa(lp1298
(lp1299
I1673
aI4
aI535
aI0
aa(lp1300
I0
aI0
aI0
aI0
aI0
aI0
aI0
aI0
aI0
aI0
aa(lp1301
F0.14285714285714285
aaa(lp1302
(lp1303
I2291
aI4
aI2292
aI0
aa(lp1304
I0
aI0
aI0
aI0
aI0
aI0
aI0
aI0
aI0
aI0
aa(lp1305
F0.14285714285714285
aaa(lp1306
(lp1307
I1342
aI4
aI977
aI0
aa(lp1308
I0
aI0
aI0
aI0
aI0
aI0
aI0
aI0
aI0
aI0
aa(lp1309
F0.14285714285714285
aaa(lp1310
(lp1311
I1263
aI4
aI931
aI0
aa(lp1312
I0
aI0
aI0
aI0
aI0
aI0
aI0
aI0
aI0
aI0
aa(lp1313
F0.14285714285714285
aaa(lp1314
(lp1315
I417
aI4
aI1043
aI0
aa(lp1316
I0
aI0
aI0
aI0
aI0
aI0
aI0
aI0
aI0
aI0
aa(lp1317
F0.14285714285714285
aaa(lp1318
(lp1319
I734
aI4
aI2109
aI0
aa(lp1320
I0
aI0
aI0
aI0
aI0
aI0
aI0
aI0
aI0
aI0
aa(lp1321
F0.14285714285714285
aaa(lp1322
(lp1323
I923
aI4
aI2306
aI0
aa(lp1324
I0
aI0
aI0
aI0
aI0
aI0
aI0
aI0
aI0
aI0
aa(lp1325
F0.14285714285714285
aaa(lp1326
(lp1327
I1850
aI4
aI1464
aI0
aa(lp1328
I0
aI0
aI0
aI0
aI0
aI0
aI0
aI0
aI0
aI0
aa(lp1329
F0.14285714285714285
aaa(lp1330
(lp1331
I2228
aI4
aI2313
aI0
aa(lp1332
I0
aI0
aI0
aI0
aI0
aI0
aI0
aI0
aI0
aI0
aa(lp1333
F0.14285714285714285
aaa(lp1334
(lp1335
I730
aI4
aI1439
aI0
aa(lp1336
I0
aI0
aI0
aI0
aI0
aI0
aI0
aI0
aI0
aI0
aa(lp1337
F0.14285714285714285
aaa(lp1338
(lp1339
I2319
aI4
aI2156
aI0
aa(lp1340
I0
aI0
aI0
aI0
aI0
aI0
aI0
aI0
aI0
aI0
aa(lp1341
F0.14285714285714285
aaa(lp1342
(lp1343
I827
aI4
aI2324
aI0
aa(lp1344
I0
aI0
aI0
aI0
aI0
aI0
aI0
aI0
aI0
aI0
aa(lp1345
F0.14285714285714285
aaa(lp1346
(lp1347
I1872
aI4
aI179
aI0
aa(lp1348
I0
aI0
aI0
aI0
aI0
aI0
aI0
aI0
aI0
aI0
aa(lp1349
F0.14285714285714285
aaa(lp1350
(lp1351
I2332
aI4
aI2333
aI0
aa(lp1352
I0
aI0
aI0
aI0
aI0
aI0
aI0
aI0
aI0
aI0
aa(lp1353
F0.14285714285714285
aaa(lp1354
(lp1355
I782
aI4
aI2090
aI0
aa(lp1356
I0
aI0
aI0
aI0
aI0
aI0
aI0
aI0
aI0
aI0
aa(lp1357
F0.14285714285714285
aaa(lp1358
(lp1359
I1052
aI4
aI1848
aI0
aa(lp1360
I0
aI0
aI0
aI0
aI0
aI0
aI0
aI0
aI0
aI0
aa(lp1361
F0.14285714285714285
aaa(lp1362
(lp1363
I2338
aI4
aI760
aI0
aa(lp1364
I0
aI0
aI0
aI0
aI0
aI0
aI0
aI0
aI0
aI0
aa(lp1365
F0.14285714285714285
aaa(lp1366
(lp1367
I790
aI4
aI1868
aI0
aa(lp1368
I0
aI0
aI0
aI0
aI0
aI0
aI0
aI0
aI0
aI0
aa(lp1369
F0.14285714285714285
aaa(lp1370
(lp1371
I2346
aI4
aI387
aI0
aa(lp1372
I0
aI0
aI0
aI0
aI0
aI0
aI0
aI0
aI0
aI0
aa(lp1373
F0.14285714285714285
aaa(lp1374
(lp1375
I2190
aI4
aI2352
aI0
aa(lp1376
I0
aI0
aI0
aI0
aI0
aI0
aI0
aI0
aI0
aI0
aa(lp1377
F0.14285714285714285
aaa(lp1378
(lp1379
I133
aI4
aI1661
aI0
aa(lp1380
I0
aI0
aI0
aI0
aI0
aI0
aI0
aI0
aI0
aI0
aa(lp1381
F0.14285714285714285
aaa(lp1382
(lp1383
I2358
aI4
aI2359
aI0
aa(lp1384
I0
aI0
aI0
aI0
aI0
aI0
aI0
aI0
aI0
aI0
aa(lp1385
F0.14285714285714285
aaa(lp1386
(lp1387
I389
aI4
aI2362
aI0
aa(lp1388
I0
aI0
aI0
aI0
aI0
aI0
aI0
aI0
aI0
aI0
aa(lp1389
F0.14285714285714285
aaa(lp1390
(lp1391
I2366
aI4
aI718
aI0
aa(lp1392
I0
aI0
aI0
aI0
aI0
aI0
aI0
aI0
aI0
aI0
aa(lp1393
F0.14285714285714285
aaa(lp1394
(lp1395
I2370
aI4
aI545
aI0
aa(lp1396
I0
aI0
aI0
aI0
aI0
aI0
aI0
aI0
aI0
aI0
aa(lp1397
F0.14285714285714285
aaa(lp1398
(lp1399
I277
aI4
aI1802
aI0
aa(lp1400
I0
aI0
aI0
aI0
aI0
aI0
aI0
aI0
aI0
aI0
aa(lp1401
F0.14285714285714285
aaa(lp1402
(lp1403
I962
aI4
aI2375
aI0
aa(lp1404
I0
aI0
aI0
aI0
aI0
aI0
aI0
aI0
aI0
aI0
aa(lp1405
F0.14285714285714285
aaa(lp1406
(lp1407
I1529
aI4
aI671
aI0
aa(lp1408
I0
aI0
aI0
aI0
aI0
aI0
aI0
aI0
aI0
aI0
aa(lp1409
F0.14285714285714285
aaa(lp1410
(lp1411
I1547
aI4
aI2387
aI0
aa(lp1412
I0
aI0
aI0
aI0
aI0
aI0
aI0
aI0
aI0
aI0
aa(lp1413
F0.14285714285714285
aaa(lp1414
(lp1415
I1559
aI4
aI1242
aI0
aa(lp1416
I0
aI0
aI0
aI0
aI0
aI0
aI0
aI0
aI0
aI0
aa(lp1417
F0.14285714285714285
aaa(lp1418
(lp1419
I2392
aI4
aI2393
aI0
aa(lp1420
I0
aI0
aI0
aI0
aI0
aI0
aI0
aI0
aI0
aI0
aa(lp1421
F0.14285714285714285
aaa(lp1422
(lp1423
I1243
aI4
aI2286
aI0
aa(lp1424
I0
aI0
aI0
aI0
aI0
aI0
aI0
aI0
aI0
aI0
aa(lp1425
F0.14285714285714285
aaa(lp1426
(lp1427
I764
aI4
aI2166
aI0
aa(lp1428
I0
aI0
aI0
aI0
aI0
aI0
aI0
aI0
aI0
aI0
aa(lp1429
F0.14285714285714285
aaa(lp1430
(lp1431
I2402
aI4
aI1286
aI0
aa(lp1432
I0
aI0
aI0
aI0
aI0
aI0
aI0
aI0
aI0
aI0
aa(lp1433
F0.14285714285714285
aaa(lp1434
(lp1435
I360
aI4
aI1084
aI0
aa(lp1436
I0
aI0
aI0
aI0
aI0
aI0
aI0
aI0
aI0
aI0
aa(lp1437
F0.14285714285714285
aaa(lp1438
(lp1439
I399
aI4
aI2410
aI0
aa(lp1440
I0
aI0
aI0
aI0
aI0
aI0
aI0
aI0
aI0
aI0
aa(lp1441
F0.14285714285714285
aaa(lp1442
(lp1443
I2413
aI4
aI2414
aI0
aa(lp1444
I0
aI0
aI0
aI0
aI0
aI0
aI0
aI0
aI0
aI0
aa(lp1445
F0.14285714285714285
aaa(lp1446
(lp1447
I2418
aI4
aI2093
aI0
aa(lp1448
I0
aI0
aI0
aI0
aI0
aI0
aI0
aI0
aI0
aI0
aa(lp1449
F0.14285714285714285
aaa(lp1450
(lp1451
I967
aI4
aI1891
aI0
aa(lp1452
I0
aI0
aI0
aI0
aI0
aI0
aI0
aI0
aI0
aI0
aa(lp1453
F0.14285714285714285
aaa(lp1454
(lp1455
I363
aI4
aI2427
aI0
aa(lp1456
I0
aI0
aI0
aI0
aI0
aI0
aI0
aI0
aI0
aI0
aa(lp1457
F0.14285714285714285
aaa(lp1458
(lp1459
I2431
aI4
aI690
aI0
aa(lp1460
I0
aI0
aI0
aI0
aI0
aI0
aI0
aI0
aI0
aI0
aa(lp1461
F0.14285714285714285
aaa(lp1462
(lp1463
I1545
aI4
aI1776
aI0
aa(lp1464
I0
aI0
aI0
aI0
aI0
aI0
aI0
aI0
aI0
aI0
aa(lp1465
F0.14285714285714285
aaa(lp1466
(lp1467
I802
aI4
aI1080
aI0
aa(lp1468
I0
aI0
aI0
aI0
aI0
aI0
aI0
aI0
aI0
aI0
aa(lp1469
F0.14285714285714285
aaa(lp1470
(lp1471
I2317
aI4
aI2446
aI0
aa(lp1472
I0
aI0
aI0
aI0
aI0
aI0
aI0
aI0
aI0
aI0
aa(lp1473
F0.14285714285714285
aaa(lp1474
(lp1475
I642
aI4
aI2449
aI0
aa(lp1476
I0
aI0
aI0
aI0
aI0
aI0
aI0
aI0
aI0
aI0
aa(lp1477
F0.14285714285714285
aaa(lp1478
(lp1479
I143
aI4
aI2452
aI0
aa(lp1480
I0
aI0
aI0
aI0
aI0
aI0
aI0
aI0
aI0
aI0
aa(lp1481
F0.14285714285714285
aaa(lp1482
(lp1483
I2195
aI4
aI766
aI0
aa(lp1484
I0
aI0
aI0
aI0
aI0
aI0
aI0
aI0
aI0
aI0
aa(lp1485
F0.14285714285714285
aaa(lp1486
(lp1487
I1388
aI4
aI976
aI0
aa(lp1488
I0
aI0
aI0
aI0
aI0
aI0
aI0
aI0
aI0
aI0
aa(lp1489
F0.14285714285714285
aaa(lp1490
(lp1491
I1379
aI4
aI2434
aI0
aa(lp1492
I0
aI0
aI0
aI0
aI0
aI0
aI0
aI0
aI0
aI0
aa(lp1493
F0.14285714285714285
aaa(lp1494
(lp1495
I1722
aI4
aI1804
aI0
aa(lp1496
I0
aI0
aI0
aI0
aI0
aI0
aI0
aI0
aI0
aI0
aa(lp1497
F0.14285714285714285
aaa(lp1498
(lp1499
I155
aI4
aI874
aI0
aa(lp1500
I0
aI0
aI0
aI0
aI0
aI0
aI0
aI0
aI0
aI0
aa(lp1501
F0.14285714285714285
aaa(lp1502
(lp1503
I1713
aI4
aI2480
aI0
aa(lp1504
I0
aI0
aI0
aI0
aI0
aI0
aI0
aI0
aI0
aI0
aa(lp1505
F0.14285714285714285
aaa(lp1506
(lp1507
I1090
aI4
aI2448
aI0
aa(lp1508
I0
aI0
aI0
aI0
aI0
aI0
aI0
aI0
aI0
aI0
aa(lp1509
F0.14285714285714285
aaa(lp1510
(lp1511
I1905
aI4
aI1544
aI0
aa(lp1512
I0
aI0
aI0
aI0
aI0
aI0
aI0
aI0
aI0
aI0
aa(lp1513
F0.14285714285714285
aaa(lp1514
(lp1515
I792
aI4
aI2489
aI0
aa(lp1516
I0
aI0
aI0
aI0
aI0
aI0
aI0
aI0
aI0
aI0
aa(lp1517
F0.14285714285714285
aaa(lp1518
(lp1519
I3
aI4
aI1883
aI0
aa(lp1520
I0
aI0
aI0
aI0
aI0
aI0
aI0
aI0
aI0
aI0
aa(lp1521
F0.14285714285714285
aaa(lp1522
(lp1523
I71
aI4
aI1670
aI0
aa(lp1524
I0
aI0
aI0
aI0
aI0
aI0
aI0
aI0
aI0
aI0
aa(lp1525
F0.14285714285714285
aaa(lp1526
(lp1527
I2133
aI4
aI2285
aI0
aa(lp1528
I0
aI0
aI0
aI0
aI0
aI0
aI0
aI0
aI0
aI0
aa(lp1529
F0.14285714285714285
aaa(lp1530
(lp1531
I2503
aI4
aI1466
aI0
aa(lp1532
I0
aI0
aI0
aI0
aI0
aI0
aI0
aI0
aI0
aI0
aa(lp1533
F0.14285714285714285
aaa(lp1534
(lp1535
I1051
aI4
aI821
aI0
aa(lp1536
I0
aI0
aI0
aI0
aI0
aI0
aI0
aI0
aI0
aI0
aa(lp1537
F0.14285714285714285
aaa(lp1538
(lp1539
I2509
aI4
aI1803
aI0
aa(lp1540
I0
aI0
aI0
aI0
aI0
aI0
aI0
aI0
aI0
aI0
aa(lp1541
F0.14285714285714285
aaa(lp1542
(lp1543
I2512
aI4
aI2513
aI0
aa(lp1544
I0
aI0
aI0
aI0
aI0
aI0
aI0
aI0
aI0
aI0
aa(lp1545
F0.14285714285714285
aaa(lp1546
(lp1547
I103
aI4
aI150
aI0
aa(lp1548
I0
aI0
aI0
aI0
aI0
aI0
aI0
aI0
aI0
aI0
aa(lp1549
F0.14285714285714285
aaa(lp1550
(lp1551
I1300
aI4
aI398
aI0
aa(lp1552
I0
aI0
aI0
aI0
aI0
aI0
aI0
aI0
aI0
aI0
aa(lp1553
F0.14285714285714285
aaa(lp1554
(lp1555
I2522
aI4
aI1234
aI0
aa(lp1556
I0
aI0
aI0
aI0
aI0
aI0
aI0
aI0
aI0
aI0
aa(lp1557
F0.14285714285714285
aaa(lp1558
(lp1559
I2283
aI4
aI811
aI0
aa(lp1560
I0
aI0
aI0
aI0
aI0
aI0
aI0
aI0
aI0
aI0
aa(lp1561
F0.14285714285714285
aaa(lp1562
(lp1563
I1214
aI4
aI1287
aI0
aa(lp1564
I0
aI0
aI0
aI0
aI0
aI0
aI0
aI0
aI0
aI0
aa(lp1565
F0.14285714285714285
aaa(lp1566
(lp1567
I2529
aI4
aI2530
aI0
aa(lp1568
I0
aI0
aI0
aI0
aI0
aI0
aI0
aI0
aI0
aI0
aa(lp1569
F0.14285714285714285
aaa(lp1570
(lp1571
I421
aI4
aI2368
aI0
aa(lp1572
I0
aI0
aI0
aI0
aI0
aI0
aI0
aI0
aI0
aI0
aa(lp1573
F0.14285714285714285
aaa(lp1574
(lp1575
I1112
aI4
aI2536
aI0
aa(lp1576
I0
aI0
aI0
aI0
aI0
aI0
aI0
aI0
aI0
aI0
aa(lp1577
F0.14285714285714285
aaa(lp1578
(lp1579
I463
aI4
aI1197
aI0
aa(lp1580
I0
aI0
aI0
aI0
aI0
aI0
aI0
aI0
aI0
aI0
aa(lp1581
F0.14285714285714285
aaa(lp1582
(lp1583
I612
aI4
aI678
aI0
aa(lp1584
I0
aI0
aI0
aI0
aI0
aI0
aI0
aI0
aI0
aI0
aa(lp1585
F0.14285714285714285
aaa(lp1586
(lp1587
I2326
aI4
aI2151
aI0
aa(lp1588
I0
aI0
aI0
aI0
aI0
aI0
aI0
aI0
aI0
aI0
aa(lp1589
F0.14285714285714285
aaa(lp1590
(lp1591
I2127
aI4
aI2499
aI0
aa(lp1592
I0
aI0
aI0
aI0
aI0
aI0
aI0
aI0
aI0
aI0
aa(lp1593
F0.14285714285714285
aaa(lp1594
(lp1595
I1993
aI4
aI525
aI0
aa(lp1596
I0
aI0
aI0
aI0
aI0
aI0
aI0
aI0
aI0
aI0
aa(lp1597
F0.14285714285714285
aaa(lp1598
(lp1599
I2560
aI4
aI1348
aI0
aa(lp1600
I0
aI0
aI0
aI0
aI0
aI0
aI0
aI0
aI0
aI0
aa(lp1601
F0.14285714285714285
aaa(lp1602
(lp1603
I2515
aI4
aI2067
aI0
aa(lp1604
I0
aI0
aI0
aI0
aI0
aI0
aI0
aI0
aI0
aI0
aa(lp1605
F0.14285714285714285
aaa(lp1606
(lp1607
I2348
aI4
aI2568
aI0
aa(lp1608
I0
aI0
aI0
aI0
aI0
aI0
aI0
aI0
aI0
aI0
aa(lp1609
F0.14285714285714285
aaa(lp1610
(lp1611
I481
aI4
aI946
aI0
aa(lp1612
I0
aI0
aI0
aI0
aI0
aI0
aI0
aI0
aI0
aI0
aa(lp1613
F0.14285714285714285
aaa(lp1614
(lp1615
I2572
aI4
aI2573
aI0
aa(lp1616
I0
aI0
aI0
aI0
aI0
aI0
aI0
aI0
aI0
aI0
aa(lp1617
F0.14285714285714285
aaa(lp1618
(lp1619
I670
aI4
aI1611
aI0
aa(lp1620
I0
aI0
aI0
aI0
aI0
aI0
aI0
aI0
aI0
aI0
aa(lp1621
F0.14285714285714285
aaa(lp1622
(lp1623
I1182
aI4
aI246
aI0
aa(lp1624
I0
aI0
aI0
aI0
aI0
aI0
aI0
aI0
aI0
aI0
aa(lp1625
F0.14285714285714285
aaa(lp1626
(lp1627
I2579
aI4
aI1863
aI0
aa(lp1628
I0
aI0
aI0
aI0
aI0
aI0
aI0
aI0
aI0
aI0
aa(lp1629
F0.14285714285714285
aaa(lp1630
(lp1631
I656
aI4
aI1893
aI0
aa(lp1632
I0
aI0
aI0
aI0
aI0
aI0
aI0
aI0
aI0
aI0
aa(lp1633
F0.14285714285714285
aaa(lp1634
(lp1635
I1161
aI4
aI165
aI0
aa(lp1636
I0
aI0
aI0
aI0
aI0
aI0
aI0
aI0
aI0
aI0
aa(lp1637
F0.14285714285714285
aaa(lp1638
(lp1639
I2594
aI4
aI2507
aI0
aa(lp1640
I0
aI0
aI0
aI0
aI0
aI0
aI0
aI0
aI0
aI0
aa(lp1641
F0.14285714285714285
aaa(lp1642
(lp1643
I1865
aI4
aI2465
aI0
aa(lp1644
I0
aI0
aI0
aI0
aI0
aI0
aI0
aI0
aI0
aI0
aa(lp1645
F0.14285714285714285
aaa(lp1646
(lp1647
I2597
aI4
aI1897
aI0
aa(lp1648
I0
aI0
aI0
aI0
aI0
aI0
aI0
aI0
aI0
aI0
aa(lp1649
F0.14285714285714285
aaa(lp1650
(lp1651
I2
aI4
aI803
aI0
aa(lp1652
I0
aI0
aI0
aI0
aI0
aI0
aI0
aI0
aI0
aI0
aa(lp1653
F0.14285714285714285
aaa(lp1654
(lp1655
I2271
aI4
aI2605
aI0
aa(lp1656
I0
aI0
aI0
aI0
aI0
aI0
aI0
aI0
aI0
aI0
aa(lp1657
F0.14285714285714285
aaa(lp1658
(lp1659
I902
aI4
aI534
aI0
aa(lp1660
I0
aI0
aI0
aI0
aI0
aI0
aI0
aI0
aI0
aI0
aa(lp1661
F0.14285714285714285
aaa(lp1662
(lp1663
I2608
aI4
aI2609
aI0
aa(lp1664
I0
aI0
aI0
aI0
aI0
aI0
aI0
aI0
aI0
aI0
aa(lp1665
F0.14285714285714285
aaa(lp1666
(lp1667
I1047
aI4
aI2437
aI0
aa(lp1668
I0
aI0
aI0
aI0
aI0
aI0
aI0
aI0
aI0
aI0
aa(lp1669
F0.14285714285714285
aaa(lp1670
(lp1671
I2614
aI4
aI2548
aI0
aa(lp1672
I0
aI0
aI0
aI0
aI0
aI0
aI0
aI0
aI0
aI0
aa(lp1673
F0.14285714285714285
aaa(lp1674
(lp1675
I195
aI4
aI2423
aI0
aa(lp1676
I0
aI0
aI0
aI0
aI0
aI0
aI0
aI0
aI0
aI0
aa(lp1677
F0.14285714285714285
aaa(lp1678
(lp1679
I1046
aI4
aI657
aI0
aa(lp1680
I0
aI0
aI0
aI0
aI0
aI0
aI0
aI0
aI0
aI0
aa(lp1681
F0.14285714285714285
aaa(lp1682
(lp1683
I1720
aI4
aI2621
aI0
aa(lp1684
I0
aI0
aI0
aI0
aI0
aI0
aI0
aI0
aI0
aI0
aa(lp1685
F0.14285714285714285
aaa(lp1686
(lp1687
I1137
aI4
aI2623
aI0
aa(lp1688
I0
aI0
aI0
aI0
aI0
aI0
aI0
aI0
aI0
aI0
aa(lp1689
F0.14285714285714285
aaa(lp1690
(lp1691
I1485
aI4
aI82
aI0
aa(lp1692
I0
aI0
aI0
aI0
aI0
aI0
aI0
aI0
aI0
aI0
aa(lp1693
F0.14285714285714285
aaa(lp1694
(lp1695
I2454
aI4
aI2425
aI0
aa(lp1696
I0
aI0
aI0
aI0
aI0
aI0
aI0
aI0
aI0
aI0
aa(lp1697
F0.14285714285714285
aaa(lp1698
(lp1699
I2627
aI4
aI2178
aI0
aa(lp1700
I0
aI0
aI0
aI0
aI0
aI0
aI0
aI0
aI0
aI0
aa(lp1701
F0.14285714285714285
aaa(lp1702
(lp1703
I1601
aI4
aI2630
aI0
aa(lp1704
I0
aI0
aI0
aI0
aI0
aI0
aI0
aI0
aI0
aI0
aa(lp1705
F0.14285714285714285
aaa(lp1706
(lp1707
I2639
aI4
aI2350
aI0
aa(lp1708
I0
aI0
aI0
aI0
aI0
aI0
aI0
aI0
aI0
aI0
aa(lp1709
F0.14285714285714285
aaa(lp1710
(lp1711
I2644
aI4
aI1895
aI0
aa(lp1712
I0
aI0
aI0
aI0
aI0
aI0
aI0
aI0
aI0
aI0
aa(lp1713
F0.14285714285714285
aaa(lp1714
(lp1715
I634
aI4
aI530
aI0
aa(lp1716
I0
aI0
aI0
aI0
aI0
aI0
aI0
aI0
aI0
aI0
aa(lp1717
F0.14285714285714285
aaa(lp1718
(lp1719
I2650
aI4
aI2651
aI0
aa(lp1720
I0
aI0
aI0
aI0
aI0
aI0
aI0
aI0
aI0
aI0
aa(lp1721
F0.14285714285714285
aaa(lp1722
(lp1723
I2656
aI4
aI2657
aI0
aa(lp1724
I0
aI0
aI0
aI0
aI0
aI0
aI0
aI0
aI0
aI0
aa(lp1725
F0.14285714285714285
aaa(lp1726
(lp1727
I2355
aI4
aI1579
aI0
aa(lp1728
I0
aI0
aI0
aI0
aI0
aI0
aI0
aI0
aI0
aI0
aa(lp1729
F0.14285714285714285
aaa(lp1730
(lp1731
I459
aI4
aI2662
aI0
aa(lp1732
I0
aI0
aI0
aI0
aI0
aI0
aI0
aI0
aI0
aI0
aa(lp1733
F0.14285714285714285
aaa(lp1734
(lp1735
I347
aI4
aI15
aI0
aa(lp1736
I0
aI0
aI0
aI0
aI0
aI0
aI0
aI0
aI0
aI0
aa(lp1737
F0.14285714285714285
aaa(lp1738
(lp1739
I2078
aI4
aI471
aI0
aa(lp1740
I0
aI0
aI0
aI0
aI0
aI0
aI0
aI0
aI0
aI0
aa(lp1741
F0.14285714285714285
aaa(lp1742
(lp1743
I2670
aI4
aI1923
aI0
aa(lp1744
I0
aI0
aI0
aI0
aI0
aI0
aI0
aI0
aI0
aI0
aa(lp1745
F0.14285714285714285
aaa(lp1746
(lp1747
I11
aI4
aI2672
aI0
aa(lp1748
I0
aI0
aI0
aI0
aI0
aI0
aI0
aI0
aI0
aI0
aa(lp1749
F0.14285714285714285
aaa(lp1750
(lp1751
I1456
aI4
aI2675
aI0
aa(lp1752
I0
aI0
aI0
aI0
aI0
aI0
aI0
aI0
aI0
aI0
aa(lp1753
F0.14285714285714285
aaa(lp1754
(lp1755
I241
aI4
aI2678
aI0
aa(lp1756
I0
aI0
aI0
aI0
aI0
aI0
aI0
aI0
aI0
aI0
aa(lp1757
F0.14285714285714285
aaa(lp1758
(lp1759
I539
aI4
aI887
aI0
aa(lp1760
I0
aI0
aI0
aI0
aI0
aI0
aI0
aI0
aI0
aI0
aa(lp1761
F0.14285714285714285
aaa(lp1762
(lp1763
I1902
aI4
aI1424
aI0
aa(lp1764
I0
aI0
aI0
aI0
aI0
aI0
aI0
aI0
aI0
aI0
aa(lp1765
F0.14285714285714285
aaa(lp1766
(lp1767
I1842
aI4
aI1924
aI0
aa(lp1768
I0
aI0
aI0
aI0
aI0
aI0
aI0
aI0
aI0
aI0
aa(lp1769
F0.14285714285714285
aaa(lp1770
(lp1771
I172
aI4
aI337
aI0
aa(lp1772
I0
aI0
aI0
aI0
aI0
aI0
aI0
aI0
aI0
aI0
aa(lp1773
F0.14285714285714285
aaa(lp1774
(lp1775
I2691
aI4
aI945
aI0
aa(lp1776
I0
aI0
aI0
aI0
aI0
aI0
aI0
aI0
aI0
aI0
aa(lp1777
F0.14285714285714285
aaa(lp1778
(lp1779
I884
aI4
aI1213
aI0
aa(lp1780
I0
aI0
aI0
aI0
aI0
aI0
aI0
aI0
aI0
aI0
aa(lp1781
F0.14285714285714285
aaa(lp1782
(lp1783
I1671
aI4
aI1797
aI0
aa(lp1784
I0
aI0
aI0
aI0
aI0
aI0
aI0
aI0
aI0
aI0
aa(lp1785
F0.14285714285714285
aaa(lp1786
(lp1787
I1027
aI4
aI1777
aI0
aa(lp1788
I0
aI0
aI0
aI0
aI0
aI0
aI0
aI0
aI0
aI0
aa(lp1789
F0.14285714285714285
aaa(lp1790
(lp1791
I1739
aI4
aI325
aI0
aa(lp1792
I0
aI0
aI0
aI0
aI0
aI0
aI0
aI0
aI0
aI0
aa(lp1793
F0.14285714285714285
aaa(lp1794
(lp1795
I1496
aI4
aI424
aI0
aa(lp1796
I0
aI0
aI0
aI0
aI0
aI0
aI0
aI0
aI0
aI0
aa(lp1797
F0.14285714285714285
aaa(lp1798
(lp1799
I2478
aI4
aI2707
aI0
aa(lp1800
I0
aI0
aI0
aI0
aI0
aI0
aI0
aI0
aI0
aI0
aa(lp1801
F0.14285714285714285
aaa(lp1802
(lp1803
I1744
aI4
aI1768
aI0
aa(lp1804
I0
aI0
aI0
aI0
aI0
aI0
aI0
aI0
aI0
aI0
aa(lp1805
F0.14285714285714285
aaa(lp1806
(lp1807
I867
aI4
aI1044
aI0
aa(lp1808
I0
aI0
aI0
aI0
aI0
aI0
aI0
aI0
aI0
aI0
aa(lp1809
F0.14285714285714285
aaa(lp1810
(lp1811
I936
aI4
aI2714
aI0
aa(lp1812
I0
aI0
aI0
aI0
aI0
aI0
aI0
aI0
aI0
aI0
aa(lp1813
F0.14285714285714285
aaa(lp1814
(lp1815
I2243
aI4
aI1120
aI0
aa(lp1816
I0
aI0
aI0
aI0
aI0
aI0
aI0
aI0
aI0
aI0
aa(lp1817
F0.14285714285714285
aaa(lp1818
(lp1819
I1963
aI4
aI2721
aI0
aa(lp1820
I0
aI0
aI0
aI0
aI0
aI0
aI0
aI0
aI0
aI0
aa(lp1821
F0.14285714285714285
aaa(lp1822
(lp1823
I1406
aI4
aI1501
aI0
aa(lp1824
I0
aI0
aI0
aI0
aI0
aI0
aI0
aI0
aI0
aI0
aa(lp1825
F0.14285714285714285
aaa(lp1826
(lp1827
I383
aI4
aI2724
aI0
aa(lp1828
I0
aI0
aI0
aI0
aI0
aI0
aI0
aI0
aI0
aI0
aa(lp1829
F0.14285714285714285
aaa(lp1830
(lp1831
I2331
aI4
aI2049
aI0
aa(lp1832
I0
aI0
aI0
aI0
aI0
aI0
aI0
aI0
aI0
aI0
aa(lp1833
F0.14285714285714285
aaa(lp1834
(lp1835
I2116
aI4
aI2329
aI0
aa(lp1836
I0
aI0
aI0
aI0
aI0
aI0
aI0
aI0
aI0
aI0
aa(lp1837
F0.14285714285714285
aaa(lp1838
(lp1839
I219
aI4
aI318
aI0
aa(lp1840
I0
aI0
aI0
aI0
aI0
aI0
aI0
aI0
aI0
aI0
aa(lp1841
F0.14285714285714285
aaa(lp1842
(lp1843
I2275
aI4
aI2581
aI0
aa(lp1844
I0
aI0
aI0
aI0
aI0
aI0
aI0
aI0
aI0
aI0
aa(lp1845
F0.14285714285714285
aaa(lp1846
(lp1847
I221
aI4
aI1626
aI0
aa(lp1848
I0
aI0
aI0
aI0
aI0
aI0
aI0
aI0
aI0
aI0
aa(lp1849
F0.14285714285714285
aaa(lp1850
(lp1851
I1734
aI4
aI703
aI0
aa(lp1852
I0
aI0
aI0
aI0
aI0
aI0
aI0
aI0
aI0
aI0
aa(lp1853
F0.14285714285714285
aaa(lp1854
(lp1855
I1280
aI4
aI833
aI0
aa(lp1856
I0
aI0
aI0
aI0
aI0
aI0
aI0
aI0
aI0
aI0
aa(lp1857
F0.14285714285714285
aaa(lp1858
(lp1859
I2059
aI4
aI2744
aI0
aa(lp1860
I0
aI0
aI0
aI0
aI0
aI0
aI0
aI0
aI0
aI0
aa(lp1861
F0.14285714285714285
aaa(lp1862
(lp1863
I2746
aI4
aI1128
aI0
aa(lp1864
I0
aI0
aI0
aI0
aI0
aI0
aI0
aI0
aI0
aI0
aa(lp1865
F0.14285714285714285
aaa(lp1866
(lp1867
I2467
aI4
aI2749
aI0
aa(lp1868
I0
aI0
aI0
aI0
aI0
aI0
aI0
aI0
aI0
aI0
aa(lp1869
F0.14285714285714285
aaa(lp1870
(lp1871
I338
aI4
aI2447
aI0
aa(lp1872
I0
aI0
aI0
aI0
aI0
aI0
aI0
aI0
aI0
aI0
aa(lp1873
F0.14285714285714285
aaa(lp1874
(lp1875
I2571
aI4
aI1423
aI0
aa(lp1876
I0
aI0
aI0
aI0
aI0
aI0
aI0
aI0
aI0
aI0
aa(lp1877
F0.14285714285714285
aaa(lp1878
(lp1879
I2250
aI4
aI1609
aI0
aa(lp1880
I0
aI0
aI0
aI0
aI0
aI0
aI0
aI0
aI0
aI0
aa(lp1881
F0.14285714285714285
aaa(lp1882
(lp1883
I1511
aI4
aI1866
aI0
aa(lp1884
I0
aI0
aI0
aI0
aI0
aI0
aI0
aI0
aI0
aI0
aa(lp1885
F0.14285714285714285
aaa(lp1886
(lp1887
I1078
aI4
aI2763
aI0
aa(lp1888
I0
aI0
aI0
aI0
aI0
aI0
aI0
aI0
aI0
aI0
aa(lp1889
F0.14285714285714285
aaa(lp1890
(lp1891
I48
aI4
aI531
aI0
aa(lp1892
I0
aI0
aI0
aI0
aI0
aI0
aI0
aI0
aI0
aI0
aa(lp1893
F0.14285714285714285
aaa(lp1894
(lp1895
I1543
aI4
aI2364
aI0
aa(lp1896
I0
aI0
aI0
aI0
aI0
aI0
aI0
aI0
aI0
aI0
aa(lp1897
F0.14285714285714285
aaa(lp1898
(lp1899
I2460
aI4
aI2768
aI0
aa(lp1900
I0
aI0
aI0
aI0
aI0
aI0
aI0
aI0
aI0
aI0
aa(lp1901
F0.14285714285714285
aaa(lp1902
(lp1903
I90
aI4
aI2773
aI0
aa(lp1904
I0
aI0
aI0
aI0
aI0
aI0
aI0
aI0
aI0
aI0
aa(lp1905
F0.14285714285714285
aaa(lp1906
(lp1907
I2567
aI4
aI1864
aI0
aa(lp1908
I0
aI0
aI0
aI0
aI0
aI0
aI0
aI0
aI0
aI0
aa(lp1909
F0.14285714285714285
aaa(lp1910
(lp1911
I991
aI4
aI558
aI0
aa(lp1912
I0
aI0
aI0
aI0
aI0
aI0
aI0
aI0
aI0
aI0
aa(lp1913
F0.14285714285714285
aaa(lp1914
(lp1915
I755
aI4
aI2772
aI0
aa(lp1916
I0
aI0
aI0
aI0
aI0
aI0
aI0
aI0
aI0
aI0
aa(lp1917
F0.14285714285714285
aaa(lp1918
(lp1919
I472
aI4
aI2050
aI0
aa(lp1920
I0
aI0
aI0
aI0
aI0
aI0
aI0
aI0
aI0
aI0
aa(lp1921
F0.14285714285714285
aaa(lp1922
(lp1923
I2525
aI4
aI2792
aI0
aa(lp1924
I0
aI0
aI0
aI0
aI0
aI0
aI0
aI0
aI0
aI0
aa(lp1925
F0.14285714285714285
aaa(lp1926
(lp1927
I832
aI4
aI96
aI0
aa(lp1928
I0
aI0
aI0
aI0
aI0
aI0
aI0
aI0
aI0
aI0
aa(lp1929
F0.14285714285714285
aaa(lp1930
(lp1931
I603
aI4
aI876
aI0
aa(lp1932
I0
aI0
aI0
aI0
aI0
aI0
aI0
aI0
aI0
aI0
aa(lp1933
F0.14285714285714285
aaa(lp1934
(lp1935
I1001
aI4
aI1564
aI0
aa(lp1936
I0
aI0
aI0
aI0
aI0
aI0
aI0
aI0
aI0
aI0
aa(lp1937
F0.14285714285714285
aaa(lp1938
(lp1939
I2010
aI4
aI2551
aI0
aa(lp1940
I0
aI0
aI0
aI0
aI0
aI0
aI0
aI0
aI0
aI0
aa(lp1941
F0.14285714285714285
aaa(lp1942
(lp1943
I996
aI4
aI1882
aI0
aa(lp1944
I0
aI0
aI0
aI0
aI0
aI0
aI0
aI0
aI0
aI0
aa(lp1945
F0.14285714285714285
aaa(lp1946
(lp1947
I1759
aI4
aI2809
aI0
aa(lp1948
I0
aI0
aI0
aI0
aI0
aI0
aI0
aI0
aI0
aI0
aa(lp1949
F0.14285714285714285
aaa(lp1950
(lp1951
I240
aI4
aI312
aI0
aa(lp1952
I0
aI0
aI0
aI0
aI0
aI0
aI0
aI0
aI0
aI0
aa(lp1953
F0.14285714285714285
aaa(lp1954
(lp1955
I2816
aI4
aI1322
aI0
aa(lp1956
I0
aI0
aI0
aI0
aI0
aI0
aI0
aI0
aI0
aI0
aa(lp1957
F0.14285714285714285
aaa(lp1958
(lp1959
I2061
aI4
aI2821
aI0
aa(lp1960
I0
aI0
aI0
aI0
aI0
aI0
aI0
aI0
aI0
aI0
aa(lp1961
F0.14285714285714285
aaa(lp1962
(lp1963
I460
aI4
aI1430
aI0
aa(lp1964
I0
aI0
aI0
aI0
aI0
aI0
aI0
aI0
aI0
aI0
aa(lp1965
F0.14285714285714285
aaa(lp1966
(lp1967
I2176
aI4
aI1146
aI0
aa(lp1968
I0
aI0
aI0
aI0
aI0
aI0
aI0
aI0
aI0
aI0
aa(lp1969
F0.14285714285714285
aaa(lp1970
(lp1971
I81
aI4
aI2112
aI0
aa(lp1972
I0
aI0
aI0
aI0
aI0
aI0
aI0
aI0
aI0
aI0
aa(lp1973
F0.14285714285714285
aaa(lp1974
(lp1975
I2053
aI4
aI2557
aI0
aa(lp1976
I0
aI0
aI0
aI0
aI0
aI0
aI0
aI0
aI0
aI0
aa(lp1977
F0.14285714285714285
aaa(lp1978
(lp1979
I2834
aI4
aI2835
aI0
aa(lp1980
I0
aI0
aI0
aI0
aI0
aI0
aI0
aI0
aI0
aI0
aa(lp1981
F0.14285714285714285
aaa(lp1982
(lp1983
I1546
aI4
aI2213
aI0
aa(lp1984
I0
aI0
aI0
aI0
aI0
aI0
aI0
aI0
aI0
aI0
aa(lp1985
F0.14285714285714285
aaa(lp1986
(lp1987
I366
aI4
aI1919
aI0
aa(lp1988
I0
aI0
aI0
aI0
aI0
aI0
aI0
aI0
aI0
aI0
aa(lp1989
F0.14285714285714285
aaa(lp1990
(lp1991
I194
aI4
aI2071
aI0
aa(lp1992
I0
aI0
aI0
aI0
aI0
aI0
aI0
aI0
aI0
aI0
aa(lp1993
F0.14285714285714285
aaa(lp1994
(lp1995
I2846
aI4
aI1558
aI0
aa(lp1996
I0
aI0
aI0
aI0
aI0
aI0
aI0
aI0
aI0
aI0
aa(lp1997
F0.14285714285714285
aaa(lp1998
(lp1999
I1193
aI4
aI2620
aI0
aa(lp2000
I0
aI0
aI0
aI0
aI0
aI0
aI0
aI0
aI0
aI0
aa(lp2001
F0.14285714285714285
aaa(lp2002
(lp2003
I388
aI4
aI2497
aI0
aa(lp2004
I0
aI0
aI0
aI0
aI0
aI0
aI0
aI0
aI0
aI0
aa(lp2005
F0.14285714285714285
aaa(lp2006
(lp2007
I1727
aI4
aI2782
aI0
aa(lp2008
I0
aI0
aI0
aI0
aI0
aI0
aI0
aI0
aI0
aI0
aa(lp2009
F0.14285714285714285
aaa(lp2010
(lp2011
I397
aI4
aI2856
aI0
aa(lp2012
I0
aI0
aI0
aI0
aI0
aI0
aI0
aI0
aI0
aI0
aa(lp2013
F0.14285714285714285
aaa(lp2014
(lp2015
I2132
aI4
aI1806
aI0
aa(lp2016
I0
aI0
aI0
aI0
aI0
aI0
aI0
aI0
aI0
aI0
aa(lp2017
F0.14285714285714285
aaa(lp2018
(lp2019
I2683
aI4
aI2787
aI0
aa(lp2020
I0
aI0
aI0
aI0
aI0
aI0
aI0
aI0
aI0
aI0
aa(lp2021
F0.14285714285714285
aaa(lp2022
(lp2023
I302
aI4
aI2081
aI0
aa(lp2024
I0
aI0
aI0
aI0
aI0
aI0
aI0
aI0
aI0
aI0
aa(lp2025
F0.14285714285714285
aaa(lp2026
(lp2027
I621
aI4
aI1233
aI0
aa(lp2028
I0
aI0
aI0
aI0
aI0
aI0
aI0
aI0
aI0
aI0
aa(lp2029
F0.14285714285714285
aaa(lp2030
(lp2031
I2534
aI4
aI2263
aI0
aa(lp2032
I0
aI0
aI0
aI0
aI0
aI0
aI0
aI0
aI0
aI0
aa(lp2033
F0.14285714285714285
aaa(lp2034
(lp2035
I391
aI4
aI674
aI0
aa(lp2036
I0
aI0
aI0
aI0
aI0
aI0
aI0
aI0
aI0
aI0
aa(lp2037
F0.14285714285714285
aaa(lp2038
(lp2039
I800
aI4
aI694
aI0
aa(lp2040
I0
aI0
aI0
aI0
aI0
aI0
aI0
aI0
aI0
aI0
aa(lp2041
F0.14285714285714285
aaa(lp2042
(lp2043
I2704
aI4
aI970
aI0
aa(lp2044
I0
aI0
aI0
aI0
aI0
aI0
aI0
aI0
aI0
aI0
aa(lp2045
F0.14285714285714285
aaa(lp2046
(lp2047
I323
aI4
aI2872
aI0
aa(lp2048
I0
aI0
aI0
aI0
aI0
aI0
aI0
aI0
aI0
aI0
aa(lp2049
F0.14285714285714285
aaa(lp2050
(lp2051
I2748
aI4
aI2824
aI0
aa(lp2052
I0
aI0
aI0
aI0
aI0
aI0
aI0
aI0
aI0
aI0
aa(lp2053
F0.14285714285714285
aaa(lp2054
(lp2055
I2072
aI4
aI914
aI0
aa(lp2056
I0
aI0
aI0
aI0
aI0
aI0
aI0
aI0
aI0
aI0
aa(lp2057
F0.14285714285714285
aaa(lp2058
(lp2059
I1749
aI4
aI2881
aI0
aa(lp2060
I0
aI0
aI0
aI0
aI0
aI0
aI0
aI0
aI0
aI0
aa(lp2061
F0.14285714285714285
aaa(lp2062
(lp2063
I326
aI4
aI526
aI0
aa(lp2064
I0
aI0
aI0
aI0
aI0
aI0
aI0
aI0
aI0
aI0
aa(lp2065
F0.14285714285714285
aaa(lp2066
(lp2067
I2474
aI4
aI2887
aI0
aa(lp2068
I0
aI0
aI0
aI0
aI0
aI0
aI0
aI0
aI0
aI0
aa(lp2069
F0.14285714285714285
aaa(lp2070
(lp2071
I2323
aI4
aI1254
aI0
aa(lp2072
I0
aI0
aI0
aI0
aI0
aI0
aI0
aI0
aI0
aI0
aa(lp2073
F0.14285714285714285
aaa(lp2074
(lp2075
I971
aI4
aI2369
aI0
aa(lp2076
I0
aI0
aI0
aI0
aI0
aI0
aI0
aI0
aI0
aI0
aa(lp2077
F0.14285714285714285
aaa(lp2078
(lp2079
I932
aI4
aI2546
aI0
aa(lp2080
I0
aI0
aI0
aI0
aI0
aI0
aI0
aI0
aI0
aI0
aa(lp2081
F0.14285714285714285
aaa(lp2082
(lp2083
I283
aI4
aI648
aI0
aa(lp2084
I0
aI0
aI0
aI0
aI0
aI0
aI0
aI0
aI0
aI0
aa(lp2085
F0.14285714285714285
aaa(lp2086
(lp2087
I611
aI4
aI2904
aI0
aa(lp2088
I0
aI0
aI0
aI0
aI0
aI0
aI0
aI0
aI0
aI0
aa(lp2089
F0.14285714285714285
aaa(lp2090
(lp2091
I836
aI4
aI2098
aI0
aa(lp2092
I0
aI0
aI0
aI0
aI0
aI0
aI0
aI0
aI0
aI0
aa(lp2093
F0.14285714285714285
aaa(lp2094
(lp2095
I579
aI4
aI2259
aI0
aa(lp2096
I0
aI0
aI0
aI0
aI0
aI0
aI0
aI0
aI0
aI0
aa(lp2097
F0.14285714285714285
aaa(lp2098
(lp2099
I2841
aI4
aI185
aI0
aa(lp2100
I0
aI0
aI0
aI0
aI0
aI0
aI0
aI0
aI0
aI0
aa(lp2101
F0.14285714285714285
aaa(lp2102
(lp2103
I2636
aI4
aI2849
aI0
aa(lp2104
I0
aI0
aI0
aI0
aI0
aI0
aI0
aI0
aI0
aI0
aa(lp2105
F0.14285714285714285
aaa(lp2106
(lp2107
I2380
aI4
aI2919
aI0
aa(lp2108
I0
aI0
aI0
aI0
aI0
aI0
aI0
aI0
aI0
aI0
aa(lp2109
F0.14285714285714285
aaa(lp2110
(lp2111
I1136
aI4
aI1079
aI0
aa(lp2112
I0
aI0
aI0
aI0
aI0
aI0
aI0
aI0
aI0
aI0
aa(lp2113
F0.14285714285714285
aaa(lp2114
(lp2115
I2927
aI4
aI641
aI0
aa(lp2116
I0
aI0
aI0
aI0
aI0
aI0
aI0
aI0
aI0
aI0
aa(lp2117
F0.14285714285714285
aaa(lp2118
(lp2119
I1005
aI4
aI1484
aI0
aa(lp2120
I0
aI0
aI0
aI0
aI0
aI0
aI0
aI0
aI0
aI0
aa(lp2121
F0.14285714285714285
aaa(lp2122
(lp2123
I1215
aI4
aI915
aI0
aa(lp2124
I0
aI0
aI0
aI0
aI0
aI0
aI0
aI0
aI0
aI0
aa(lp2125
F0.14285714285714285
aaa(lp2126
(lp2127
I717
aI4
aI2759
aI0
aa(lp2128
I0
aI0
aI0
aI0
aI0
aI0
aI0
aI0
aI0
aI0
aa(lp2129
F0.14285714285714285
aaa(lp2130
(lp2131
I70
aI4
aI1668
aI0
aa(lp2132
I0
aI0
aI0
aI0
aI0
aI0
aI0
aI0
aI0
aI0
aa(lp2133
F0.14285714285714285
aaa(lp2134
(lp2135
I1755
aI4
aI1188
aI0
aa(lp2136
I0
aI0
aI0
aI0
aI0
aI0
aI0
aI0
aI0
aI0
aa(lp2137
F0.14285714285714285
aaa(lp2138
(lp2139
I536
aI4
aI2795
aI0
aa(lp2140
I0
aI0
aI0
aI0
aI0
aI0
aI0
aI0
aI0
aI0
aa(lp2141
F0.14285714285714285
aaa(lp2142
(lp2143
I541
aI4
aI10
aI0
aa(lp2144
I0
aI0
aI0
aI0
aI0
aI0
aI0
aI0
aI0
aI0
aa(lp2145
F0.14285714285714285
aaa(lp2146
(lp2147
I2527
aI4
aI2646
aI0
aa(lp2148
I0
aI0
aI0
aI0
aI0
aI0
aI0
aI0
aI0
aI0
aa(lp2149
F0.14285714285714285
aaa(lp2150
(lp2151
I2797
aI4
aI2517
aI0
aa(lp2152
I0
aI0
aI0
aI0
aI0
aI0
aI0
aI0
aI0
aI0
aa(lp2153
F0.14285714285714285
aaa(lp2154
(lp2155
I354
aI4
aI2544
aI0
aa(lp2156
I0
aI0
aI0
aI0
aI0
aI0
aI0
aI0
aI0
aI0
aa(lp2157
F0.14285714285714285
aaa(lp2158
(lp2159
I2575
aI4
aI2951
aI0
aa(lp2160
I0
aI0
aI0
aI0
aI0
aI0
aI0
aI0
aI0
aI0
aa(lp2161
F0.14285714285714285
aaa(lp2162
(lp2163
I2343
aI4
aI646
aI0
aa(lp2164
I0
aI0
aI0
aI0
aI0
aI0
aI0
aI0
aI0
aI0
aa(lp2165
F0.14285714285714285
aaa(lp2166
(lp2167
I753
aI4
aI2955
aI0
aa(lp2168
I0
aI0
aI0
aI0
aI0
aI0
aI0
aI0
aI0
aI0
aa(lp2169
F0.14285714285714285
aaa(lp2170
(lp2171
I1099
aI4
aI422
aI0
aa(lp2172
I0
aI0
aI0
aI0
aI0
aI0
aI0
aI0
aI0
aI0
aa(lp2173
F0.14285714285714285
aaa(lp2174
(lp2175
I1012
aI4
aI41
aI0
aa(lp2176
I0
aI0
aI0
aI0
aI0
aI0
aI0
aI0
aI0
aI0
aa(lp2177
F0.14285714285714285
aaa(lp2178
(lp2179
I406
aI4
aI2962
aI0
aa(lp2180
I0
aI0
aI0
aI0
aI0
aI0
aI0
aI0
aI0
aI0
aa(lp2181
F0.14285714285714285
aaa(lp2182
(lp2183
I1443
aI4
aI1041
aI0
aa(lp2184
I0
aI0
aI0
aI0
aI0
aI0
aI0
aI0
aI0
aI0
aa(lp2185
F0.14285714285714285
aaa(lp2186
(lp2187
I1634
aI4
aI2340
aI0
aa(lp2188
I0
aI0
aI0
aI0
aI0
aI0
aI0
aI0
aI0
aI0
aa(lp2189
F0.14285714285714285
aaa(lp2190
(lp2191
I518
aI4
aI2711
aI0
aa(lp2192
I0
aI0
aI0
aI0
aI0
aI0
aI0
aI0
aI0
aI0
aa(lp2193
F0.14285714285714285
aaa(lp2194
(lp2195
I500
aI4
aI2199
aI0
aa(lp2196
I0
aI0
aI0
aI0
aI0
aI0
aI0
aI0
aI0
aI0
aa(lp2197
F0.14285714285714285
aaa(lp2198
(lp2199
I2048
aI4
aI1111
aI0
aa(lp2200
I0
aI0
aI0
aI0
aI0
aI0
aI0
aI0
aI0
aI0
aa(lp2201
F0.14285714285714285
aaa(lp2202
(lp2203
I1587
aI4
aI561
aI0
aa(lp2204
I0
aI0
aI0
aI0
aI0
aI0
aI0
aI0
aI0
aI0
aa(lp2205
F0.14285714285714285
aaa(lp2206
(lp2207
I824
aI4
aI229
aI0
aa(lp2208
I0
aI0
aI0
aI0
aI0
aI0
aI0
aI0
aI0
aI0
aa(lp2209
F0.14285714285714285
aaa(lp2210
(lp2211
I1088
aI4
aI2308
aI0
aa(lp2212
I0
aI0
aI0
aI0
aI0
aI0
aI0
aI0
aI0
aI0
aa(lp2213
F0.14285714285714285
aaa(lp2214
(lp2215
I263
aI4
aI1168
aI0
aa(lp2216
I0
aI0
aI0
aI0
aI0
aI0
aI0
aI0
aI0
aI0
aa(lp2217
F0.14285714285714285
aaa(lp2218
(lp2219
I1480
aI4
aI202
aI0
aa(lp2220
I0
aI0
aI0
aI0
aI0
aI0
aI0
aI0
aI0
aI0
aa(lp2221
F0.14285714285714285
aaa(lp2222
(lp2223
I400
aI4
aI1632
aI0
aa(lp2224
I0
aI0
aI0
aI0
aI0
aI0
aI0
aI0
aI0
aI0
aa(lp2225
F0.14285714285714285
aaa(lp2226
(lp2227
I731
aI4
aI255
aI0
aa(lp2228
I0
aI0
aI0
aI0
aI0
aI0
aI0
aI0
aI0
aI0
aa(lp2229
F0.14285714285714285
aaa(lp2230
(lp2231
I1087
aI4
aI1070
aI0
aa(lp2232
I0
aI0
aI0
aI0
aI0
aI0
aI0
aI0
aI0
aI0
aa(lp2233
F0.14285714285714285
aaa(lp2234
(lp2235
I1372
aI4
aI2982
aI0
aa(lp2236
I0
aI0
aI0
aI0
aI0
aI0
aI0
aI0
aI0
aI0
aa(lp2237
F0.14285714285714285
aaa(lp2238
(lp2239
I878
aI4
aI2980
aI0
aa(lp2240
I0
aI0
aI0
aI0
aI0
aI0
aI0
aI0
aI0
aI0
aa(lp2241
F0.14285714285714285
aaa(lp2242
(lp2243
I1987
aI4
aI2463
aI0
aa(lp2244
I0
aI0
aI0
aI0
aI0
aI0
aI0
aI0
aI0
aI0
aa(lp2245
F0.14285714285714285
aaa(lp2246
(lp2247
I2997
aI4
aI862
aI0
aa(lp2248
I0
aI0
aI0
aI0
aI0
aI0
aI0
aI0
aI0
aI0
aa(lp2249
F0.14285714285714285
aaa(lp2250
(lp2251
I1453
aI4
aI1329
aI0
aa(lp2252
I0
aI0
aI0
aI0
aI0
aI0
aI0
aI0
aI0
aI0
aa(lp2253
F0.14285714285714285
aaa(lp2254
(lp2255
I394
aI4
aI3000
aI0
aa(lp2256
I0
aI0
aI0
aI0
aI0
aI0
aI0
aI0
aI0
aI0
aa(lp2257
F0.14285714285714285
aaa(lp2258
(lp2259
I1652
aI4
aI3003
aI0
aa(lp2260
I0
aI0
aI0
aI0
aI0
aI0
aI0
aI0
aI0
aI0
aa(lp2261
F0.14285714285714285
aaa(lp2262
(lp2263
I2443
aI4
aI2556
aI0
aa(lp2264
I0
aI0
aI0
aI0
aI0
aI0
aI0
aI0
aI0
aI0
aa(lp2265
F0.14285714285714285
aaa(lp2266
(lp2267
I1617
aI4
aI1219
aI0
aa(lp2268
I0
aI0
aI0
aI0
aI0
aI0
aI0
aI0
aI0
aI0
aa(lp2269
F0.14285714285714285
aaa(lp2270
(lp2271
I2254
aI4
aI897
aI0
aa(lp2272
I0
aI0
aI0
aI0
aI0
aI0
aI0
aI0
aI0
aI0
aa(lp2273
F0.14285714285714285
aaa(lp2274
(lp2275
I1023
aI4
aI989
aI0
aa(lp2276
I0
aI0
aI0
aI0
aI0
aI0
aI0
aI0
aI0
aI0
aa(lp2277
F0.14285714285714285
aaa(lp2278
(lp2279
I1469
aI4
aI697
aI0
aa(lp2280
I0
aI0
aI0
aI0
aI0
aI0
aI0
aI0
aI0
aI0
aa(lp2281
F0.14285714285714285
aaa(lp2282
(lp2283
I1568
aI4
aI1926
aI0
aa(lp2284
I0
aI0
aI0
aI0
aI0
aI0
aI0
aI0
aI0
aI0
aa(lp2285
F0.14285714285714285
aaa(lp2286
(lp2287
I1520
aI4
aI251
aI0
aa(lp2288
I0
aI0
aI0
aI0
aI0
aI0
aI0
aI0
aI0
aI0
aa(lp2289
F0.14285714285714285
aaa(lp2290
(lp2291
I285
aI4
aI1838
aI0
aa(lp2292
I0
aI0
aI0
aI0
aI0
aI0
aI0
aI0
aI0
aI0
aa(lp2293
F0.14285714285714285
aaa(lp2294
(lp2295
I547
aI4
aI226
aI0
aa(lp2296
I0
aI0
aI0
aI0
aI0
aI0
aI0
aI0
aI0
aI0
aa(lp2297
F0.14285714285714285
aaa(lp2298
(lp2299
I2590
aI4
aI743
aI0
aa(lp2300
I0
aI0
aI0
aI0
aI0
aI0
aI0
aI0
aI0
aI0
aa(lp2301
F0.14285714285714285
aaa(lp2302
(lp2303
I124
aI4
aI1599
aI0
aa(lp2304
I0
aI0
aI0
aI0
aI0
aI0
aI0
aI0
aI0
aI0
aa(lp2305
F0.14285714285714285
aaa(lp2306
(lp2307
I480
aI4
aI916
aI0
aa(lp2308
I0
aI0
aI0
aI0
aI0
aI0
aI0
aI0
aI0
aI0
aa(lp2309
F0.14285714285714285
aaa(lp2310
(lp2311
I1270
aI4
aI1407
aI0
aa(lp2312
I0
aI0
aI0
aI0
aI0
aI0
aI0
aI0
aI0
aI0
aa(lp2313
F0.14285714285714285
aaa(lp2314
(lp2315
I852
aI4
aI3027
aI0
aa(lp2316
I0
aI0
aI0
aI0
aI0
aI0
aI0
aI0
aI0
aI0
aa(lp2317
F0.14285714285714285
aaa(lp2318
(lp2319
I2304
aI4
aI2577
aI0
aa(lp2320
I0
aI0
aI0
aI0
aI0
aI0
aI0
aI0
aI0
aI0
aa(lp2321
F0.14285714285714285
aaa(lp2322
(lp2323
I1737
aI4
aI1903
aI0
aa(lp2324
I0
aI0
aI0
aI0
aI0
aI0
aI0
aI0
aI0
aI0
aa(lp2325
F0.14285714285714285
aaa(lp2326
(lp2327
I2469
aI4
aI975
aI0
aa(lp2328
I0
aI0
aI0
aI0
aI0
aI0
aI0
aI0
aI0
aI0
aa(lp2329
F0.14285714285714285
aaa(lp2330
(lp2331
I2386
aI4
aI3042
aI0
aa(lp2332
I0
aI0
aI0
aI0
aI0
aI0
aI0
aI0
aI0
aI0
aa(lp2333
F0.14285714285714285
aaa(lp2334
(lp2335
I1959
aI4
aI1200
aI0
aa(lp2336
I0
aI0
aI0
aI0
aI0
aI0
aI0
aI0
aI0
aI0
aa(lp2337
F0.14285714285714285
aaa(lp2338
(lp2339
I2805
aI4
aI1481
aI0
aa(lp2340
I0
aI0
aI0
aI0
aI0
aI0
aI0
aI0
aI0
aI0
aa(lp2341
F0.14285714285714285
aaa(lp2342
(lp2343
I1703
aI4
aI1684
aI0
aa(lp2344
I0
aI0
aI0
aI0
aI0
aI0
aI0
aI0
aI0
aI0
aa(lp2345
F0.14285714285714285
aaa(lp2346
(lp2347
I2390
aI4
aI2549
aI0
aa(lp2348
I0
aI0
aI0
aI0
aI0
aI0
aI0
aI0
aI0
aI0
aa(lp2349
F0.14285714285714285
aaa(lp2350
(lp2351
I3052
aI4
aI2885
aI0
aa(lp2352
I0
aI0
aI0
aI0
aI0
aI0
aI0
aI0
aI0
aI0
aa(lp2353
F0.14285714285714285
aaa(lp2354
(lp2355
I1363
aI4
aI121
aI0
aa(lp2356
I0
aI0
aI0
aI0
aI0
aI0
aI0
aI0
aI0
aI0
aa(lp2357
F0.14285714285714285
aaa(lp2358
(lp2359
I709
aI4
aI2141
aI0
aa(lp2360
I0
aI0
aI0
aI0
aI0
aI0
aI0
aI0
aI0
aI0
aa(lp2361
F0.14285714285714285
aaa(lp2362
(lp2363
I264
aI4
aI234
aI0
aa(lp2364
I0
aI0
aI0
aI0
aI0
aI0
aI0
aI0
aI0
aI0
aa(lp2365
F0.14285714285714285
aaa(lp2366
(lp2367
I1725
aI4
aI2661
aI0
aa(lp2368
I0
aI0
aI0
aI0
aI0
aI0
aI0
aI0
aI0
aI0
aa(lp2369
F0.14285714285714285
aaa(lp2370
(lp2371
I1738
aI4
aI585
aI0
aa(lp2372
I0
aI0
aI0
aI0
aI0
aI0
aI0
aI0
aI0
aI0
aa(lp2373
F0.14285714285714285
aaa(lp2374
(lp2375
I2451
aI4
aI1948
aI0
aa(lp2376
I0
aI0
aI0
aI0
aI0
aI0
aI0
aI0
aI0
aI0
aa(lp2377
F0.14285714285714285
aaa(lp2378
(lp2379
I1772
aI4
aI741
aI0
aa(lp2380
I0
aI0
aI0
aI0
aI0
aI0
aI0
aI0
aI0
aI0
aa(lp2381
F0.14285714285714285
aaa(lp2382
(lp2383
I2300
aI4
aI2815
aI0
aa(lp2384
I0
aI0
aI0
aI0
aI0
aI0
aI0
aI0
aI0
aI0
aa(lp2385
F0.14285714285714285
aaa(lp2386
(lp2387
I368
aI4
aI2237
aI0
aa(lp2388
I0
aI0
aI0
aI0
aI0
aI0
aI0
aI0
aI0
aI0
aa(lp2389
F0.14285714285714285
aaa(lp2390
(lp2391
I1050
aI4
aI1904
aI0
aa(lp2392
I0
aI0
aI0
aI0
aI0
aI0
aI0
aI0
aI0
aI0
aa(lp2393
F0.14285714285714285
aaa(lp2394
(lp2395
I1513
aI4
aI2940
aI0
aa(lp2396
I0
aI0
aI0
aI0
aI0
aI0
aI0
aI0
aI0
aI0
aa(lp2397
F0.14285714285714285
aaa(lp2398
(lp2399
I2655
aI4
aI2357
aI0
aa(lp2400
I0
aI0
aI0
aI0
aI0
aI0
aI0
aI0
aI0
aI0
aa(lp2401
F0.14285714285714285
aaa(lp2402
(lp2403
I851
aI4
aI2091
aI0
aa(lp2404
I0
aI0
aI0
aI0
aI0
aI0
aI0
aI0
aI0
aI0
aa(lp2405
F0.14285714285714285
aaa(lp2406
(lp2407
I2879
aI4
aI2731
aI0
aa(lp2408
I0
aI0
aI0
aI0
aI0
aI0
aI0
aI0
aI0
aI0
aa(lp2409
F0.14285714285714285
aaa(lp2410
(lp2411
I2698
aI4
aI3049
aI0
aa(lp2412
I0
aI0
aI0
aI0
aI0
aI0
aI0
aI0
aI0
aI0
aa(lp2413
F0.14285714285714285
aaa(lp2414
(lp2415
I2770
aI4
aI13
aI0
aa(lp2416
I0
aI0
aI0
aI0
aI0
aI0
aI0
aI0
aI0
aI0
aa(lp2417
F0.14285714285714285
aaa(lp2418
(lp2419
I1021
aI4
aI3089
aI0
aa(lp2420
I0
aI0
aI0
aI0
aI0
aI0
aI0
aI0
aI0
aI0
aa(lp2421
F0.14285714285714285
aaa(lp2422
(lp2423
I448
aI4
aI2542
aI0
aa(lp2424
I0
aI0
aI0
aI0
aI0
aI0
aI0
aI0
aI0
aI0
aa(lp2425
F0.14285714285714285
aaa(lp2426
(lp2427
I2037
aI4
aI1459
aI0
aa(lp2428
I0
aI0
aI0
aI0
aI0
aI0
aI0
aI0
aI0
aI0
aa(lp2429
F0.14285714285714285
aaa(lp2430
(lp2431
I1856
aI4
aI2270
aI0
aa(lp2432
I0
aI0
aI0
aI0
aI0
aI0
aI0
aI0
aI0
aI0
aa(lp2433
F0.14285714285714285
aaa(lp2434
(lp2435
I316
aI4
aI3106
aI0
aa(lp2436
I0
aI0
aI0
aI0
aI0
aI0
aI0
aI0
aI0
aI0
aa(lp2437
F0.14285714285714285
aaa(lp2438
(lp2439
I1757
aI4
aI2737
aI0
aa(lp2440
I0
aI0
aI0
aI0
aI0
aI0
aI0
aI0
aI0
aI0
aa(lp2441
F0.14285714285714285
aaa(lp2442
(lp2443
I683
aI4
aI1849
aI0
aa(lp2444
I0
aI0
aI0
aI0
aI0
aI0
aI0
aI0
aI0
aI0
aa(lp2445
F0.14285714285714285
aaa(lp2446
(lp2447
I1404
aI4
aI786
aI0
aa(lp2448
I0
aI0
aI0
aI0
aI0
aI0
aI0
aI0
aI0
aI0
aa(lp2449
F0.14285714285714285
aaa(lp2450
(lp2451
I252
aI4
aI486
aI0
aa(lp2452
I0
aI0
aI0
aI0
aI0
aI0
aI0
aI0
aI0
aI0
aa(lp2453
F0.14285714285714285
aaa(lp2454
(lp2455
I3119
aI4
aI1022
aI0
aa(lp2456
I0
aI0
aI0
aI0
aI0
aI0
aI0
aI0
aI0
aI0
aa(lp2457
F0.14285714285714285
aaa(lp2458
(lp2459
I3016
aI4
aI2829
aI0
aa(lp2460
I0
aI0
aI0
aI0
aI0
aI0
aI0
aI0
aI0
aI0
aa(lp2461
F0.14285714285714285
aaa(lp2462
(lp2463
I1025
aI4
aI1642
aI0
aa(lp2464
I0
aI0
aI0
aI0
aI0
aI0
aI0
aI0
aI0
aI0
aa(lp2465
F0.14285714285714285
aaa(lp2466
(lp2467
I1678
aI4
aI1403
aI0
aa(lp2468
I0
aI0
aI0
aI0
aI0
aI0
aI0
aI0
aI0
aI0
aa(lp2469
F0.14285714285714285
aaa(lp2470
(lp2471
I2635
aI4
aI474
aI0
aa(lp2472
I0
aI0
aI0
aI0
aI0
aI0
aI0
aI0
aI0
aI0
aa(lp2473
F0.14285714285714285
aaa(lp2474
(lp2475
I1361
aI4
aI2794
aI0
aa(lp2476
I0
aI0
aI0
aI0
aI0
aI0
aI0
aI0
aI0
aI0
aa(lp2477
F0.14285714285714285
aaa(lp2478
(lp2479
I2322
aI4
aI666
aI0
aa(lp2480
I0
aI0
aI0
aI0
aI0
aI0
aI0
aI0
aI0
aI0
aa(lp2481
F0.14285714285714285
aaa(lp2482
(lp2483
I1293
aI4
aI445
aI0
aa(lp2484
I0
aI0
aI0
aI0
aI0
aI0
aI0
aI0
aI0
aI0
aa(lp2485
F0.14285714285714285
aaa(lp2486
(lp2487
I2065
aI4
aI1413
aI0
aa(lp2488
I0
aI0
aI0
aI0
aI0
aI0
aI0
aI0
aI0
aI0
aa(lp2489
F0.14285714285714285
aaa(lp2490
(lp2491
I761
aI4
aI1341
aI0
aa(lp2492
I0
aI0
aI0
aI0
aI0
aI0
aI0
aI0
aI0
aI0
aa(lp2493
F0.14285714285714285
aaa(lp2494
(lp2495
I1149
aI4
aI1658
aI0
aa(lp2496
I0
aI0
aI0
aI0
aI0
aI0
aI0
aI0
aI0
aI0
aa(lp2497
F0.14285714285714285
aaa(lp2498
(lp2499
I204
aI4
aI2705
aI0
aa(lp2500
I0
aI0
aI0
aI0
aI0
aI0
aI0
aI0
aI0
aI0
aa(lp2501
F0.14285714285714285
aaa(lp2502
(lp2503
I728
aI4
aI1072
aI0
aa(lp2504
I0
aI0
aI0
aI0
aI0
aI0
aI0
aI0
aI0
aI0
aa(lp2505
F0.14285714285714285
aaa(lp2506
(lp2507
I1324
aI4
aI5
aI0
aa(lp2508
I0
aI0
aI0
aI0
aI0
aI0
aI0
aI0
aI0
aI0
aa(lp2509
F0.14285714285714285
aaa(lp2510
(lp2511
I2058
aI4
aI2961
aI0
aa(lp2512
I0
aI0
aI0
aI0
aI0
aI0
aI0
aI0
aI0
aI0
aa(lp2513
F0.14285714285714285
aaa(lp2514
(lp2515
I778
aI4
aI1419
aI0
aa(lp2516
I0
aI0
aI0
aI0
aI0
aI0
aI0
aI0
aI0
aI0
aa(lp2517
F0.14285714285714285
aaa(lp2518
(lp2519
I514
aI4
aI3100
aI0
aa(lp2520
I0
aI0
aI0
aI0
aI0
aI0
aI0
aI0
aI0
aI0
aa(lp2521
F0.14285714285714285
aaa(lp2522
(lp2523
I469
aI4
aI2648
aI0
aa(lp2524
I0
aI0
aI0
aI0
aI0
aI0
aI0
aI0
aI0
aI0
aa(lp2525
F0.14285714285714285
aaa(lp2526
(lp2527
I879
aI4
aI1302
aI0
aa(lp2528
I0
aI0
aI0
aI0
aI0
aI0
aI0
aI0
aI0
aI0
aa(lp2529
F0.14285714285714285
aaa(lp2530
(lp2531
I2701
aI4
aI1271
aI0
aa(lp2532
I0
aI0
aI0
aI0
aI0
aI0
aI0
aI0
aI0
aI0
aa(lp2533
F0.14285714285714285
aaa(lp2534
(lp2535
I333
aI4
aI572
aI0
aa(lp2536
I0
aI0
aI0
aI0
aI0
aI0
aI0
aI0
aI0
aI0
aa(lp2537
F0.14285714285714285
aaa(lp2538
(lp2539
I98
aI4
aI2969
aI0
aa(lp2540
I0
aI0
aI0
aI0
aI0
aI0
aI0
aI0
aI0
aI0
aa(lp2541
F0.14285714285714285
aaa(lp2542
(lp2543
I2554
aI4
aI1195
aI0
aa(lp2544
I0
aI0
aI0
aI0
aI0
aI0
aI0
aI0
aI0
aI0
aa(lp2545
F0.14285714285714285
aaa(lp2546
(lp2547
I2092
aI4
aI1436
aI0
aa(lp2548
I0
aI0
aI0
aI0
aI0
aI0
aI0
aI0
aI0
aI0
aa(lp2549
F0.14285714285714285
aaa(lp2550
(lp2551
I2301
aI4
aI1909
aI0
aa(lp2552
I0
aI0
aI0
aI0
aI0
aI0
aI0
aI0
aI0
aI0
aa(lp2553
F0.14285714285714285
aaa(lp2554
(lp2555
I2218
aI4
aI3161
aI0
aa(lp2556
I0
aI0
aI0
aI0
aI0
aI0
aI0
aI0
aI0
aI0
aa(lp2557
F0.14285714285714285
aaa(lp2558
(lp2559
I2024
aI4
aI2838
aI0
aa(lp2560
I0
aI0
aI0
aI0
aI0
aI0
aI0
aI0
aI0
aI0
aa(lp2561
F0.14285714285714285
aaa(lp2562
(lp2563
I570
aI4
aI2601
aI0
aa(lp2564
I0
aI0
aI0
aI0
aI0
aI0
aI0
aI0
aI0
aI0
aa(lp2565
F0.14285714285714285
aaa(lp2566
(lp2567
I2804
aI4
aI135
aI0
aa(lp2568
I0
aI0
aI0
aI0
aI0
aI0
aI0
aI0
aI0
aI0
aa(lp2569
F0.14285714285714285
aaa(lp2570
(lp2571
I197
aI4
aI2311
aI0
aa(lp2572
I0
aI0
aI0
aI0
aI0
aI0
aI0
aI0
aI0
aI0
aa(lp2573
F0.14285714285714285
aaa(lp2574
(lp2575
I2006
aI4
aI513
aI0
aa(lp2576
I0
aI0
aI0
aI0
aI0
aI0
aI0
aI0
aI0
aI0
aa(lp2577
F0.14285714285714285
aaa(lp2578
(lp2579
I3137
aI4
aI329
aI0
aa(lp2580
I0
aI0
aI0
aI0
aI0
aI0
aI0
aI0
aI0
aI0
aa(lp2581
F0.14285714285714285
aaa(lp2582
(lp2583
I1907
aI4
aI2125
aI0
aa(lp2584
I0
aI0
aI0
aI0
aI0
aI0
aI0
aI0
aI0
aI0
aa(lp2585
F0.14285714285714285
aaa(lp2586
(lp2587
I3035
aI4
aI3157
aI0
aa(lp2588
I0
aI0
aI0
aI0
aI0
aI0
aI0
aI0
aI0
aI0
aa(lp2589
F0.14285714285714285
aaa(lp2590
(lp2591
I1753
aI4
aI1594
aI0
aa(lp2592
I0
aI0
aI0
aI0
aI0
aI0
aI0
aI0
aI0
aI0
aa(lp2593
F0.14285714285714285
aaa(lp2594
(lp2595
I1034
aI4
aI944
aI0
aa(lp2596
I0
aI0
aI0
aI0
aI0
aI0
aI0
aI0
aI0
aI0
aa(lp2597
F0.14285714285714285
aaa(lp2598
(lp2599
I314
aI4
aI2107
aI0
aa(lp2600
I0
aI0
aI0
aI0
aI0
aI0
aI0
aI0
aI0
aI0
aa(lp2601
F0.14285714285714285
aaa(lp2602
(lp2603
I1582
aI4
aI1291
aI0
aa(lp2604
I0
aI0
aI0
aI0
aI0
aI0
aI0
aI0
aI0
aI0
aa(lp2605
F0.14285714285714285
aaa(lp2606
(lp2607
I2583
aI4
aI1245
aI0
aa(lp2608
I0
aI0
aI0
aI0
aI0
aI0
aI0
aI0
aI0
aI0
aa(lp2609
F0.14285714285714285
aaa(lp2610
(lp2611
I1918
aI4
aI2771
aI0
aa(lp2612
I0
aI0
aI0
aI0
aI0
aI0
aI0
aI0
aI0
aI0
aa(lp2613
F0.14285714285714285
aaa(lp2614
(lp2615
I154
aI4
aI2157
aI0
aa(lp2616
I0
aI0
aI0
aI0
aI0
aI0
aI0
aI0
aI0
aI0
aa(lp2617
F0.14285714285714285
aaa(lp2618
(lp2619
I2221
aI4
aI2785
aI0
aa(lp2620
I0
aI0
aI0
aI0
aI0
aI0
aI0
aI0
aI0
aI0
aa(lp2621
F0.14285714285714285
aaa(lp2622
(lp2623
I2404
aI4
aI2042
aI0
aa(lp2624
I0
aI0
aI0
aI0
aI0
aI0
aI0
aI0
aI0
aI0
aa(lp2625
F0.14285714285714285
aaa(lp2626
(lp2627
I118
aI4
aI2936
aI0
aa(lp2628
I0
aI0
aI0
aI0
aI0
aI0
aI0
aI0
aI0
aI0
aa(lp2629
F0.14285714285714285
aaa(lp2630
(lp2631
I2398
aI4
aI3092
aI0
aa(lp2632
I0
aI0
aI0
aI0
aI0
aI0
aI0
aI0
aI0
aI0
aa(lp2633
F0.14285714285714285
aaa(lp2634
(lp2635
I1299
aI4
aI2018
aI0
aa(lp2636
I0
aI0
aI0
aI0
aI0
aI0
aI0
aI0
aI0
aI0
aa(lp2637
F0.14285714285714285
aaa(lp2638
(lp2639
I239
aI4
aI272
aI0
aa(lp2640
I0
aI0
aI0
aI0
aI0
aI0
aI0
aI0
aI0
aI0
aa(lp2641
F0.14285714285714285
aaa(lp2642
(lp2643
I420
aI4
aI1836
aI0
aa(lp2644
I0
aI0
aI0
aI0
aI0
aI0
aI0
aI0
aI0
aI0
aa(lp2645
F0.14285714285714285
aaa(lp2646
(lp2647
I1593
aI4
aI3103
aI0
aa(lp2648
I0
aI0
aI0
aI0
aI0
aI0
aI0
aI0
aI0
aI0
aa(lp2649
F0.14285714285714285
aaa(lp2650
(lp2651
I2908
aI4
aI3188
aI0
aa(lp2652
I0
aI0
aI0
aI0
aI0
aI0
aI0
aI0
aI0
aI0
aa(lp2653
F0.14285714285714285
aaa(lp2654
(lp2655
I2138
aI4
aI1175
aI0
aa(lp2656
I0
aI0
aI0
aI0
aI0
aI0
aI0
aI0
aI0
aI0
aa(lp2657
F0.14285714285714285
aaa(lp2658
(lp2659
I708
aI4
aI1350
aI0
aa(lp2660
I0
aI0
aI0
aI0
aI0
aI0
aI0
aI0
aI0
aI0
aa(lp2661
F0.14285714285714285
aaa(lp2662
(lp2663
I2279
aI4
aI212
aI0
aa(lp2664
I0
aI0
aI0
aI0
aI0
aI0
aI0
aI0
aI0
aI0
aa(lp2665
F0.14285714285714285
aaa(lp2666
(lp2667
I376
aI4
aI1460
aI0
aa(lp2668
I0
aI0
aI0
aI0
aI0
aI0
aI0
aI0
aI0
aI0
aa(lp2669
F0.14285714285714285
aaa(lp2670
(lp2671
I853
aI4
aI2975
aI0
aa(lp2672
I0
aI0
aI0
aI0
aI0
aI0
aI0
aI0
aI0
aI0
aa(lp2673
F0.14285714285714285
aaa(lp2674
(lp2675
I636
aI4
aI1771
aI0
aa(lp2676
I0
aI0
aI0
aI0
aI0
aI0
aI0
aI0
aI0
aI0
aa(lp2677
F0.14285714285714285
aaa(lp2678
(lp2679
I837
aI4
aI900
aI0
aa(lp2680
I0
aI0
aI0
aI0
aI0
aI0
aI0
aI0
aI0
aI0
aa(lp2681
F0.14285714285714285
aaa(lp2682
(lp2683
I2029
aI4
aI34
aI0
aa(lp2684
I0
aI0
aI0
aI0
aI0
aI0
aI0
aI0
aI0
aI0
aa(lp2685
F0.14285714285714285
aaa(lp2686
(lp2687
I661
aI4
aI3213
aI0
aa(lp2688
I0
aI0
aI0
aI0
aI0
aI0
aI0
aI0
aI0
aI0
aa(lp2689
F0.14285714285714285
aaa(lp2690
(lp2691
I1829
aI4
aI2780
aI0
aa(lp2692
I0
aI0
aI0
aI0
aI0
aI0
aI0
aI0
aI0
aI0
aa(lp2693
F0.14285714285714285
aaa(lp2694
(lp2695
I1881
aI4
aI2241
aI0
aa(lp2696
I0
aI0
aI0
aI0
aI0
aI0
aI0
aI0
aI0
aI0
aa(lp2697
F0.14285714285714285
aaa(lp2698
(lp2699
I207
aI4
aI871
aI0
aa(lp2700
I0
aI0
aI0
aI0
aI0
aI0
aI0
aI0
aI0
aI0
aa(lp2701
F0.14285714285714285
aaa(lp2702
(lp2703
I1726
aI4
aI2055
aI0
aa(lp2704
I0
aI0
aI0
aI0
aI0
aI0
aI0
aI0
aI0
aI0
aa(lp2705
F0.14285714285714285
aaa(lp2706
(lp2707
I1305
aI4
aI627
aI0
aa(lp2708
I0
aI0
aI0
aI0
aI0
aI0
aI0
aI0
aI0
aI0
aa(lp2709
F0.14285714285714285
aaa(lp2710
(lp2711
I1888
aI4
aI1405
aI0
aa(lp2712
I0
aI0
aI0
aI0
aI0
aI0
aI0
aI0
aI0
aI0
aa(lp2713
F0.14285714285714285
aaa(lp2714
(lp2715
I2411
aI4
aI2800
aI0
aa(lp2716
I0
aI0
aI0
aI0
aI0
aI0
aI0
aI0
aI0
aI0
aa(lp2717
F0.14285714285714285
aaa(lp2718
(lp2719
I1689
aI4
aI2242
aI0
aa(lp2720
I0
aI0
aI0
aI0
aI0
aI0
aI0
aI0
aI0
aI0
aa(lp2721
F0.14285714285714285
aaa(lp2722
(lp2723
I1839
aI4
aI1810
aI0
aa(lp2724
I0
aI0
aI0
aI0
aI0
aI0
aI0
aI0
aI0
aI0
aa(lp2725
F0.14285714285714285
aaa(lp2726
(lp2727
I941
aI4
aI2491
aI0
aa(lp2728
I0
aI0
aI0
aI0
aI0
aI0
aI0
aI0
aI0
aI0
aa(lp2729
F0.14285714285714285
aaa(lp2730
(lp2731
I200
aI4
aI2668
aI0
aa(lp2732
I0
aI0
aI0
aI0
aI0
aI0
aI0
aI0
aI0
aI0
aa(lp2733
F0.14285714285714285
aaa(lp2734
(lp2735
I2813
aI4
aI2007
aI0
aa(lp2736
I0
aI0
aI0
aI0
aI0
aI0
aI0
aI0
aI0
aI0
aa(lp2737
F0.14285714285714285
aaa(lp2738
(lp2739
I1229
aI4
aI2690
aI0
aa(lp2740
I0
aI0
aI0
aI0
aI0
aI0
aI0
aI0
aI0
aI0
aa(lp2741
F0.14285714285714285
aaa(lp2742
(lp2743
I1519
aI4
aI163
aI0
aa(lp2744
I0
aI0
aI0
aI0
aI0
aI0
aI0
aI0
aI0
aI0
aa(lp2745
F0.14285714285714285
aaa(lp2746
(lp2747
I1486
aI4
aI1986
aI0
aa(lp2748
I0
aI0
aI0
aI0
aI0
aI0
aI0
aI0
aI0
aI0
aa(lp2749
F0.14285714285714285
aaa(lp2750
(lp2751
I2439
aI4
aI2869
aI0
aa(lp2752
I0
aI0
aI0
aI0
aI0
aI0
aI0
aI0
aI0
aI0
aa(lp2753
F0.14285714285714285
aaa(lp2754
(lp2755
I2540
aI4
aI2488
aI0
aa(lp2756
I0
aI0
aI0
aI0
aI0
aI0
aI0
aI0
aI0
aI0
aa(lp2757
F0.14285714285714285
aaa(lp2758
(lp2759
I2684
aI4
aI142
aI0
aa(lp2760
I0
aI0
aI0
aI0
aI0
aI0
aI0
aI0
aI0
aI0
aa(lp2761
F0.14285714285714285
aaa(lp2762
(lp2763
I364
aI4
aI2921
aI0
aa(lp2764
I0
aI0
aI0
aI0
aI0
aI0
aI0
aI0
aI0
aI0
aa(lp2765
F0.14285714285714285
aaa(lp2766
(lp2767
I1870
aI4
aI2848
aI0
aa(lp2768
I0
aI0
aI0
aI0
aI0
aI0
aI0
aI0
aI0
aI0
aa(lp2769
F0.14285714285714285
aaa(lp2770
(lp2771
I444
aI4
aI598
aI0
aa(lp2772
I0
aI0
aI0
aI0
aI0
aI0
aI0
aI0
aI0
aI0
aa(lp2773
F0.14285714285714285
aaa(lp2774
(lp2775
I3233
aI4
aI1660
aI0
aa(lp2776
I0
aI0
aI0
aI0
aI0
aI0
aI0
aI0
aI0
aI0
aa(lp2777
F0.14285714285714285
aaa(lp2778
(lp2779
I2142
aI4
aI3133
aI0
aa(lp2780
I0
aI0
aI0
aI0
aI0
aI0
aI0
aI0
aI0
aI0
aa(lp2781
F0.14285714285714285
aaa(lp2782
(lp2783
I2799
aI4
aI2949
aI0
aa(lp2784
I0
aI0
aI0
aI0
aI0
aI0
aI0
aI0
aI0
aI0
aa(lp2785
F0.14285714285714285
aaa(lp2786
(lp2787
I763
aI4
aI293
aI0
aa(lp2788
I0
aI0
aI0
aI0
aI0
aI0
aI0
aI0
aI0
aI0
aa(lp2789
F0.14285714285714285
aaa(lp2790
(lp2791
I357
aI4
aI1586
aI0
aa(lp2792
I0
aI0
aI0
aI0
aI0
aI0
aI0
aI0
aI0
aI0
aa(lp2793
F0.14285714285714285
aaa(lp2794
(lp2795
I1960
aI4
aI1941
aI0
aa(lp2796
I0
aI0
aI0
aI0
aI0
aI0
aI0
aI0
aI0
aI0
aa(lp2797
F0.14285714285714285
aaa(lp2798
(lp2799
I907
aI4
aI2709
aI0
aa(lp2800
I0
aI0
aI0
aI0
aI0
aI0
aI0
aI0
aI0
aI0
aa(lp2801
F0.14285714285714285
aaa(lp2802
(lp2803
I2686
aI4
aI2408
aI0
aa(lp2804
I0
aI0
aI0
aI0
aI0
aI0
aI0
aI0
aI0
aI0
aa(lp2805
F0.14285714285714285
aaa(lp2806
(lp2807
I181
aI4
aI3166
aI0
aa(lp2808
I0
aI0
aI0
aI0
aI0
aI0
aI0
aI0
aI0
aI0
aa(lp2809
F0.14285714285714285
aaa(lp2810
(lp2811
I2547
aI4
aI1071
aI0
aa(lp2812
I0
aI0
aI0
aI0
aI0
aI0
aI0
aI0
aI0
aI0
aa(lp2813
F0.14285714285714285
aaa(lp2814
(lp2815
I2895
aI4
aI2859
aI0
aa(lp2816
I0
aI0
aI0
aI0
aI0
aI0
aI0
aI0
aI0
aI0
aa(lp2817
F0.14285714285714285
aaa(lp2818
(lp2819
I3086
aI4
aI1566
aI0
aa(lp2820
I0
aI0
aI0
aI0
aI0
aI0
aI0
aI0
aI0
aI0
aa(lp2821
F0.14285714285714285
aaa(lp2822
(lp2823
I1773
aI4
aI2985
aI0
aa(lp2824
I0
aI0
aI0
aI0
aI0
aI0
aI0
aI0
aI0
aI0
aa(lp2825
F0.14285714285714285
aaa(lp2826
(lp2827
I1455
aI4
aI1030
aI0
aa(lp2828
I0
aI0
aI0
aI0
aI0
aI0
aI0
aI0
aI0
aI0
aa(lp2829
F0.14285714285714285
aaa(lp2830
(lp2831
I1984
aI4
aI2918
aI0
aa(lp2832
I0
aI0
aI0
aI0
aI0
aI0
aI0
aI0
aI0
aI0
aa(lp2833
F0.14285714285714285
aaa(lp2834
(lp2835
I1704
aI4
aI2249
aI0
aa(lp2836
I0
aI0
aI0
aI0
aI0
aI0
aI0
aI0
aI0
aI0
aa(lp2837
F0.14285714285714285
aaa(lp2838
(lp2839
I1394
aI4
aI1311
aI0
aa(lp2840
I0
aI0
aI0
aI0
aI0
aI0
aI0
aI0
aI0
aI0
aa(lp2841
F0.14285714285714285
aaa(lp2842
(lp2843
I2520
aI4
aI2002
aI0
aa(lp2844
I0
aI0
aI0
aI0
aI0
aI0
aI0
aI0
aI0
aI0
aa(lp2845
F0.14285714285714285
aaa(lp2846
(lp2847
I1217
aI4
aI564
aI0
aa(lp2848
I0
aI0
aI0
aI0
aI0
aI0
aI0
aI0
aI0
aI0
aa(lp2849
F0.14285714285714285
aaa(lp2850
(lp2851
I696
aI4
aI1683
aI0
aa(lp2852
I0
aI0
aI0
aI0
aI0
aI0
aI0
aI0
aI0
aI0
aa(lp2853
F0.14285714285714285
aaa(lp2854
(lp2855
I1662
aI4
aI94
aI0
aa(lp2856
I0
aI0
aI0
aI0
aI0
aI0
aI0
aI0
aI0
aI0
aa(lp2857
F0.14285714285714285
aaa(lp2858
(lp2859
I341
aI4
aI2264
aI0
aa(lp2860
I0
aI0
aI0
aI0
aI0
aI0
aI0
aI0
aI0
aI0
aa(lp2861
F0.14285714285714285
aaa(lp2862
(lp2863
I985
aI4
aI3030
aI0
aa(lp2864
I0
aI0
aI0
aI0
aI0
aI0
aI0
aI0
aI0
aI0
aa(lp2865
F0.14285714285714285
aaa(lp2866
(lp2867
I625
aI4
aI129
aI0
aa(lp2868
I0
aI0
aI0
aI0
aI0
aI0
aI0
aI0
aI0
aI0
aa(lp2869
F0.14285714285714285
aaa(lp2870
(lp2871
I2993
aI4
aI1912
aI0
aa(lp2872
I0
aI0
aI0
aI0
aI0
aI0
aI0
aI0
aI0
aI0
aa(lp2873
F0.14285714285714285
aaa(lp2874
(lp2875
I1409
aI4
aI563
aI0
aa(lp2876
I0
aI0
aI0
aI0
aI0
aI0
aI0
aI0
aI0
aI0
aa(lp2877
F0.14285714285714285
aaa(lp2878
(lp2879
I1796
aI4
aI560
aI0
aa(lp2880
I0
aI0
aI0
aI0
aI0
aI0
aI0
aI0
aI0
aI0
aa(lp2881
F0.14285714285714285
aaa(lp2882
(lp2883
I2484
aI4
aI2457
aI0
aa(lp2884
I0
aI0
aI0
aI0
aI0
aI0
aI0
aI0
aI0
aI0
aa(lp2885
F0.14285714285714285
aaa(lp2886
(lp2887
I647
aI4
aI712
aI0
aa(lp2888
I0
aI0
aI0
aI0
aI0
aI0
aI0
aI0
aI0
aI0
aa(lp2889
F0.14285714285714285
aaa(lp2890
(lp2891
I2808
aI4
aI937
aI0
aa(lp2892
I0
aI0
aI0
aI0
aI0
aI0
aI0
aI0
aI0
aI0
aa(lp2893
F0.14285714285714285
aaa(lp2894
(lp2895
I925
aI4
aI3207
aI0
aa(lp2896
I0
aI0
aI0
aI0
aI0
aI0
aI0
aI0
aI0
aI0
aa(lp2897
F0.14285714285714285
aaa(lp2898
(lp2899
I1093
aI4
aI624
aI0
aa(lp2900
I0
aI0
aI0
aI0
aI0
aI0
aI0
aI0
aI0
aI0
aa(lp2901
F0.14285714285714285
aaa(lp2902
(lp2903
I1228
aI4
aI3061
aI0
aa(lp2904
I0
aI0
aI0
aI0
aI0
aI0
aI0
aI0
aI0
aI0
aa(lp2905
F0.14285714285714285
aaa(lp2906
(lp2907
I1457
aI4
aI3076
aI0
aa(lp2908
I0
aI0
aI0
aI0
aI0
aI0
aI0
aI0
aI0
aI0
aa(lp2909
F0.14285714285714285
aaa(lp2910
(lp2911
I1351
aI4
aI2033
aI0
aa(lp2912
I0
aI0
aI0
aI0
aI0
aI0
aI0
aI0
aI0
aI0
aa(lp2913
F0.14285714285714285
aaa(lp2914
(lp2915
I1589
aI4
aI2697
aI0
aa(lp2916
I0
aI0
aI0
aI0
aI0
aI0
aI0
aI0
aI0
aI0
aa(lp2917
F0.14285714285714285
aaa(lp2918
(lp2919
I1580
aI4
aI484
aI0
aa(lp2920
I0
aI0
aI0
aI0
aI0
aI0
aI0
aI0
aI0
aI0
aa(lp2921
F0.14285714285714285
aaa(lp2922
(lp2923
I1532
aI4
aI873
aI0
aa(lp2924
I0
aI0
aI0
aI0
aI0
aI0
aI0
aI0
aI0
aI0
aa(lp2925
F0.14285714285714285
aaa(lp2926
(lp2927
I2726
aI4
aI2890
aI0
aa(lp2928
I0
aI0
aI0
aI0
aI0
aI0
aI0
aI0
aI0
aI0
aa(lp2929
F0.14285714285714285
aaa(lp2930
(lp2931
I336
aI4
aI715
aI0
aa(lp2932
I0
aI0
aI0
aI0
aI0
aI0
aI0
aI0
aI0
aI0
aa(lp2933
F0.14285714285714285
aaa(lp2934
(lp2935
I3277
aI4
aI3036
aI0
aa(lp2936
I0
aI0
aI0
aI0
aI0
aI0
aI0
aI0
aI0
aI0
aa(lp2937
F0.14285714285714285
aaa(lp2938
(lp2939
I2442
aI4
aI1235
aI0
aa(lp2940
I0
aI0
aI0
aI0
aI0
aI0
aI0
aI0
aI0
aI0
aa(lp2941
F0.14285714285714285
aaa(lp2942
(lp2943
I2563
aI4
aI2778
aI0
aa(lp2944
I0
aI0
aI0
aI0
aI0
aI0
aI0
aI0
aI0
aI0
aa(lp2945
F0.14285714285714285
aaa(lp2946
(lp2947
I1292
aI4
aI1541
aI0
aa(lp2948
I0
aI0
aI0
aI0
aI0
aI0
aI0
aI0
aI0
aI0
aa(lp2949
F0.14285714285714285
aaa(lp2950
(lp2951
I1278
aI4
aI140
aI0
aa(lp2952
I0
aI0
aI0
aI0
aI0
aI0
aI0
aI0
aI0
aI0
aa(lp2953
F0.14285714285714285
aaa(lp2954
(lp2955
I672
aI4
aI528
aI0
aa(lp2956
I0
aI0
aI0
aI0
aI0
aI0
aI0
aI0
aI0
aI0
aa(lp2957
F0.14285714285714285
aaa(lp2958
(lp2959
I1398
aI4
aI1742
aI0
aa(lp2960
I0
aI0
aI0
aI0
aI0
aI0
aI0
aI0
aI0
aI0
aa(lp2961
F0.14285714285714285
aaa(lp2962
(lp2963
I1344
aI4
aI1110
aI0
aa(lp2964
I0
aI0
aI0
aI0
aI0
aI0
aI0
aI0
aI0
aI0
aa(lp2965
F0.14285714285714285
aaa(lp2966
(lp2967
I2277
aI4
aI1199
aI0
aa(lp2968
I0
aI0
aI0
aI0
aI0
aI0
aI0
aI0
aI0
aI0
aa(lp2969
F0.14285714285714285
aaa(lp2970
(lp2971
I2068
aI4
aI2599
aI0
aa(lp2972
I0
aI0
aI0
aI0
aI0
aI0
aI0
aI0
aI0
aI0
aa(lp2973
F0.14285714285714285
aaa(lp2974
(lp2975
I1867
aI4
aI2925
aI0
aa(lp2976
I0
aI0
aI0
aI0
aI0
aI0
aI0
aI0
aI0
aI0
aa(lp2977
F0.14285714285714285
aaa(lp2978
(lp2979
I2837
aI4
aI2917
aI0
aa(lp2980
I0
aI0
aI0
aI0
aI0
aI0
aI0
aI0
aI0
aI0
aa(lp2981
F0.14285714285714285
aaa(lp2982
(lp2983
I1985
aI4
aI2126
aI0
aa(lp2984
I0
aI0
aI0
aI0
aI0
aI0
aI0
aI0
aI0
aI0
aa(lp2985
F0.14285714285714285
aaa(lp2986
(lp2987
I2500
aI4
aI2365
aI0
aa(lp2988
I0
aI0
aI0
aI0
aI0
aI0
aI0
aI0
aI0
aI0
aa(lp2989
F0.14285714285714285
aaa(lp2990
(lp2991
I918
aI4
aI1901
aI0
aa(lp2992
I0
aI0
aI0
aI0
aI0
aI0
aI0
aI0
aI0
aI0
aa(lp2993
F0.14285714285714285
aaa(lp2994
(lp2995
I842
aI4
aI1411
aI0
aa(lp2996
I0
aI0
aI0
aI0
aI0
aI0
aI0
aI0
aI0
aI0
aa(lp2997
F0.14285714285714285
aaa(lp2998
(lp2999
I1933
aI4
aI1774
aI0
aa(lp3000
I0
aI0
aI0
aI0
aI0
aI0
aI0
aI0
aI0
aI0
aa(lp3001
F0.14285714285714285
aaa(lp3002
(lp3003
I1465
aI4
aI192
aI0
aa(lp3004
I0
aI0
aI0
aI0
aI0
aI0
aI0
aI0
aI0
aI0
aa(lp3005
F0.14285714285714285
aaa(lp3006
(lp3007
I589
aI4
aI2494
aI0
aa(lp3008
I0
aI0
aI0
aI0
aI0
aI0
aI0
aI0
aI0
aI0
aa(lp3009
F0.14285714285714285
aaa(lp3010
(lp3011
I273
aI4
aI1550
aI0
aa(lp3012
I0
aI0
aI0
aI0
aI0
aI0
aI0
aI0
aI0
aI0
aa(lp3013
F0.14285714285714285
aaa(lp3014
(lp3015
I1787
aI4
aI2967
aI0
aa(lp3016
I0
aI0
aI0
aI0
aI0
aI0
aI0
aI0
aI0
aI0
aa(lp3017
F0.14285714285714285
aaa(lp3018
(lp3019
I1042
aI4
aI3085
aI0
aa(lp3020
I0
aI0
aI0
aI0
aI0
aI0
aI0
aI0
aI0
aI0
aa(lp3021
F0.14285714285714285
aaa(lp3022
(lp3023
I2653
aI4
aI2170
aI0
aa(lp3024
I0
aI0
aI0
aI0
aI0
aI0
aI0
aI0
aI0
aI0
aa(lp3025
F0.14285714285714285
aaa(lp3026
(lp3027
I429
aI4
aI3196
aI0
aa(lp3028
I0
aI0
aI0
aI0
aI0
aI0
aI0
aI0
aI0
aI0
aa(lp3029
F0.14285714285714285
aaa(lp3030
(lp3031
I1144
aI4
aI3181
aI0
aa(lp3032
I0
aI0
aI0
aI0
aI0
aI0
aI0
aI0
aI0
aI0
aa(lp3033
F0.14285714285714285
aaa(lp3034
(lp3035
I2717
aI4
aI2593
aI0
aa(lp3036
I0
aI0
aI0
aI0
aI0
aI0
aI0
aI0
aI0
aI0
aa(lp3037
F0.14285714285714285
aaa(lp3038
(lp3039
I1585
aI4
aI3059
aI0
aa(lp3040
I0
aI0
aI0
aI0
aI0
aI0
aI0
aI0
aI0
aI0
aa(lp3041
F0.14285714285714285
aaa(lp3042
(lp3043
I1500
aI4
aI3230
aI0
aa(lp3044
I0
aI0
aI0
aI0
aI0
aI0
aI0
aI0
aI0
aI0
aa(lp3045
F0.14285714285714285
aaa(lp3046
(lp3047
I1150
aI4
aI1811
aI0
aa(lp3048
I0
aI0
aI0
aI0
aI0
aI0
aI0
aI0
aI0
aI0
aa(lp3049
F0.14285714285714285
aaa(lp3050
(lp3051
I643
aI4
aI3326
aI0
aa(lp3052
I0
aI0
aI0
aI0
aI0
aI0
aI0
aI0
aI0
aI0
aa(lp3053
F0.14285714285714285
aaa(lp3054
(lp3055
I548
aI4
aI3215
aI0
aa(lp3056
I0
aI0
aI0
aI0
aI0
aI0
aI0
aI0
aI0
aI0
aa(lp3057
F0.14285714285714285
aaa(lp3058
(lp3059
I706
aI4
aI1583
aI0
aa(lp3060
I0
aI0
aI0
aI0
aI0
aI0
aI0
aI0
aI0
aI0
aa(lp3061
F0.14285714285714285
aaa(lp3062
(lp3063
I1854
aI4
aI1588
aI0
aa(lp3064
I0
aI0
aI0
aI0
aI0
aI0
aI0
aI0
aI0
aI0
aa(lp3065
F0.14285714285714285
aaa(lp3066
(lp3067
I594
aI4
aI2954
aI0
aa(lp3068
I0
aI0
aI0
aI0
aI0
aI0
aI0
aI0
aI0
aI0
aa(lp3069
F0.14285714285714285
aaa(lp3070
(lp3071
I2430
aI4
aI2102
aI0
aa(lp3072
I0
aI0
aI0
aI0
aI0
aI0
aI0
aI0
aI0
aI0
aa(lp3073
F0.14285714285714285
aaa(lp3074
(lp3075
I1467
aI4
aI2903
aI0
aa(lp3076
I0
aI0
aI0
aI0
aI0
aI0
aI0
aI0
aI0
aI0
aa(lp3077
F0.14285714285714285
aaa(lp3078
(lp3079
I1837
aI4
aI562
aI0
aa(lp3080
I0
aI0
aI0
aI0
aI0
aI0
aI0
aI0
aI0
aI0
aa(lp3081
F0.14285714285714285
aaa(lp3082
(lp3083
I2541
aI4
aI89
aI0
aa(lp3084
I0
aI0
aI0
aI0
aI0
aI0
aI0
aI0
aI0
aI0
aa(lp3085
F0.14285714285714285
aaa(lp3086
(lp3087
I1123
aI4
aI2373
aI0
aa(lp3088
I0
aI0
aI0
aI0
aI0
aI0
aI0
aI0
aI0
aI0
aa(lp3089
F0.14285714285714285
aaa(lp3090
(lp3091
I289
aI4
aI196
aI0
aa(lp3092
I0
aI0
aI0
aI0
aI0
aI0
aI0
aI0
aI0
aI0
aa(lp3093
F0.14285714285714285
aaa(lp3094
(lp3095
I713
aI4
aI883
aI0
aa(lp3096
I0
aI0
aI0
aI0
aI0
aI0
aI0
aI0
aI0
aI0
aa(lp3097
F0.14285714285714285
aaa(lp3098
(lp3099
I2097
aI4
aI658
aI0
aa(lp3100
I0
aI0
aI0
aI0
aI0
aI0
aI0
aI0
aI0
aI0
aa(lp3101
F0.14285714285714285
aaa(lp3102
(lp3103
I452
aI4
aI2877
aI0
aa(lp3104
I0
aI0
aI0
aI0
aI0
aI0
aI0
aI0
aI0
aI0
aa(lp3105
F0.14285714285714285
aaa(lp3106
(lp3107
I2239
aI4
aI1444
aI0
aa(lp3108
I0
aI0
aI0
aI0
aI0
aI0
aI0
aI0
aI0
aI0
aa(lp3109
F0.14285714285714285
aaa(lp3110
(lp3111
I1853
aI4
aI334
aI0
aa(lp3112
I0
aI0
aI0
aI0
aI0
aI0
aI0
aI0
aI0
aI0
aa(lp3113
F0.14285714285714285
aaa(lp3114
(lp3115
I1538
aI4
aI1422
aI0
aa(lp3116
I0
aI0
aI0
aI0
aI0
aI0
aI0
aI0
aI0
aI0
aa(lp3117
F0.14285714285714285
aaa(lp3118
(lp3119
I1659
aI4
aI1507
aI0
aa(lp3120
I0
aI0
aI0
aI0
aI0
aI0
aI0
aI0
aI0
aI0
aa(lp3121
F0.14285714285714285
aaa(lp3122
(lp3123
I1326
aI4
aI3245
aI0
aa(lp3124
I0
aI0
aI0
aI0
aI0
aI0
aI0
aI0
aI0
aI0
aa(lp3125
F0.14285714285714285
aaa(lp3126
(lp3127
I1204
aI4
aI1819
aI0
aa(lp3128
I0
aI0
aI0
aI0
aI0
aI0
aI0
aI0
aI0
aI0
aa(lp3129
F0.14285714285714285
aaa(lp3130
(lp3131
I254
aI4
aI2361
aI0
aa(lp3132
I0
aI0
aI0
aI0
aI0
aI0
aI0
aI0
aI0
aI0
aa(lp3133
F0.14285714285714285
aaa(lp3134
(lp3135
I1184
aI4
aI1584
aI0
aa(lp3136
I0
aI0
aI0
aI0
aI0
aI0
aI0
aI0
aI0
aI0
aa(lp3137
F0.14285714285714285
aaa(lp3138
(lp3139
I2397
aI4
aI3272
aI0
aa(lp3140
I0
aI0
aI0
aI0
aI0
aI0
aI0
aI0
aI0
aI0
aa(lp3141
F0.14285714285714285
aaa(lp3142
(lp3143
I2407
aI4
aI3349
aI0
aa(lp3144
I0
aI0
aI0
aI0
aI0
aI0
aI0
aI0
aI0
aI0
aa(lp3145
F0.14285714285714285
aaa(lp3146
(lp3147
I934
aI4
aI2719
aI0
aa(lp3148
I0
aI0
aI0
aI0
aI0
aI0
aI0
aI0
aI0
aI0
aa(lp3149
F0.14285714285714285
aaa(lp3150
(lp3151
I758
aI4
aI173
aI0
aa(lp3152
I0
aI0
aI0
aI0
aI0
aI0
aI0
aI0
aI0
aI0
aa(lp3153
F0.14285714285714285
aaa(lp3154
(lp3155
I1798
aI4
aI2632
aI0
aa(lp3156
I0
aI0
aI0
aI0
aI0
aI0
aI0
aI0
aI0
aI0
aa(lp3157
F0.14285714285714285
aaa(lp3158
(lp3159
I1033
aI4
aI2945
aI0
aa(lp3160
I0
aI0
aI0
aI0
aI0
aI0
aI0
aI0
aI0
aI0
aa(lp3161
F0.14285714285714285
aaa(lp3162
(lp3163
I2922
aI4
aI1062
aI0
aa(lp3164
I0
aI0
aI0
aI0
aI0
aI0
aI0
aI0
aI0
aI0
aa(lp3165
F0.14285714285714285
aaa(lp3166
(lp3167
I2012
aI4
aI2979
aI0
aa(lp3168
I0
aI0
aI0
aI0
aI0
aI0
aI0
aI0
aI0
aI0
aa(lp3169
F0.14285714285714285
aaa(lp3170
(lp3171
I40
aI4
aI692
aI0
aa(lp3172
I0
aI0
aI0
aI0
aI0
aI0
aI0
aI0
aI0
aI0
aa(lp3173
F0.14285714285714285
aaa(lp3174
(lp3175
I894
aI4
aI2004
aI0
aa(lp3176
I0
aI0
aI0
aI0
aI0
aI0
aI0
aI0
aI0
aI0
aa(lp3177
F0.14285714285714285
aaa(lp3178
(lp3179
I359
aI4
aI3099
aI0
aa(lp3180
I0
aI0
aI0
aI0
aI0
aI0
aI0
aI0
aI0
aI0
aa(lp3181
F0.14285714285714285
aaa(lp3182
(lp3183
I714
aI4
aI515
aI0
aa(lp3184
I0
aI0
aI0
aI0
aI0
aI0
aI0
aI0
aI0
aI0
aa(lp3185
F0.14285714285714285
aaa(lp3186
(lp3187
I2056
aI4
aI2409
aI0
aa(lp3188
I0
aI0
aI0
aI0
aI0
aI0
aI0
aI0
aI0
aI0
aa(lp3189
F0.14285714285714285
aaa(lp3190
(lp3191
I808
aI4
aI249
aI0
aa(lp3192
I0
aI0
aI0
aI0
aI0
aI0
aI0
aI0
aI0
aI0
aa(lp3193
F0.14285714285714285
aaa(lp3194
(lp3195
I999
aI4
aI3013
aI0
aa(lp3196
I0
aI0
aI0
aI0
aI0
aI0
aI0
aI0
aI0
aI0
aa(lp3197
F0.14285714285714285
aaa(lp3198
(lp3199
I2073
aI4
aI2765
aI0
aa(lp3200
I0
aI0
aI0
aI0
aI0
aI0
aI0
aI0
aI0
aI0
aa(lp3201
F0.14285714285714285
aaa(lp3202
(lp3203
I581
aI4
aI3263
aI0
aa(lp3204
I0
aI0
aI0
aI0
aI0
aI0
aI0
aI0
aI0
aI0
aa(lp3205
F0.14285714285714285
aaa(lp3206
(lp3207
I1590
aI4
aI2930
aI0
aa(lp3208
I0
aI0
aI0
aI0
aI0
aI0
aI0
aI0
aI0
aI0
aa(lp3209
F0.14285714285714285
aaa(lp3210
(lp3211
I736
aI4
aI769
aI0
aa(lp3212
I0
aI0
aI0
aI0
aI0
aI0
aI0
aI0
aI0
aI0
aa(lp3213
F0.14285714285714285
aaa(lp3214
(lp3215
I1822
aI4
aI136
aI0
aa(lp3216
I0
aI0
aI0
aI0
aI0
aI0
aI0
aI0
aI0
aI0
aa(lp3217
F0.14285714285714285
aaa(lp3218
(lp3219
I1618
aI4
aI2506
aI0
aa(lp3220
I0
aI0
aI0
aI0
aI0
aI0
aI0
aI0
aI0
aI0
aa(lp3221
F0.14285714285714285
aaa(lp3222
(lp3223
I362
aI4
aI3057
aI0
aa(lp3224
I0
aI0
aI0
aI0
aI0
aI0
aI0
aI0
aI0
aI0
aa(lp3225
F0.14285714285714285
aaa(lp3226
(lp3227
I2337
aI4
aI405
aI0
aa(lp3228
I0
aI0
aI0
aI0
aI0
aI0
aI0
aI0
aI0
aI0
aa(lp3229
F0.14285714285714285
aaa(lp3230
(lp3231
I695
aI4
aI1225
aI0
aa(lp3232
I0
aI0
aI0
aI0
aI0
aI0
aI0
aI0
aI0
aI0
aa(lp3233
F0.14285714285714285
aaa(lp3234
(lp3235
I1858
aI4
aI3236
aI0
aa(lp3236
I0
aI0
aI0
aI0
aI0
aI0
aI0
aI0
aI0
aI0
aa(lp3237
F0.14285714285714285
aaa(lp3238
(lp3239
I288
aI4
aI2200
aI0
aa(lp3240
I0
aI0
aI0
aI0
aI0
aI0
aI0
aI0
aI0
aI0
aa(lp3241
F0.14285714285714285
aaa(lp3242
(lp3243
I1595
aI4
aI2261
aI0
aa(lp3244
I0
aI0
aI0
aI0
aI0
aI0
aI0
aI0
aI0
aI0
aa(lp3245
F0.14285714285714285
aaa(lp3246
(lp3247
I2900
aI4
aI895
aI0
aa(lp3248
I0
aI0
aI0
aI0
aI0
aI0
aI0
aI0
aI0
aI0
aa(lp3249
F0.14285714285714285
aaa(lp3250
(lp3251
I1014
aI4
aI3160
aI0
aa(lp3252
I0
aI0
aI0
aI0
aI0
aI0
aI0
aI0
aI0
aI0
aa(lp3253
F0.14285714285714285
aaa(lp3254
(lp3255
I1131
aI4
aI3189
aI0
aa(lp3256
I0
aI0
aI0
aI0
aI0
aI0
aI0
aI0
aI0
aI0
aa(lp3257
F0.14285714285714285
aaa(lp3258
(lp3259
I2391
aI4
aI2094
aI0
aa(lp3260
I0
aI0
aI0
aI0
aI0
aI0
aI0
aI0
aI0
aI0
aa(lp3261
F0.14285714285714285
aaa(lp3262
(lp3263
I1237
aI4
aI381
aI0
aa(lp3264
I0
aI0
aI0
aI0
aI0
aI0
aI0
aI0
aI0
aI0
aa(lp3265
F0.14285714285714285
aaa(lp3266
(lp3267
I2641
aI4
aI835
aI0
aa(lp3268
I0
aI0
aI0
aI0
aI0
aI0
aI0
aI0
aI0
aI0
aa(lp3269
F0.14285714285714285
aaa(lp3270
(lp3271
I607
aI4
aI2827
aI0
aa(lp3272
I0
aI0
aI0
aI0
aI0
aI0
aI0
aI0
aI0
aI0
aa(lp3273
F0.14285714285714285
aaa(lp3274
(lp3275
I1875
aI4
aI799
aI0
aa(lp3276
I0
aI0
aI0
aI0
aI0
aI0
aI0
aI0
aI0
aI0
aa(lp3277
F0.14285714285714285
aaa(lp3278
(lp3279
I159
aI4
aI1862
aI0
aa(lp3280
I0
aI0
aI0
aI0
aI0
aI0
aI0
aI0
aI0
aI0
aa(lp3281
F0.14285714285714285
aaa(lp3282
(lp3283
I2017
aI4
aI660
aI0
aa(lp3284
I0
aI0
aI0
aI0
aI0
aI0
aI0
aI0
aI0
aI0
aa(lp3285
F0.14285714285714285
aaa(lp3286
(lp3287
I1258
aI4
aI1251
aI0
aa(lp3288
I0
aI0
aI0
aI0
aI0
aI0
aI0
aI0
aI0
aI0
aa(lp3289
F0.14285714285714285
aaa(lp3290
(lp3291
I3101
aI4
aI781
aI0
aa(lp3292
I0
aI0
aI0
aI0
aI0
aI0
aI0
aI0
aI0
aI0
aa(lp3293
F0.14285714285714285
aaa(lp3294
(lp3295
I291
aI4
aI184
aI0
aa(lp3296
I0
aI0
aI0
aI0
aI0
aI0
aI0
aI0
aI0
aI0
aa(lp3297
F0.14285714285714285
aaa(lp3298
(lp3299
I270
aI4
aI2777
aI0
aa(lp3300
I0
aI0
aI0
aI0
aI0
aI0
aI0
aI0
aI0
aI0
aa(lp3301
F0.14285714285714285
aaa(lp3302
(lp3303
I677
aI4
aI1998
aI0
aa(lp3304
I0
aI0
aI0
aI0
aI0
aI0
aI0
aI0
aI0
aI0
aa(lp3305
F0.14285714285714285
aaa(lp3306
(lp3307
I1056
aI4
aI3154
aI0
aa(lp3308
I0
aI0
aI0
aI0
aI0
aI0
aI0
aI0
aI0
aI0
aa(lp3309
F0.14285714285714285
aaa(lp3310
(lp3311
I921
aI4
aI2435
aI0
aa(lp3312
I0
aI0
aI0
aI0
aI0
aI0
aI0
aI0
aI0
aI0
aa(lp3313
F0.14285714285714285
aaa(lp3314
(lp3315
I2378
aI4
aI2076
aI0
aa(lp3316
I0
aI0
aI0
aI0
aI0
aI0
aI0
aI0
aI0
aI0
aa(lp3317
F0.14285714285714285
aaa(lp3318
(lp3319
I3104
aI4
aI1367
aI0
aa(lp3320
I0
aI0
aI0
aI0
aI0
aI0
aI0
aI0
aI0
aI0
aa(lp3321
F0.14285714285714285
aaa(lp3322
(lp3323
I12
aI4
aI2659
aI0
aa(lp3324
I0
aI0
aI0
aI0
aI0
aI0
aI0
aI0
aI0
aI0
aa(lp3325
F0.14285714285714285
aaa(lp3326
(lp3327
I198
aI4
aI2236
aI0
aa(lp3328
I0
aI0
aI0
aI0
aI0
aI0
aI0
aI0
aI0
aI0
aa(lp3329
F0.14285714285714285
aaa(lp3330
(lp3331
I1107
aI4
aI1187
aI0
aa(lp3332
I0
aI0
aI0
aI0
aI0
aI0
aI0
aI0
aI0
aI0
aa(lp3333
F0.14285714285714285
aaa(lp3334
(lp3335
I2543
aI4
aI2114
aI0
aa(lp3336
I0
aI0
aI0
aI0
aI0
aI0
aI0
aI0
aI0
aI0
aa(lp3337
F0.14285714285714285
aaa(lp3338
(lp3339
I1780
aI4
aI926
aI0
aa(lp3340
I0
aI0
aI0
aI0
aI0
aI0
aI0
aI0
aI0
aI0
aa(lp3341
F0.14285714285714285
aaa(lp3342
(lp3343
I2687
aI4
aI3063
aI0
aa(lp3344
I0
aI0
aI0
aI0
aI0
aI0
aI0
aI0
aI0
aI0
aa(lp3345
F0.14285714285714285
aaa(lp3346
(lp3347
I775
aI4
aI1488
aI0
aa(lp3348
I0
aI0
aI0
aI0
aI0
aI0
aI0
aI0
aI0
aI0
aa(lp3349
F0.14285714285714285
aaa(lp3350
(lp3351
I2416
aI4
aI2972
aI0
aa(lp3352
I0
aI0
aI0
aI0
aI0
aI0
aI0
aI0
aI0
aI0
aa(lp3353
F0.14285714285714285
aaa(lp3354
(lp3355
I2188
aI4
aI1024
aI0
aa(lp3356
I0
aI0
aI0
aI0
aI0
aI0
aI0
aI0
aI0
aI0
aa(lp3357
F0.14285714285714285
aaa(lp3358
(lp3359
I1637
aI4
aI686
aI0
aa(lp3360
I0
aI0
aI0
aI0
aI0
aI0
aI0
aI0
aI0
aI0
aa(lp3361
F0.14285714285714285
aaa(lp3362
(lp3363
I1700
aI4
aI3204
aI0
aa(lp3364
I0
aI0
aI0
aI0
aI0
aI0
aI0
aI0
aI0
aI0
aa(lp3365
F0.14285714285714285
aaa(lp3366
(lp3367
I933
aI4
aI1390
aI0
aa(lp3368
I0
aI0
aI0
aI0
aI0
aI0
aI0
aI0
aI0
aI0
aa(lp3369
F0.14285714285714285
aaa(lp3370
(lp3371
I1203
aI4
aI2173
aI0
aa(lp3372
I0
aI0
aI0
aI0
aI0
aI0
aI0
aI0
aI0
aI0
aa(lp3373
F0.14285714285714285
aaa(lp3374
(lp3375
I1412
aI4
aI2564
aI0
aa(lp3376
I0
aI0
aI0
aI0
aI0
aI0
aI0
aI0
aI0
aI0
aa(lp3377
F0.14285714285714285
aaa(lp3378
(lp3379
I577
aI4
aI130
aI0
aa(lp3380
I0
aI0
aI0
aI0
aI0
aI0
aI0
aI0
aI0
aI0
aa(lp3381
F0.14285714285714285
aaa(lp3382
(lp3383
I1378
aI4
aI1035
aI0
aa(lp3384
I0
aI0
aI0
aI0
aI0
aI0
aI0
aI0
aI0
aI0
aa(lp3385
F0.14285714285714285
aaa(lp3386
(lp3387
I1194
aI4
aI415
aI0
aa(lp3388
I0
aI0
aI0
aI0
aI0
aI0
aI0
aI0
aI0
aI0
aa(lp3389
F0.14285714285714285
aaa(lp3390
(lp3391
I1321
aI4
aI3270
aI0
aa(lp3392
I0
aI0
aI0
aI0
aI0
aI0
aI0
aI0
aI0
aI0
aa(lp3393
F0.14285714285714285
aaa(lp3394
(lp3395
I663
aI4
aI1138
aI0
aa(lp3396
I0
aI0
aI0
aI0
aI0
aI0
aI0
aI0
aI0
aI0
aa(lp3397
F0.14285714285714285
aaa(lp3398
(lp3399
I220
aI4
aI211
aI0
aa(lp3400
I0
aI0
aI0
aI0
aI0
aI0
aI0
aI0
aI0
aI0
aa(lp3401
F0.14285714285714285
aaa(lp3402
(lp3403
I1454
aI4
aI995
aI0
aa(lp3404
I0
aI0
aI0
aI0
aI0
aI0
aI0
aI0
aI0
aI0
aa(lp3405
F0.14285714285714285
aaa(lp3406
(lp3407
I2702
aI4
aI1817
aI0
aa(lp3408
I0
aI0
aI0
aI0
aI0
aI0
aI0
aI0
aI0
aI0
aa(lp3409
F0.14285714285714285
aaa(lp3410
(lp3411
I1364
aI4
aI2036
aI0
aa(lp3412
I0
aI0
aI0
aI0
aI0
aI0
aI0
aI0
aI0
aI0
aa(lp3413
F0.14285714285714285
aaa(lp3414
(lp3415
I1735
aI4
aI3115
aI0
aa(lp3416
I0
aI0
aI0
aI0
aI0
aI0
aI0
aI0
aI0
aI0
aa(lp3417
F0.14285714285714285
aaa(lp3418
(lp3419
I3006
aI4
aI2400
aI0
aa(lp3420
I0
aI0
aI0
aI0
aI0
aI0
aI0
aI0
aI0
aI0
aa(lp3421
F0.14285714285714285
aaa(lp3422
(lp3423
I2146
aI4
aI2330
aI0
aa(lp3424
I0
aI0
aI0
aI0
aI0
aI0
aI0
aI0
aI0
aI0
aa(lp3425
F0.14285714285714285
aaa(lp3426
(lp3427
I2144
aI4
aI223
aI0
aa(lp3428
I0
aI0
aI0
aI0
aI0
aI0
aI0
aI0
aI0
aI0
aa(lp3429
F0.14285714285714285
aaa(lp3430
(lp3431
I2485
aI4
aI1953
aI0
aa(lp3432
I0
aI0
aI0
aI0
aI0
aI0
aI0
aI0
aI0
aI0
aa(lp3433
F0.14285714285714285
aaa(lp3434
(lp3435
I777
aI4
aI3159
aI0
aa(lp3436
I0
aI0
aI0
aI0
aI0
aI0
aI0
aI0
aI0
aI0
aa(lp3437
F0.14285714285714285
aaa(lp3438
(lp3439
I701
aI4
aI478
aI0
aa(lp3440
I0
aI0
aI0
aI0
aI0
aI0
aI0
aI0
aI0
aI0
aa(lp3441
F0.14285714285714285
aaa(lp3442
(lp3443
I1556
aI4
aI1272
aI0
aa(lp3444
I0
aI0
aI0
aI0
aI0
aI0
aI0
aI0
aI0
aI0
aa(lp3445
F0.14285714285714285
aaa(lp3446
(lp3447
I2906
aI4
aI1147
aI0
aa(lp3448
I0
aI0
aI0
aI0
aI0
aI0
aI0
aI0
aI0
aI0
aa(lp3449
F0.14285714285714285
aaa(lp3450
(lp3451
I644
aI4
aI1386
aI0
aa(lp3452
I0
aI0
aI0
aI0
aI0
aI0
aI0
aI0
aI0
aI0
aa(lp3453
F0.14285714285714285
aaa(lp3454
(lp3455
I2246
aI4
aI2791
aI0
aa(lp3456
I0
aI0
aI0
aI0
aI0
aI0
aI0
aI0
aI0
aI0
aa(lp3457
F0.14285714285714285
aaa(lp3458
(lp3459
I1788
aI4
aI1196
aI0
aa(lp3460
I0
aI0
aI0
aI0
aI0
aI0
aI0
aI0
aI0
aI0
aa(lp3461
F0.14285714285714285
aaa.