(lp1
(lp2
(lp3
I66
aI7
aI67
aI0
aa(lp4
I7
aI8
aI6
aI11
aI38
aI5
aI39
aI8
aI6
aI0
aa(lp5
F0.018662262592898431
aaa(lp6
(lp7
I91
aI8
aI92
aI0
aa(lp8
I1
aI30
aI32
aI32
aI5
aI5
aI11
aI20
aI8
aI12
aa(lp9
F0.12419488026424443
aaa(lp10
(lp11
I98
aI8
aI99
aI0
aa(lp12
I28
aI8
aI1
aI3
aI32
aI3
aI1
aI11
aI4
aI5
aa(lp13
F0.12419488026424443
aaa(lp14
(lp15
I118
aI8
aI119
aI0
aa(lp16
I8
aI34
aI5
aI12
aI3
aI1
aI8
aI4
aI11
aI33
aa(lp17
F0.12419488026424443
aaa(lp18
(lp19
I122
aI8
aI123
aI0
aa(lp20
I3
aI9
aI8
aI7
aI3
aI8
aI4
aI0
aI0
aI0
aa(lp21
F0.12419488026424443
aaa(lp22
(lp23
I106
aI8
aI137
aI0
aa(lp24
I34
aI3
aI22
aI22
aI7
aI5
aI11
aI5
aI8
aI6
aa(lp25
F0.12419488026424443
aaa(lp26
(lp27
I150
aI7
aI151
aI0
aa(lp28
I7
aI30
aI6
aI11
aI8
aI4
aI39
aI5
aI7
aI5
aa(lp29
F0.018662262592898431
aaa(lp30
(lp31
I159
aI8
aI160
aI0
aa(lp32
I32
aI36
aI6
aI3
aI30
aI4
aI0
aI0
aI0
aI0
aa(lp33
F0.12419488026424443
aaa(lp34
(lp35
I161
aI8
aI162
aI0
aa(lp36
I34
aI3
aI22
aI22
aI7
aI5
aI11
aI5
aI8
aI6
aa(lp37
F0.12419488026424443
aaa(lp38
(lp39
I177
aI8
aI178
aI0
aa(lp40
I34
aI5
aI22
aI3
aI9
aI5
aI12
aI12
aI8
aI4
aa(lp41
F0.12419488026424443
aaa(lp42
(lp43
I192
aI7
aI193
aI0
aa(lp44
I4
aI5
aI29
aI11
aI21
aI30
aI12
aI31
aI0
aI0
aa(lp45
F0.018662262592898431
aaa(lp46
(lp47
I40
aI8
aI201
aI0
aa(lp48
I1
aI36
aI20
aI8
aI4
aI0
aI0
aI0
aI0
aI0
aa(lp49
F0.12419488026424443
aaa(lp50
(lp51
I44
aI8
aI206
aI0
aa(lp52
I32
aI12
aI5
aI4
aI1
aI2
aI11
aI33
aI4
aI5
aa(lp53
F0.12419488026424443
aaa(lp54
(lp55
I217
aI8
aI218
aI0
aa(lp56
I20
aI36
aI32
aI32
aI5
aI9
aI6
aI0
aI0
aI0
aa(lp57
F0.12419488026424443
aaa(lp58
(lp59
I221
aI8
aI222
aI0
aa(lp60
I3
aI9
aI8
aI7
aI3
aI8
aI4
aI0
aI0
aI0
aa(lp61
F0.12419488026424443
aaa(lp62
(lp63
I264
aI8
aI265
aI0
aa(lp64
I8
aI6
aI3
aI8
aI4
aI0
aI0
aI0
aI0
aI0
aa(lp65
F0.12419488026424443
aaa(lp66
(lp67
I270
aI8
aI271
aI0
aa(lp68
I32
aI12
aI5
aI4
aI1
aI2
aI0
aI0
aI0
aI0
aa(lp69
F0.12419488026424443
aaa(lp70
(lp71
I50
aI7
aI52
aI0
aa(lp72
I4
aI5
aI29
aI11
aI21
aI30
aI12
aI31
aI0
aI0
aa(lp73
F0.018662262592898431
aaa(lp74
(lp75
I285
aI8
aI286
aI0
aa(lp76
I1
aI30
aI4
aI9
aI3
aI4
aI5
aI4
aI9
aI8
aa(lp77
F0.12419488026424443
aaa(lp78
(lp79
I289
aI8
aI290
aI0
aa(lp80
I22
aI3
aI4
aI5
aI12
aI6
aI0
aI0
aI0
aI0
aa(lp81
F0.12419488026424443
aaa(lp82
(lp83
I314
aI8
aI315
aI0
aa(lp84
I8
aI6
aI3
aI8
aI4
aI0
aI0
aI0
aI0
aI0
aa(lp85
F0.12419488026424443
aaa(lp86
(lp87
I316
aI8
aI317
aI0
aa(lp88
I8
aI34
aI5
aI12
aI3
aI1
aI8
aI4
aI0
aI0
aa(lp89
F0.12419488026424443
aaa(lp90
(lp91
I326
aI8
aI327
aI0
aa(lp92
I1
aI30
aI4
aI9
aI3
aI4
aI5
aI4
aI9
aI8
aa(lp93
F0.12419488026424443
aaa(lp94
(lp95
I334
aI7
aI335
aI0
aa(lp96
I4
aI5
aI29
aI11
aI21
aI30
aI12
aI31
aI0
aI0
aa(lp97
F0.018662262592898431
aaa(lp98
(lp99
I354
aI8
aI355
aI0
aa(lp100
I6
aI5
aI8
aI32
aI30
aI30
aI22
aI0
aI0
aI0
aa(lp101
F0.12419488026424443
aaa(lp102
(lp103
I357
aI8
aI358
aI0
aa(lp104
I32
aI12
aI5
aI4
aI1
aI2
aI0
aI0
aI0
aI0
aa(lp105
F0.12419488026424443
aaa(lp106
(lp107
I366
aI8
aI367
aI0
aa(lp108
I5
aI1
aI7
aI5
aI1
aI9
aI3
aI1
aI0
aI0
aa(lp109
F0.12419488026424443
aaa(lp110
(lp111
I374
aI8
aI375
aI0
aa(lp112
I8
aI6
aI3
aI8
aI4
aI0
aI0
aI0
aI0
aI0
aa(lp113
F0.12419488026424443
aaa(lp114
(lp115
I383
aI8
aI384
aI0
aa(lp116
I32
aI12
aI5
aI4
aI1
aI2
aI0
aI0
aI0
aI0
aa(lp117
F0.12419488026424443
aaa(lp118
(lp119
I389
aI8
aI390
aI0
aa(lp120
I8
aI34
aI5
aI12
aI3
aI1
aI8
aI4
aI0
aI0
aa(lp121
F0.12419488026424443
aaa(lp122
(lp123
I342
aI8
aI392
aI0
aa(lp124
I2
aI8
aI34
aI20
aI36
aI12
aI39
aI5
aI12
aI6
aa(lp125
F0.12419488026424443
aaa(lp126
(lp127
I394
aI8
aI395
aI0
aa(lp128
I1
aI30
aI4
aI9
aI3
aI4
aI5
aI4
aI9
aI8
aa(lp129
F0.12419488026424443
aaa(lp130
(lp131
I397
aI8
aI320
aI0
aa(lp132
I34
aI5
aI22
aI3
aI9
aI5
aI12
aI12
aI8
aI4
aa(lp133
F0.12419488026424443
aaa(lp134
(lp135
I400
aI8
aI401
aI0
aa(lp136
I32
aI12
aI5
aI4
aI1
aI2
aI11
aI33
aI1
aI7
aa(lp137
F0.12419488026424443
aaa(lp138
(lp139
I403
aI8
aI404
aI0
aa(lp140
I1
aI30
aI32
aI32
aI5
aI5
aI11
aI20
aI8
aI12
aa(lp141
F0.12419488026424443
aaa(lp142
(lp143
I415
aI7
aI416
aI0
aa(lp144
I4
aI5
aI29
aI11
aI21
aI30
aI12
aI31
aI0
aI0
aa(lp145
F0.018662262592898431
aaa(lp146
(lp147
I362
aI8
aI439
aI0
aa(lp148
I3
aI9
aI8
aI7
aI3
aI8
aI4
aI0
aI0
aI0
aa(lp149
F0.12419488026424443
aaa(lp150
(lp151
I54
aI8
aI441
aI0
aa(lp152
I6
aI9
aI5
aI8
aI31
aI2
aI30
aI36
aI6
aI5
aa(lp153
F0.12419488026424443
aaa(lp154
(lp155
I347
aI8
aI449
aI0
aa(lp156
I8
aI34
aI5
aI12
aI3
aI1
aI8
aI4
aI0
aI0
aa(lp157
F0.12419488026424443
aaa(lp158
(lp159
I460
aI8
aI461
aI0
aa(lp160
I3
aI4
aI22
aI30
aI4
aI5
aI6
aI3
aI8
aI4
aa(lp161
F0.12419488026424443
aaa(lp162
(lp163
I481
aI8
aI482
aI0
aa(lp164
I3
aI9
aI8
aI7
aI3
aI8
aI4
aI0
aI0
aI0
aa(lp165
F0.12419488026424443
aaa(lp166
(lp167
I496
aI8
aI497
aI0
aa(lp168
I2
aI30
aI9
aI11
aI22
aI30
aI39
aI6
aI0
aI0
aa(lp169
F0.12419488026424443
aaa(lp170
(lp171
I518
aI8
aI519
aI0
aa(lp172
I1
aI8
aI7
aI3
aI32
aI30
aI12
aI4
aI3
aI8
aa(lp173
F0.12419488026424443
aaa(lp174
(lp175
I523
aI8
aI524
aI0
aa(lp176
I20
aI20
aI42
aI0
aI0
aI0
aI0
aI0
aI0
aI0
aa(lp177
F0.12419488026424443
aaa(lp178
(lp179
I534
aI7
aI462
aI0
aa(lp180
I6
aI8
aI4
aI11
aI32
aI12
aI8
aI4
aI1
aI3
aa(lp181
F0.018662262592898431
aaa(lp182
(lp183
I536
aI8
aI537
aI0
aa(lp184
I9
aI2
aI8
aI3
aI0
aI0
aI0
aI0
aI0
aI0
aa(lp185
F0.12419488026424443
aaa(lp186
(lp187
I539
aI8
aI540
aI0
aa(lp188
I8
aI34
aI5
aI12
aI3
aI1
aI8
aI4
aI11
aI33
aa(lp189
F0.12419488026424443
aaa(lp190
(lp191
I549
aI7
aI550
aI0
aa(lp192
I6
aI8
aI4
aI11
aI32
aI12
aI8
aI4
aI1
aI3
aa(lp193
F0.018662262592898431
aaa(lp194
(lp195
I573
aI8
aI574
aI0
aa(lp196
I2
aI8
aI34
aI20
aI36
aI12
aI39
aI5
aI12
aI6
aa(lp197
F0.12419488026424443
aaa(lp198
(lp199
I577
aI8
aI578
aI0
aa(lp200
I32
aI12
aI5
aI4
aI1
aI2
aI11
aI20
aI3
aI6
aa(lp201
F0.12419488026424443
aaa(lp202
(lp203
I581
aI8
aI582
aI0
aa(lp204
I8
aI6
aI3
aI8
aI4
aI0
aI0
aI0
aI0
aI0
aa(lp205
F0.12419488026424443
aaa(lp206
(lp207
I587
aI8
aI588
aI0
aa(lp208
I8
aI34
aI5
aI12
aI3
aI1
aI8
aI4
aI0
aI0
aa(lp209
F0.12419488026424443
aaa(lp210
(lp211
I603
aI8
aI604
aI0
aa(lp212
I6
aI5
aI8
aI32
aI30
aI30
aI22
aI0
aI0
aI0
aa(lp213
F0.12419488026424443
aaa(lp214
(lp215
I595
aI8
aI608
aI0
aa(lp216
I22
aI3
aI4
aI5
aI12
aI6
aI0
aI0
aI0
aI0
aa(lp217
F0.12419488026424443
aaa(lp218
(lp219
I625
aI8
aI626
aI0
aa(lp220
I5
aI8
aI6
aI9
aI11
aI5
aI36
aI12
aI30
aI28
aa(lp221
F0.12419488026424443
aaa(lp222
(lp223
I642
aI8
aI584
aI0
aa(lp224
I8
aI34
aI5
aI12
aI3
aI1
aI8
aI4
aI0
aI0
aa(lp225
F0.12419488026424443
aaa(lp226
(lp227
I661
aI8
aI662
aI0
aa(lp228
I41
aI8
aI28
aI8
aI4
aI5
aI6
aI5
aI0
aI0
aa(lp229
F0.12419488026424443
aaa(lp230
(lp231
I663
aI8
aI664
aI0
aa(lp232
I34
aI5
aI23
aI3
aI1
aI8
aI4
aI0
aI0
aI0
aa(lp233
F0.12419488026424443
aaa(lp234
(lp235
I683
aI8
aI684
aI0
aa(lp236
I41
aI8
aI28
aI8
aI4
aI5
aI6
aI5
aI0
aI0
aa(lp237
F0.12419488026424443
aaa(lp238
(lp239
I594
aI8
aI699
aI0
aa(lp240
I8
aI6
aI3
aI8
aI4
aI0
aI0
aI0
aI0
aI0
aa(lp241
F0.12419488026424443
aaa(lp242
(lp243
I701
aI8
aI702
aI0
aa(lp244
I1
aI30
aI4
aI9
aI3
aI4
aI5
aI4
aI9
aI8
aa(lp245
F0.12419488026424443
aaa(lp246
(lp247
I675
aI7
aI651
aI0
aa(lp248
I6
aI8
aI4
aI11
aI32
aI12
aI8
aI4
aI1
aI3
aa(lp249
F0.018662262592898431
aaa(lp250
(lp251
I704
aI8
aI705
aI0
aa(lp252
I0
aI0
aI0
aI0
aI0
aI0
aI0
aI0
aI0
aI0
aa(lp253
F0.12419488026424443
aaa(lp254
(lp255
I706
aI8
aI707
aI0
aa(lp256
I41
aI8
aI28
aI8
aI4
aI5
aI6
aI5
aI0
aI0
aa(lp257
F0.12419488026424443
aaa(lp258
(lp259
I709
aI8
aI710
aI0
aa(lp260
I32
aI12
aI5
aI4
aI1
aI2
aI11
aI33
aI4
aI5
aa(lp261
F0.12419488026424443
aaa(lp262
(lp263
I731
aI8
aI732
aI0
aa(lp264
I3
aI4
aI22
aI3
aI8
aI4
aI0
aI0
aI0
aI0
aa(lp265
F0.12419488026424443
aaa(lp266
(lp267
I734
aI8
aI735
aI0
aa(lp268
I1
aI8
aI12
aI3
aI20
aI20
aI5
aI8
aI4
aI0
aa(lp269
F0.12419488026424443
aaa(lp270
(lp271
I736
aI8
aI737
aI0
aa(lp272
I8
aI34
aI5
aI12
aI3
aI1
aI8
aI4
aI0
aI0
aa(lp273
F0.12419488026424443
aaa(lp274
(lp275
I85
aI7
aI86
aI0
aa(lp276
I8
aI9
aI7
aI8
aI4
aI9
aI8
aI0
aI0
aI0
aa(lp277
F0.018662262592898431
aaa(lp278
(lp279
I741
aI7
aI742
aI0
aa(lp280
I4
aI5
aI29
aI11
aI21
aI30
aI12
aI31
aI0
aI0
aa(lp281
F0.018662262592898431
aaa(lp282
(lp283
I420
aI8
aI745
aI0
aa(lp284
I6
aI5
aI8
aI32
aI30
aI30
aI22
aI0
aI0
aI0
aa(lp285
F0.12419488026424443
aaa(lp286
(lp287
I755
aI8
aI756
aI0
aa(lp288
I1
aI30
aI32
aI32
aI5
aI5
aI11
aI20
aI8
aI12
aa(lp289
F0.12419488026424443
aaa(lp290
(lp291
I758
aI8
aI759
aI0
aa(lp292
I1
aI30
aI4
aI9
aI3
aI4
aI5
aI4
aI9
aI8
aa(lp293
F0.12419488026424443
aaa(lp294
(lp295
I766
aI7
aI767
aI0
aa(lp296
I4
aI5
aI29
aI11
aI21
aI30
aI12
aI31
aI0
aI0
aa(lp297
F0.018662262592898431
aaa(lp298
(lp299
I775
aI8
aI776
aI0
aa(lp300
I20
aI36
aI32
aI32
aI5
aI9
aI6
aI0
aI0
aI0
aa(lp301
F0.12419488026424443
aaa(lp302
(lp303
I779
aI8
aI780
aI0
aa(lp304
I1
aI8
aI32
aI5
aI9
aI5
aI12
aI3
aI8
aI6
aa(lp305
F0.12419488026424443
aaa(lp306
(lp307
I782
aI8
aI783
aI0
aa(lp308
I8
aI6
aI3
aI8
aI4
aI0
aI0
aI0
aI0
aI0
aa(lp309
F0.12419488026424443
aaa(lp310
(lp311
I784
aI8
aI785
aI0
aa(lp312
I30
aI12
aI11
aI24
aI14
aI24
aI25
aI16
aI37
aI14
aa(lp313
F0.12419488026424443
aaa(lp314
(lp315
I786
aI7
aI787
aI0
aa(lp316
I6
aI8
aI4
aI9
aI8
aI11
aI34
aI30
aI4
aI3
aa(lp317
F0.018662262592898431
aaa(lp318
(lp319
I138
aI8
aI788
aI0
aa(lp320
I8
aI34
aI5
aI12
aI3
aI1
aI8
aI4
aI0
aI0
aa(lp321
F0.12419488026424443
aaa(lp322
(lp323
I800
aI8
aI801
aI0
aa(lp324
I1
aI8
aI7
aI3
aI32
aI30
aI12
aI4
aI3
aI8
aa(lp325
F0.12419488026424443
aaa(lp326
(lp327
I260
aI8
aI810
aI0
aa(lp328
I8
aI6
aI3
aI8
aI4
aI0
aI0
aI0
aI0
aI0
aa(lp329
F0.12419488026424443
aaa(lp330
(lp331
I589
aI8
aI818
aI0
aa(lp332
I2
aI8
aI34
aI20
aI36
aI12
aI39
aI5
aI12
aI6
aa(lp333
F0.12419488026424443
aaa(lp334
(lp335
I819
aI8
aI820
aI0
aa(lp336
I1
aI8
aI7
aI3
aI32
aI30
aI12
aI4
aI3
aI8
aa(lp337
F0.12419488026424443
aaa(lp338
(lp339
I821
aI7
aI822
aI0
aa(lp340
I4
aI5
aI29
aI11
aI21
aI30
aI12
aI31
aI0
aI0
aa(lp341
F0.018662262592898431
aaa(lp342
(lp343
I832
aI8
aI679
aI0
aa(lp344
I1
aI2
aI3
aI4
aI5
aI6
aI5
aI0
aI0
aI0
aa(lp345
F0.12419488026424443
aaa(lp346
(lp347
I842
aI8
aI843
aI0
aa(lp348
I8
aI34
aI5
aI12
aI3
aI1
aI8
aI4
aI0
aI0
aa(lp349
F0.12419488026424443
aaa(lp350
(lp351
I363
aI8
aI849
aI0
aa(lp352
I8
aI34
aI5
aI12
aI3
aI1
aI8
aI4
aI0
aI0
aa(lp353
F0.12419488026424443
aaa(lp354
(lp355
I851
aI8
aI247
aI0
aa(lp356
I1
aI8
aI7
aI3
aI32
aI30
aI12
aI4
aI3
aI8
aa(lp357
F0.12419488026424443
aaa(lp358
(lp359
I854
aI8
aI855
aI0
aa(lp360
I22
aI5
aI7
aI3
aI6
aI0
aI0
aI0
aI0
aI0
aa(lp361
F0.12419488026424443
aaa(lp362
(lp363
I860
aI8
aI861
aI0
aa(lp364
I41
aI8
aI28
aI8
aI4
aI5
aI6
aI5
aI0
aI0
aa(lp365
F0.12419488026424443
aaa(lp366
(lp367
I862
aI7
aI863
aI0
aa(lp368
I6
aI8
aI4
aI11
aI32
aI12
aI8
aI4
aI1
aI3
aa(lp369
F0.018662262592898431
aaa(lp370
(lp371
I868
aI8
aI869
aI0
aa(lp372
I1
aI8
aI7
aI3
aI32
aI30
aI12
aI4
aI3
aI8
aa(lp373
F0.12419488026424443
aaa(lp374
(lp375
I638
aI8
aI848
aI0
aa(lp376
I1
aI2
aI3
aI4
aI5
aI6
aI5
aI0
aI0
aI0
aa(lp377
F0.12419488026424443
aaa(lp378
(lp379
I672
aI8
aI875
aI0
aa(lp380
I9
aI2
aI8
aI3
aI0
aI0
aI0
aI0
aI0
aI0
aa(lp381
F0.12419488026424443
aaa(lp382
(lp383
I837
aI8
aI877
aI0
aa(lp384
I4
aI36
aI30
aI38
aI8
aI11
aI1
aI36
aI1
aI3
aa(lp385
F0.12419488026424443
aaa(lp386
(lp387
I879
aI8
aI880
aI0
aa(lp388
I1
aI8
aI7
aI3
aI32
aI30
aI12
aI4
aI3
aI8
aa(lp389
F0.12419488026424443
aaa(lp390
(lp391
I885
aI8
aI886
aI0
aa(lp392
I8
aI34
aI5
aI12
aI3
aI1
aI8
aI4
aI0
aI0
aa(lp393
F0.12419488026424443
aaa(lp394
(lp395
I109
aI8
aI901
aI0
aa(lp396
I1
aI30
aI4
aI9
aI3
aI4
aI5
aI4
aI9
aI8
aa(lp397
F0.12419488026424443
aaa(lp398
(lp399
I168
aI7
aI76
aI0
aa(lp400
I7
aI30
aI6
aI11
aI8
aI4
aI39
aI5
aI7
aI5
aa(lp401
F0.018662262592898431
aaa(lp402
(lp403
I908
aI8
aI909
aI0
aa(lp404
I8
aI34
aI5
aI12
aI3
aI1
aI8
aI4
aI0
aI0
aa(lp405
F0.12419488026424443
aaa(lp406
(lp407
I677
aI8
aI917
aI0
aa(lp408
I12
aI36
aI6
aI6
aI3
aI8
aI4
aI25
aI39
aI5
aa(lp409
F0.12419488026424443
aaa(lp410
(lp411
I918
aI8
aI919
aI0
aa(lp412
I32
aI12
aI5
aI4
aI1
aI2
aI11
aI33
aI4
aI5
aa(lp413
F0.12419488026424443
aaa(lp414
(lp415
I923
aI8
aI924
aI0
aa(lp416
I1
aI30
aI4
aI9
aI3
aI4
aI5
aI4
aI9
aI8
aa(lp417
F0.12419488026424443
aaa(lp418
(lp419
I941
aI8
aI942
aI0
aa(lp420
I8
aI34
aI5
aI12
aI3
aI1
aI8
aI4
aI0
aI0
aa(lp421
F0.12419488026424443
aaa(lp422
(lp423
I951
aI8
aI952
aI0
aa(lp424
I7
aI8
aI9
aI3
aI4
aI11
aI8
aI34
aI5
aI12
aa(lp425
F0.12419488026424443
aaa(lp426
(lp427
I954
aI8
aI955
aI0
aa(lp428
I32
aI12
aI5
aI4
aI1
aI2
aI0
aI0
aI0
aI0
aa(lp429
F0.12419488026424443
aaa(lp430
(lp431
I967
aI8
aI968
aI0
aa(lp432
I32
aI12
aI5
aI4
aI1
aI2
aI0
aI0
aI0
aI0
aa(lp433
F0.12419488026424443
aaa(lp434
(lp435
I353
aI8
aI978
aI0
aa(lp436
I8
aI6
aI3
aI8
aI4
aI0
aI0
aI0
aI0
aI0
aa(lp437
F0.12419488026424443
aaa(lp438
(lp439
I981
aI8
aI982
aI0
aa(lp440
I8
aI34
aI5
aI12
aI3
aI1
aI8
aI4
aI0
aI0
aa(lp441
F0.12419488026424443
aaa(lp442
(lp443
I912
aI8
aI984
aI0
aa(lp444
I8
aI34
aI5
aI12
aI3
aI1
aI8
aI4
aI0
aI0
aa(lp445
F0.12419488026424443
aaa(lp446
(lp447
I985
aI8
aI986
aI0
aa(lp448
I8
aI34
aI5
aI12
aI3
aI1
aI8
aI4
aI11
aI33
aa(lp449
F0.12419488026424443
aaa(lp450
(lp451
I883
aI7
aI993
aI0
aa(lp452
I4
aI5
aI29
aI11
aI21
aI30
aI12
aI31
aI0
aI0
aa(lp453
F0.018662262592898431
aaa(lp454
(lp455
I164
aI8
aI994
aI0
aa(lp456
I4
aI30
aI30
aI22
aI7
aI5
aI11
aI6
aI2
aI30
aa(lp457
F0.12419488026424443
aaa(lp458
(lp459
I1001
aI8
aI1002
aI0
aa(lp460
I1
aI30
aI32
aI32
aI5
aI5
aI11
aI20
aI8
aI12
aa(lp461
F0.12419488026424443
aaa(lp462
(lp463
I1009
aI8
aI1010
aI0
aa(lp464
I1
aI30
aI4
aI9
aI3
aI4
aI5
aI4
aI9
aI8
aa(lp465
F0.12419488026424443
aaa(lp466
(lp467
I1012
aI8
aI269
aI0
aa(lp468
I1
aI30
aI32
aI32
aI5
aI5
aI11
aI20
aI8
aI12
aa(lp469
F0.12419488026424443
aaa(lp470
(lp471
I979
aI8
aI1013
aI0
aa(lp472
I34
aI5
aI23
aI3
aI1
aI8
aI4
aI25
aI7
aI8
aa(lp473
F0.12419488026424443
aaa(lp474
(lp475
I1027
aI8
aI1028
aI0
aa(lp476
I8
aI34
aI5
aI12
aI3
aI1
aI8
aI4
aI0
aI0
aa(lp477
F0.12419488026424443
aaa(lp478
(lp479
I686
aI7
aI1029
aI0
aa(lp480
I2
aI30
aI7
aI7
aI21
aI29
aI30
aI30
aI22
aI0
aa(lp481
F0.018662262592898431
aaa(lp482
(lp483
I1030
aI7
aI1031
aI0
aa(lp484
I7
aI8
aI6
aI11
aI38
aI5
aI39
aI8
aI6
aI0
aa(lp485
F0.018662262592898431
aaa(lp486
(lp487
I617
aI8
aI1037
aI0
aa(lp488
I8
aI34
aI5
aI12
aI3
aI1
aI8
aI4
aI11
aI33
aa(lp489
F0.12419488026424443
aaa(lp490
(lp491
I154
aI8
aI1054
aI0
aa(lp492
I22
aI5
aI7
aI3
aI6
aI0
aI0
aI0
aI0
aI0
aa(lp493
F0.12419488026424443
aaa(lp494
(lp495
I1056
aI8
aI1057
aI0
aa(lp496
I6
aI9
aI5
aI8
aI31
aI2
aI30
aI36
aI6
aI5
aa(lp497
F0.12419488026424443
aaa(lp498
(lp499
I1062
aI7
aI1063
aI0
aa(lp500
I4
aI5
aI29
aI11
aI21
aI30
aI12
aI31
aI0
aI0
aa(lp501
F0.018662262592898431
aaa(lp502
(lp503
I1076
aI8
aI1077
aI0
aa(lp504
I1
aI30
aI32
aI32
aI5
aI5
aI11
aI6
aI2
aI30
aa(lp505
F0.12419488026424443
aaa(lp506
(lp507
I1080
aI7
aI939
aI0
aa(lp508
I7
aI30
aI6
aI11
aI8
aI4
aI39
aI5
aI7
aI5
aa(lp509
F0.018662262592898431
aaa(lp510
(lp511
I1085
aI8
aI1086
aI0
aa(lp512
I6
aI30
aI36
aI9
aI2
aI5
aI12
aI4
aI25
aI6
aa(lp513
F0.12419488026424443
aaa(lp514
(lp515
I1090
aI8
aI1091
aI0
aa(lp516
I9
aI2
aI8
aI3
aI0
aI0
aI0
aI0
aI0
aI0
aa(lp517
F0.12419488026424443
aaa(lp518
(lp519
I1102
aI8
aI1103
aI0
aa(lp520
I3
aI9
aI8
aI7
aI3
aI8
aI4
aI0
aI0
aI0
aa(lp521
F0.12419488026424443
aaa(lp522
(lp523
I1121
aI8
aI1122
aI0
aa(lp524
I32
aI12
aI5
aI4
aI1
aI2
aI0
aI0
aI0
aI0
aa(lp525
F0.12419488026424443
aaa(lp526
(lp527
I1123
aI8
aI1124
aI0
aa(lp528
I3
aI9
aI8
aI7
aI3
aI8
aI4
aI0
aI0
aI0
aa(lp529
F0.12419488026424443
aaa(lp530
(lp531
I463
aI8
aI1142
aI0
aa(lp532
I1
aI30
aI4
aI9
aI3
aI4
aI5
aI4
aI9
aI8
aa(lp533
F0.12419488026424443
aaa(lp534
(lp535
I1169
aI8
aI1170
aI0
aa(lp536
I28
aI8
aI4
aI15
aI8
aI6
aI3
aI8
aI4
aI0
aa(lp537
F0.12419488026424443
aaa(lp538
(lp539
I1184
aI8
aI667
aI0
aa(lp540
I8
aI34
aI5
aI12
aI3
aI1
aI8
aI4
aI0
aI0
aa(lp541
F0.12419488026424443
aaa(lp542
(lp543
I1189
aI8
aI1190
aI0
aa(lp544
I8
aI34
aI5
aI12
aI3
aI1
aI8
aI4
aI11
aI33
aa(lp545
F0.12419488026424443
aaa(lp546
(lp547
I124
aI8
aI1201
aI0
aa(lp548
I8
aI34
aI5
aI12
aI3
aI1
aI8
aI4
aI0
aI0
aa(lp549
F0.12419488026424443
aaa(lp550
(lp551
I242
aI8
aI1210
aI0
aa(lp552
I1
aI30
aI4
aI9
aI3
aI4
aI5
aI4
aI9
aI8
aa(lp553
F0.12419488026424443
aaa(lp554
(lp555
I1215
aI8
aI1216
aI0
aa(lp556
I8
aI6
aI3
aI8
aI4
aI0
aI0
aI0
aI0
aI0
aa(lp557
F0.12419488026424443
aaa(lp558
(lp559
I1217
aI8
aI1218
aI0
aa(lp560
I2
aI5
aI8
aI7
aI9
aI2
aI11
aI32
aI30
aI30
aa(lp561
F0.12419488026424443
aaa(lp562
(lp563
I1219
aI7
aI487
aI0
aa(lp564
I4
aI5
aI29
aI11
aI21
aI30
aI12
aI31
aI0
aI0
aa(lp565
F0.018662262592898431
aaa(lp566
(lp567
I856
aI8
aI1224
aI0
aa(lp568
I1
aI8
aI7
aI3
aI32
aI30
aI12
aI4
aI3
aI8
aa(lp569
F0.12419488026424443
aaa(lp570
(lp571
I1225
aI7
aI1226
aI0
aa(lp572
I6
aI8
aI4
aI11
aI32
aI12
aI8
aI4
aI1
aI3
aa(lp573
F0.018662262592898431
aaa(lp574
(lp575
I1149
aI8
aI1227
aI0
aa(lp576
I6
aI5
aI8
aI32
aI30
aI30
aI22
aI0
aI0
aI0
aa(lp577
F0.12419488026424443
aaa(lp578
(lp579
I1243
aI8
aI1244
aI0
aa(lp580
I8
aI34
aI5
aI12
aI3
aI1
aI8
aI4
aI0
aI0
aa(lp581
F0.12419488026424443
aaa(lp582
(lp583
I451
aI8
aI654
aI0
aa(lp584
I3
aI9
aI8
aI7
aI3
aI8
aI4
aI0
aI0
aI0
aa(lp585
F0.12419488026424443
aaa(lp586
(lp587
I836
aI8
aI1269
aI0
aa(lp588
I5
aI8
aI6
aI9
aI5
aI12
aI4
aI11
aI5
aI36
aa(lp589
F0.12419488026424443
aaa(lp590
(lp591
I1278
aI8
aI396
aI0
aa(lp592
I3
aI9
aI8
aI7
aI3
aI8
aI4
aI0
aI0
aI0
aa(lp593
F0.12419488026424443
aaa(lp594
(lp595
I409
aI8
aI1285
aI0
aa(lp596
I6
aI5
aI8
aI32
aI30
aI30
aI22
aI0
aI0
aI0
aa(lp597
F0.12419488026424443
aaa(lp598
(lp599
I1300
aI8
aI1301
aI0
aa(lp600
I1
aI8
aI7
aI3
aI32
aI30
aI12
aI4
aI3
aI8
aa(lp601
F0.12419488026424443
aaa(lp602
(lp603
I1014
aI8
aI1303
aI0
aa(lp604
I3
aI9
aI8
aI7
aI3
aI8
aI4
aI0
aI0
aI0
aa(lp605
F0.12419488026424443
aaa(lp606
(lp607
I1315
aI8
aI1316
aI0
aa(lp608
I9
aI2
aI8
aI3
aI0
aI0
aI0
aI0
aI0
aI0
aa(lp609
F0.12419488026424443
aaa(lp610
(lp611
I1327
aI7
aI1328
aI0
aa(lp612
I4
aI5
aI29
aI11
aI21
aI30
aI12
aI31
aI0
aI0
aa(lp613
F0.018662262592898431
aaa(lp614
(lp615
I1342
aI8
aI1343
aI0
aa(lp616
I34
aI5
aI23
aI3
aI1
aI8
aI4
aI0
aI0
aI0
aa(lp617
F0.12419488026424443
aaa(lp618
(lp619
I1344
aI8
aI798
aI0
aa(lp620
I6
aI30
aI36
aI9
aI2
aI5
aI12
aI4
aI0
aI0
aa(lp621
F0.12419488026424443
aaa(lp622
(lp623
I402
aI8
aI1345
aI0
aa(lp624
I8
aI6
aI3
aI8
aI4
aI0
aI0
aI0
aI0
aI0
aa(lp625
F0.12419488026424443
aaa(lp626
(lp627
I796
aI8
aI1357
aI0
aa(lp628
I1
aI8
aI12
aI3
aI20
aI20
aI5
aI8
aI4
aI0
aa(lp629
F0.12419488026424443
aaa(lp630
(lp631
I1361
aI8
aI1362
aI0
aa(lp632
I34
aI5
aI22
aI3
aI9
aI5
aI12
aI12
aI8
aI4
aa(lp633
F0.12419488026424443
aaa(lp634
(lp635
I1365
aI7
aI1366
aI0
aa(lp636
I7
aI30
aI6
aI11
aI8
aI4
aI39
aI5
aI7
aI5
aa(lp637
F0.018662262592898431
aaa(lp638
(lp639
I1378
aI8
aI586
aI0
aa(lp640
I34
aI5
aI23
aI3
aI1
aI8
aI4
aI0
aI0
aI0
aa(lp641
F0.12419488026424443
aaa(lp642
(lp643
I1132
aI8
aI1385
aI0
aa(lp644
I1
aI36
aI20
aI8
aI4
aI0
aI0
aI0
aI0
aI0
aa(lp645
F0.12419488026424443
aaa(lp646
(lp647
I1386
aI7
aI1387
aI0
aa(lp648
I4
aI5
aI29
aI11
aI21
aI30
aI12
aI31
aI0
aI0
aa(lp649
F0.018662262592898431
aaa(lp650
(lp651
I1388
aI8
aI1389
aI0
aa(lp652
I8
aI34
aI5
aI12
aI3
aI1
aI8
aI4
aI0
aI0
aa(lp653
F0.12419488026424443
aaa(lp654
(lp655
I1395
aI8
aI1396
aI0
aa(lp656
I3
aI9
aI8
aI7
aI3
aI8
aI4
aI0
aI0
aI0
aa(lp657
F0.12419488026424443
aaa(lp658
(lp659
I643
aI8
aI1402
aI0
aa(lp660
I34
aI5
aI23
aI3
aI1
aI8
aI4
aI0
aI0
aI0
aa(lp661
F0.12419488026424443
aaa(lp662
(lp663
I1403
aI7
aI1401
aI0
aa(lp664
I4
aI5
aI29
aI11
aI21
aI30
aI12
aI31
aI0
aI0
aa(lp665
F0.018662262592898431
aaa(lp666
(lp667
I1406
aI8
aI1008
aI0
aa(lp668
I6
aI5
aI8
aI32
aI30
aI30
aI22
aI0
aI0
aI0
aa(lp669
F0.12419488026424443
aaa(lp670
(lp671
I1407
aI7
aI1408
aI0
aa(lp672
I4
aI5
aI29
aI11
aI21
aI30
aI12
aI31
aI0
aI0
aa(lp673
F0.018662262592898431
aaa(lp674
(lp675
I58
aI8
aI599
aI0
aa(lp676
I20
aI20
aI42
aI0
aI0
aI0
aI0
aI0
aI0
aI0
aa(lp677
F0.12419488026424443
aaa(lp678
(lp679
I489
aI8
aI227
aI0
aa(lp680
I8
aI34
aI5
aI12
aI3
aI1
aI8
aI4
aI0
aI0
aa(lp681
F0.12419488026424443
aaa(lp682
(lp683
I1058
aI8
aI1437
aI0
aa(lp684
I34
aI5
aI22
aI3
aI9
aI5
aI12
aI12
aI8
aI4
aa(lp685
F0.12419488026424443
aaa(lp686
(lp687
I1442
aI8
aI1346
aI0
aa(lp688
I3
aI9
aI8
aI7
aI3
aI8
aI4
aI0
aI0
aI0
aa(lp689
F0.12419488026424443
aaa(lp690
(lp691
I1443
aI8
aI943
aI0
aa(lp692
I8
aI34
aI5
aI12
aI3
aI1
aI8
aI4
aI0
aI0
aa(lp693
F0.12419488026424443
aaa(lp694
(lp695
I1445
aI8
aI1446
aI0
aa(lp696
I9
aI2
aI8
aI3
aI0
aI0
aI0
aI0
aI0
aI0
aa(lp697
F0.12419488026424443
aaa(lp698
(lp699
I1457
aI8
aI1458
aI0
aa(lp700
I32
aI12
aI5
aI4
aI1
aI2
aI11
aI20
aI3
aI6
aa(lp701
F0.12419488026424443
aaa(lp702
(lp703
I614
aI8
aI738
aI0
aa(lp704
I8
aI34
aI5
aI12
aI3
aI1
aI8
aI4
aI0
aI0
aa(lp705
F0.12419488026424443
aaa(lp706
(lp707
I1467
aI8
aI1468
aI0
aa(lp708
I3
aI9
aI8
aI7
aI3
aI8
aI4
aI0
aI0
aI0
aa(lp709
F0.12419488026424443
aaa(lp710
(lp711
I1263
aI8
aI882
aI0
aa(lp712
I1
aI30
aI32
aI32
aI5
aI5
aI11
aI20
aI8
aI12
aa(lp713
F0.12419488026424443
aaa(lp714
(lp715
I421
aI8
aI1478
aI0
aa(lp716
I32
aI12
aI5
aI4
aI1
aI2
aI11
aI33
aI1
aI7
aa(lp717
F0.12419488026424443
aaa(lp718
(lp719
I750
aI8
aI1483
aI0
aa(lp720
I5
aI1
aI7
aI5
aI1
aI9
aI3
aI1
aI0
aI0
aa(lp721
F0.12419488026424443
aaa(lp722
(lp723
I827
aI8
aI1487
aI0
aa(lp724
I6
aI9
aI5
aI8
aI31
aI2
aI30
aI36
aI6
aI5
aa(lp725
F0.12419488026424443
aaa(lp726
(lp727
I1489
aI7
aI1490
aI0
aa(lp728
I4
aI5
aI29
aI11
aI21
aI30
aI12
aI31
aI0
aI0
aa(lp729
F0.018662262592898431
aaa(lp730
(lp731
I1496
aI8
aI1497
aI0
aa(lp732
I8
aI34
aI5
aI12
aI3
aI1
aI8
aI4
aI0
aI0
aa(lp733
F0.12419488026424443
aaa(lp734
(lp735
I1245
aI7
aI1498
aI0
aa(lp736
I6
aI8
aI4
aI11
aI32
aI12
aI8
aI4
aI1
aI3
aa(lp737
F0.018662262592898431
aaa(lp738
(lp739
I1208
aI8
aI1502
aI0
aa(lp740
I1
aI8
aI34
aI20
aI30
aI22
aI3
aI8
aI4
aI0
aa(lp741
F0.12419488026424443
aaa(lp742
(lp743
I1511
aI8
aI1512
aI0
aa(lp744
I8
aI34
aI5
aI12
aI3
aI1
aI8
aI4
aI0
aI0
aa(lp745
F0.12419488026424443
aaa(lp746
(lp747
I746
aI8
aI1518
aI0
aa(lp748
I22
aI3
aI4
aI5
aI12
aI6
aI0
aI0
aI0
aI0
aa(lp749
F0.12419488026424443
aaa(lp750
(lp751
I1520
aI8
aI1521
aI0
aa(lp752
I8
aI34
aI5
aI12
aI3
aI1
aI8
aI4
aI0
aI0
aa(lp753
F0.12419488026424443
aaa(lp754
(lp755
I552
aI8
aI1527
aI0
aa(lp756
I1
aI30
aI32
aI32
aI5
aI5
aI11
aI6
aI2
aI30
aa(lp757
F0.12419488026424443
aaa(lp758
(lp759
I1529
aI8
aI1530
aI0
aa(lp760
I1
aI8
aI7
aI3
aI32
aI30
aI12
aI4
aI3
aI8
aa(lp761
F0.12419488026424443
aaa(lp762
(lp763
I430
aI8
aI1548
aI0
aa(lp764
I20
aI8
aI12
aI20
aI5
aI1
aI36
aI5
aI0
aI0
aa(lp765
F0.12419488026424443
aaa(lp766
(lp767
I673
aI8
aI1549
aI0
aa(lp768
I8
aI34
aI5
aI12
aI3
aI1
aI8
aI4
aI11
aI33
aa(lp769
F0.12419488026424443
aaa(lp770
(lp771
I299
aI8
aI1552
aI0
aa(lp772
I6
aI9
aI5
aI8
aI31
aI2
aI30
aI36
aI6
aI5
aa(lp773
F0.12419488026424443
aaa(lp774
(lp775
I1566
aI7
aI1567
aI0
aa(lp776
I7
aI8
aI6
aI11
aI38
aI5
aI39
aI8
aI6
aI0
aa(lp777
F0.018662262592898431
aaa(lp778
(lp779
I1568
aI8
aI1569
aI0
aa(lp780
I5
aI1
aI7
aI5
aI1
aI9
aI3
aI1
aI0
aI0
aa(lp781
F0.12419488026424443
aaa(lp782
(lp783
I1448
aI8
aI1571
aI0
aa(lp784
I3
aI9
aI8
aI7
aI3
aI8
aI4
aI0
aI0
aI0
aa(lp785
F0.12419488026424443
aaa(lp786
(lp787
I1573
aI8
aI1574
aI0
aa(lp788
I2
aI8
aI34
aI20
aI36
aI12
aI39
aI5
aI12
aI6
aa(lp789
F0.12419488026424443
aaa(lp790
(lp791
I1580
aI8
aI1581
aI0
aa(lp792
I8
aI34
aI5
aI12
aI3
aI1
aI8
aI4
aI0
aI0
aa(lp793
F0.12419488026424443
aaa(lp794
(lp795
I1582
aI8
aI446
aI0
aa(lp796
I8
aI34
aI5
aI12
aI3
aI1
aI8
aI4
aI0
aI0
aa(lp797
F0.12419488026424443
aaa(lp798
(lp799
I434
aI8
aI1591
aI0
aa(lp800
I6
aI5
aI8
aI32
aI30
aI30
aI22
aI0
aI0
aI0
aa(lp801
F0.12419488026424443
aaa(lp802
(lp803
I1593
aI8
aI546
aI0
aa(lp804
I1
aI2
aI3
aI4
aI5
aI6
aI5
aI0
aI0
aI0
aa(lp805
F0.12419488026424443
aaa(lp806
(lp807
I1595
aI8
aI1596
aI0
aa(lp808
I6
aI9
aI5
aI8
aI31
aI2
aI30
aI36
aI6
aI5
aa(lp809
F0.12419488026424443
aaa(lp810
(lp811
I1254
aI7
aI1597
aI0
aa(lp812
I4
aI5
aI29
aI11
aI21
aI30
aI12
aI31
aI0
aI0
aa(lp813
F0.018662262592898431
aaa(lp814
(lp815
I1204
aI8
aI1600
aI0
aa(lp816
I22
aI3
aI38
aI5
aI11
aI8
aI34
aI5
aI12
aI3
aa(lp817
F0.12419488026424443
aaa(lp818
(lp819
I605
aI8
aI1610
aI0
aa(lp820
I3
aI4
aI9
aI5
aI12
aI4
aI8
aI9
aI3
aI30
aa(lp821
F0.12419488026424443
aaa(lp822
(lp823
I910
aI8
aI815
aI0
aa(lp824
I2
aI8
aI34
aI20
aI36
aI12
aI39
aI5
aI12
aI6
aa(lp825
F0.12419488026424443
aaa(lp826
(lp827
I1618
aI8
aI1619
aI0
aa(lp828
I6
aI9
aI5
aI8
aI31
aI11
aI2
aI30
aI36
aI6
aa(lp829
F0.12419488026424443
aaa(lp830
(lp831
I674
aI7
aI1635
aI0
aa(lp832
I4
aI5
aI29
aI11
aI21
aI30
aI12
aI31
aI0
aI0
aa(lp833
F0.018662262592898431
aaa(lp834
(lp835
I443
aI8
aI1636
aI0
aa(lp836
I6
aI9
aI5
aI8
aI31
aI2
aI30
aI36
aI6
aI5
aa(lp837
F0.12419488026424443
aaa(lp838
(lp839
I1087
aI8
aI1647
aI0
aa(lp840
I3
aI9
aI8
aI7
aI3
aI8
aI4
aI0
aI0
aI0
aa(lp841
F0.12419488026424443
aaa(lp842
(lp843
I1321
aI8
aI1650
aI0
aa(lp844
I8
aI34
aI5
aI12
aI3
aI1
aI8
aI4
aI11
aI33
aa(lp845
F0.12419488026424443
aaa(lp846
(lp847
I1427
aI8
aI1171
aI0
aa(lp848
I1
aI2
aI3
aI4
aI5
aI6
aI5
aI0
aI0
aI0
aa(lp849
F0.12419488026424443
aaa(lp850
(lp851
I852
aI8
aI1667
aI0
aa(lp852
I28
aI8
aI1
aI3
aI32
aI3
aI1
aI11
aI4
aI5
aa(lp853
F0.12419488026424443
aaa(lp854
(lp855
I824
aI8
aI1669
aI0
aa(lp856
I8
aI34
aI5
aI12
aI3
aI1
aI8
aI4
aI0
aI0
aa(lp857
F0.12419488026424443
aaa(lp858
(lp859
I1671
aI8
aI1672
aI0
aa(lp860
I8
aI34
aI5
aI12
aI3
aI1
aI8
aI4
aI0
aI0
aa(lp861
F0.12419488026424443
aaa(lp862
(lp863
I1673
aI8
aI1674
aI0
aa(lp864
I32
aI12
aI5
aI4
aI1
aI2
aI0
aI0
aI0
aI0
aa(lp865
F0.12419488026424443
aaa(lp866
(lp867
I1676
aI8
aI859
aI0
aa(lp868
I3
aI9
aI8
aI7
aI3
aI8
aI4
aI0
aI0
aI0
aa(lp869
F0.12419488026424443
aaa(lp870
(lp871
I1680
aI8
aI1681
aI0
aa(lp872
I8
aI34
aI5
aI12
aI3
aI1
aI8
aI4
aI11
aI33
aa(lp873
F0.12419488026424443
aaa(lp874
(lp875
I1347
aI8
aI1691
aI0
aa(lp876
I8
aI34
aI5
aI12
aI3
aI1
aI8
aI4
aI11
aI33
aa(lp877
F0.12419488026424443
aaa(lp878
(lp879
I241
aI8
aI1695
aI0
aa(lp880
I1
aI30
aI32
aI32
aI5
aI5
aI11
aI20
aI8
aI12
aa(lp881
F0.12419488026424443
aaa(lp882
(lp883
I37
aI8
aI1702
aI0
aa(lp884
I6
aI5
aI8
aI32
aI30
aI30
aI22
aI0
aI0
aI0
aa(lp885
F0.12419488026424443
aaa(lp886
(lp887
I1706
aI8
aI1707
aI0
aa(lp888
I1
aI2
aI3
aI4
aI5
aI6
aI5
aI0
aI0
aI0
aa(lp889
F0.12419488026424443
aaa(lp890
(lp891
I1713
aI8
aI1714
aI0
aa(lp892
I22
aI5
aI6
aI6
aI5
aI12
aI9
aI6
aI0
aI0
aa(lp893
F0.12419488026424443
aaa(lp894
(lp895
I956
aI8
aI313
aI0
aa(lp896
I32
aI12
aI5
aI4
aI1
aI2
aI0
aI0
aI0
aI0
aa(lp897
F0.12419488026424443
aaa(lp898
(lp899
I1720
aI8
aI1721
aI0
aa(lp900
I1
aI8
aI41
aI36
aI4
aI25
aI1
aI12
aI5
aI30
aa(lp901
F0.12419488026424443
aaa(lp902
(lp903
I1725
aI8
aI0
aI0
aa(lp904
I1
aI2
aI3
aI4
aI5
aI6
aI5
aI0
aI0
aI0
aa(lp905
F0.12419488026424443
aaa(lp906
(lp907
I680
aI8
aI1145
aI0
aa(lp908
I1
aI30
aI4
aI9
aI3
aI4
aI5
aI4
aI9
aI8
aa(lp909
F0.12419488026424443
aaa(lp910
(lp911
I1728
aI7
aI1729
aI0
aa(lp912
I7
aI30
aI6
aI11
aI8
aI4
aI39
aI5
aI7
aI5
aa(lp913
F0.018662262592898431
aaa(lp914
(lp915
I1737
aI8
aI1064
aI0
aa(lp916
I8
aI34
aI5
aI12
aI3
aI1
aI8
aI4
aI0
aI0
aa(lp917
F0.12419488026424443
aaa(lp918
(lp919
I1739
aI8
aI765
aI0
aa(lp920
I3
aI9
aI8
aI7
aI3
aI8
aI4
aI0
aI0
aI0
aa(lp921
F0.12419488026424443
aaa(lp922
(lp923
I1742
aI7
aI1743
aI0
aa(lp924
I6
aI8
aI4
aI11
aI32
aI12
aI8
aI4
aI1
aI3
aa(lp925
F0.018662262592898431
aaa(lp926
(lp927
I621
aI8
aI1570
aI0
aa(lp928
I3
aI4
aI22
aI3
aI8
aI4
aI0
aI0
aI0
aI0
aa(lp929
F0.12419488026424443
aaa(lp930
(lp931
I1755
aI8
aI1756
aI0
aa(lp932
I8
aI6
aI3
aI8
aI4
aI0
aI0
aI0
aI0
aI0
aa(lp933
F0.12419488026424443
aaa(lp934
(lp935
I1757
aI8
aI1758
aI0
aa(lp936
I3
aI9
aI8
aI7
aI3
aI8
aI4
aI0
aI0
aI0
aa(lp937
F0.12419488026424443
aaa(lp938
(lp939
I1762
aI8
aI729
aI0
aa(lp940
I32
aI12
aI5
aI4
aI1
aI2
aI0
aI0
aI0
aI0
aa(lp941
F0.12419488026424443
aaa(lp942
(lp943
I1780
aI8
aI757
aI0
aa(lp944
I32
aI12
aI5
aI4
aI1
aI2
aI0
aI0
aI0
aI0
aa(lp945
F0.12419488026424443
aaa(lp946
(lp947
I1782
aI8
aI1783
aI0
aa(lp948
I6
aI5
aI8
aI32
aI30
aI30
aI22
aI0
aI0
aI0
aa(lp949
F0.12419488026424443
aaa(lp950
(lp951
I1515
aI7
aI1517
aI0
aa(lp952
I4
aI5
aI29
aI11
aI21
aI30
aI12
aI31
aI0
aI0
aa(lp953
F0.018662262592898431
aaa(lp954
(lp955
I1798
aI8
aI1799
aI0
aa(lp956
I7
aI8
aI9
aI3
aI4
aI11
aI8
aI34
aI5
aI12
aa(lp957
F0.12419488026424443
aaa(lp958
(lp959
I230
aI8
aI1812
aI0
aa(lp960
I4
aI30
aI30
aI22
aI7
aI5
aI11
aI6
aI2
aI30
aa(lp961
F0.12419488026424443
aaa(lp962
(lp963
I1822
aI8
aI1823
aI0
aa(lp964
I32
aI12
aI5
aI4
aI1
aI2
aI11
aI33
aI1
aI7
aa(lp965
F0.12419488026424443
aaa(lp966
(lp967
I30
aI8
aI1751
aI0
aa(lp968
I6
aI30
aI36
aI9
aI2
aI29
aI5
aI6
aI9
aI5
aa(lp969
F0.12419488026424443
aaa(lp970
(lp971
I1831
aI8
aI1832
aI0
aa(lp972
I6
aI28
aI8
aI4
aI3
aI6
aI2
aI0
aI0
aI0
aa(lp973
F0.12419488026424443
aaa(lp974
(lp975
I1358
aI8
aI1834
aI0
aa(lp976
I1
aI30
aI32
aI32
aI5
aI5
aI11
aI20
aI8
aI12
aa(lp977
F0.12419488026424443
aaa(lp978
(lp979
I1839
aI8
aI1730
aI0
aa(lp980
I3
aI9
aI8
aI7
aI3
aI8
aI4
aI0
aI0
aI0
aa(lp981
F0.12419488026424443
aaa(lp982
(lp983
I763
aI8
aI1843
aI0
aa(lp984
I8
aI34
aI5
aI12
aI3
aI1
aI8
aI4
aI11
aI33
aa(lp985
F0.12419488026424443
aaa(lp986
(lp987
I1854
aI8
aI1855
aI0
aa(lp988
I1
aI8
aI12
aI3
aI20
aI20
aI5
aI8
aI4
aI0
aa(lp989
F0.12419488026424443
aaa(lp990
(lp991
I1856
aI8
aI495
aI0
aa(lp992
I8
aI34
aI5
aI12
aI3
aI1
aI8
aI4
aI0
aI0
aa(lp993
F0.12419488026424443
aaa(lp994
(lp995
I1872
aI8
aI740
aI0
aa(lp996
I8
aI34
aI5
aI12
aI3
aI1
aI8
aI4
aI0
aI0
aa(lp997
F0.12419488026424443
aaa(lp998
(lp999
I1875
aI8
aI1876
aI0
aa(lp1000
I3
aI9
aI8
aI7
aI3
aI8
aI4
aI0
aI0
aI0
aa(lp1001
F0.12419488026424443
aaa(lp1002
(lp1003
I1280
aI8
aI1267
aI0
aa(lp1004
I28
aI3
aI10
aI10
aI8
aI0
aI0
aI0
aI0
aI0
aa(lp1005
F0.12419488026424443
aaa(lp1006
(lp1007
I1736
aI8
aI1894
aI0
aa(lp1008
I8
aI34
aI5
aI12
aI3
aI1
aI8
aI4
aI0
aI0
aa(lp1009
F0.12419488026424443
aaa(lp1010
(lp1011
I1897
aI7
aI1898
aI0
aa(lp1012
I6
aI9
aI36
aI22
aI3
aI30
aI11
aI1
aI3
aI9
aa(lp1013
F0.018662262592898431
aaa(lp1014
(lp1015
I809
aI8
aI1899
aI0
aa(lp1016
I34
aI5
aI23
aI3
aI1
aI8
aI4
aI0
aI0
aI0
aa(lp1017
F0.12419488026424443
aaa(lp1018
(lp1019
I1902
aI8
aI1098
aI0
aa(lp1020
I8
aI6
aI3
aI8
aI4
aI0
aI0
aI0
aI0
aI0
aa(lp1021
F0.12419488026424443
aaa(lp1022
(lp1023
I1628
aI8
aI1911
aI0
aa(lp1024
I8
aI34
aI5
aI12
aI3
aI1
aI8
aI4
aI0
aI0
aa(lp1025
F0.12419488026424443
aaa(lp1026
(lp1027
I1255
aI8
aI1925
aI0
aa(lp1028
I8
aI6
aI3
aI8
aI4
aI0
aI0
aI0
aI0
aI0
aa(lp1029
F0.12419488026424443
aaa(lp1030
(lp1031
I1929
aI8
aI1930
aI0
aa(lp1032
I34
aI5
aI22
aI3
aI9
aI5
aI12
aI12
aI8
aI4
aa(lp1033
F0.12419488026424443
aaa(lp1034
(lp1035
I1352
aI8
aI1938
aI0
aa(lp1036
I3
aI4
aI22
aI3
aI8
aI4
aI0
aI0
aI0
aI0
aa(lp1037
F0.12419488026424443
aaa(lp1038
(lp1039
I291
aI8
aI120
aI0
aa(lp1040
I8
aI6
aI3
aI8
aI4
aI0
aI0
aI0
aI0
aI0
aa(lp1041
F0.12419488026424443
aaa(lp1042
(lp1043
I305
aI8
aI1950
aI0
aa(lp1044
I8
aI6
aI3
aI8
aI4
aI0
aI0
aI0
aI0
aI0
aa(lp1045
F0.12419488026424443
aaa(lp1046
(lp1047
I1960
aI8
aI1961
aI0
aa(lp1048
I8
aI34
aI5
aI12
aI3
aI1
aI8
aI4
aI0
aI0
aa(lp1049
F0.12419488026424443
aaa(lp1050
(lp1051
I637
aI8
aI1968
aI0
aa(lp1052
I3
aI9
aI8
aI7
aI3
aI8
aI4
aI0
aI0
aI0
aa(lp1053
F0.12419488026424443
aaa(lp1054
(lp1055
I135
aI7
aI348
aI0
aa(lp1056
I8
aI9
aI7
aI8
aI4
aI9
aI8
aI0
aI0
aI0
aa(lp1057
F0.018662262592898431
aaa(lp1058
(lp1059
I1368
aI8
aI433
aI0
aa(lp1060
I8
aI34
aI5
aI12
aI3
aI1
aI8
aI4
aI0
aI0
aa(lp1061
F0.12419488026424443
aaa(lp1062
(lp1063
I254
aI8
aI176
aI0
aa(lp1064
I38
aI3
aI5
aI9
aI4
aI8
aI34
aI5
aI6
aI5
aa(lp1065
F0.12419488026424443
aaa(lp1066
(lp1067
I1985
aI8
aI1934
aI0
aa(lp1068
I34
aI5
aI23
aI3
aI1
aI8
aI4
aI0
aI0
aI0
aa(lp1069
F0.12419488026424443
aaa(lp1070
(lp1071
I515
aI7
aI1994
aI0
aa(lp1072
I6
aI8
aI4
aI11
aI32
aI12
aI8
aI4
aI1
aI3
aa(lp1073
F0.018662262592898431
aaa(lp1074
(lp1075
I1480
aI8
aI2003
aI0
aa(lp1076
I3
aI9
aI8
aI7
aI3
aI8
aI4
aI0
aI0
aI0
aa(lp1077
F0.12419488026424443
aaa(lp1078
(lp1079
I1744
aI8
aI2008
aI0
aa(lp1080
I34
aI3
aI22
aI22
aI7
aI5
aI11
aI5
aI8
aI6
aa(lp1081
F0.12419488026424443
aaa(lp1082
(lp1083
I2010
aI8
aI2011
aI0
aa(lp1084
I32
aI12
aI5
aI4
aI1
aI2
aI0
aI0
aI0
aI0
aa(lp1085
F0.12419488026424443
aaa(lp1086
(lp1087
I1034
aI8
aI891
aI0
aa(lp1088
I3
aI9
aI8
aI7
aI3
aI8
aI4
aI0
aI0
aI0
aa(lp1089
F0.12419488026424443
aaa(lp1090
(lp1091
I2037
aI8
aI556
aI0
aa(lp1092
I34
aI5
aI23
aI3
aI1
aI8
aI4
aI0
aI0
aI0
aa(lp1093
F0.12419488026424443
aaa(lp1094
(lp1095
I1299
aI8
aI2051
aI0
aa(lp1096
I6
aI30
aI36
aI9
aI2
aI5
aI12
aI4
aI0
aI0
aa(lp1097
F0.12419488026424443
aaa(lp1098
(lp1099
I2053
aI8
aI2054
aI0
aa(lp1100
I3
aI9
aI8
aI7
aI3
aI8
aI4
aI0
aI0
aI0
aa(lp1101
F0.12419488026424443
aaa(lp1102
(lp1103
I1556
aI8
aI2057
aI0
aa(lp1104
I32
aI12
aI5
aI4
aI1
aI2
aI0
aI0
aI0
aI0
aa(lp1105
F0.12419488026424443
aaa(lp1106
(lp1107
I2059
aI8
aI2060
aI0
aa(lp1108
I8
aI34
aI5
aI12
aI3
aI1
aI8
aI4
aI0
aI0
aa(lp1109
F0.12419488026424443
aaa(lp1110
(lp1111
I2061
aI8
aI2062
aI0
aa(lp1112
I6
aI5
aI8
aI32
aI30
aI30
aI22
aI0
aI0
aI0
aa(lp1113
F0.12419488026424443
aaa(lp1114
(lp1115
I691
aI7
aI1763
aI0
aa(lp1116
I6
aI8
aI4
aI11
aI32
aI12
aI8
aI4
aI1
aI3
aa(lp1117
F0.018662262592898431
aaa(lp1118
(lp1119
I2068
aI8
aI2069
aI0
aa(lp1120
I22
aI3
aI4
aI5
aI12
aI6
aI0
aI0
aI0
aI0
aa(lp1121
F0.12419488026424443
aaa(lp1122
(lp1123
I2072
aI8
aI1821
aI0
aa(lp1124
I34
aI5
aI22
aI3
aI9
aI5
aI12
aI12
aI8
aI4
aa(lp1125
F0.12419488026424443
aaa(lp1126
(lp1127
I113
aI8
aI1015
aI0
aa(lp1128
I28
aI3
aI10
aI10
aI8
aI0
aI0
aI0
aI0
aI0
aa(lp1129
F0.12419488026424443
aaa(lp1130
(lp1131
I1858
aI8
aI983
aI0
aa(lp1132
I34
aI5
aI22
aI3
aI9
aI5
aI12
aI12
aI8
aI4
aa(lp1133
F0.12419488026424443
aaa(lp1134
(lp1135
I959
aI8
aI2077
aI0
aa(lp1136
I8
aI34
aI5
aI12
aI3
aI1
aI8
aI4
aI0
aI0
aa(lp1137
F0.12419488026424443
aaa(lp1138
(lp1139
I1555
aI8
aI2079
aI0
aa(lp1140
I8
aI34
aI5
aI12
aI3
aI1
aI8
aI4
aI0
aI0
aa(lp1141
F0.12419488026424443
aaa(lp1142
(lp1143
I1286
aI7
aI2089
aI0
aa(lp1144
I8
aI9
aI7
aI8
aI4
aI9
aI8
aI0
aI0
aI0
aa(lp1145
F0.018662262592898431
aaa(lp1146
(lp1147
I2099
aI8
aI2100
aI0
aa(lp1148
I20
aI20
aI42
aI0
aI0
aI0
aI0
aI0
aI0
aI0
aa(lp1149
F0.12419488026424443
aaa(lp1150
(lp1151
I601
aI8
aI620
aI0
aa(lp1152
I8
aI6
aI3
aI8
aI4
aI0
aI0
aI0
aI0
aI0
aa(lp1153
F0.12419488026424443
aaa(lp1154
(lp1155
I1372
aI8
aI2111
aI0
aa(lp1156
I41
aI8
aI28
aI8
aI4
aI5
aI6
aI5
aI0
aI0
aa(lp1157
F0.12419488026424443
aaa(lp1158
(lp1159
I2030
aI8
aI2115
aI0
aa(lp1160
I8
aI6
aI3
aI8
aI4
aI0
aI0
aI0
aI0
aI0
aa(lp1161
F0.12419488026424443
aaa(lp1162
(lp1163
I1643
aI8
aI2117
aI0
aa(lp1164
I9
aI5
aI23
aI15
aI34
aI5
aI23
aI0
aI0
aI0
aa(lp1165
F0.12419488026424443
aaa(lp1166
(lp1167
I1230
aI8
aI2123
aI0
aa(lp1168
I30
aI12
aI11
aI37
aI14
aI18
aI25
aI16
aI13
aI24
aa(lp1169
F0.12419488026424443
aaa(lp1170
(lp1171
I465
aI8
aI2137
aI0
aa(lp1172
I3
aI9
aI8
aI7
aI3
aI8
aI4
aI0
aI0
aI0
aa(lp1173
F0.12419488026424443
aaa(lp1174
(lp1175
I464
aI8
aI175
aI0
aa(lp1176
I8
aI34
aI5
aI12
aI3
aI1
aI8
aI4
aI11
aI33
aa(lp1177
F0.12419488026424443
aaa(lp1178
(lp1179
I2146
aI8
aI2147
aI0
aa(lp1180
I6
aI5
aI8
aI32
aI30
aI30
aI22
aI0
aI0
aI0
aa(lp1181
F0.12419488026424443
aaa(lp1182
(lp1183
I256
aI8
aI2152
aI0
aa(lp1184
I6
aI5
aI8
aI32
aI30
aI30
aI22
aI0
aI0
aI0
aa(lp1185
F0.12419488026424443
aaa(lp1186
(lp1187
I1461
aI8
aI2155
aI0
aa(lp1188
I8
aI34
aI5
aI12
aI3
aI1
aI8
aI4
aI0
aI0
aa(lp1189
F0.12419488026424443
aaa(lp1190
(lp1191
I509
aI7
aI510
aI0
aa(lp1192
I6
aI8
aI4
aI11
aI32
aI12
aI8
aI4
aI1
aI3
aa(lp1193
F0.018662262592898431
aaa(lp1194
(lp1195
I2166
aI7
aI2167
aI0
aa(lp1196
I6
aI8
aI4
aI11
aI32
aI12
aI8
aI4
aI1
aI3
aa(lp1197
F0.018662262592898431
aaa(lp1198
(lp1199
I1622
aI8
aI2186
aI0
aa(lp1200
I3
aI9
aI8
aI7
aI3
aI8
aI4
aI0
aI0
aI0
aa(lp1201
F0.12419488026424443
aaa(lp1202
(lp1203
I2190
aI8
aI2191
aI0
aa(lp1204
I1
aI2
aI3
aI4
aI5
aI6
aI5
aI0
aI0
aI0
aa(lp1205
F0.12419488026424443
aaa(lp1206
(lp1207
I1016
aI8
aI2197
aI0
aa(lp1208
I8
aI34
aI5
aI12
aI3
aI1
aI8
aI4
aI0
aI0
aa(lp1209
F0.12419488026424443
aaa(lp1210
(lp1211
I1773
aI8
aI2203
aI0
aa(lp1212
I3
aI9
aI8
aI7
aI3
aI8
aI4
aI0
aI0
aI0
aa(lp1213
F0.12419488026424443
aaa(lp1214
(lp1215
I143
aI8
aI2207
aI0
aa(lp1216
I22
aI5
aI7
aI3
aI6
aI0
aI0
aI0
aI0
aI0
aa(lp1217
F0.12419488026424443
aaa(lp1218
(lp1219
I969
aI8
aI2210
aI0
aa(lp1220
I34
aI5
aI22
aI3
aI9
aI5
aI12
aI12
aI8
aI4
aa(lp1221
F0.12419488026424443
aaa(lp1222
(lp1223
I295
aI7
aI296
aI0
aa(lp1224
I8
aI9
aI7
aI8
aI4
aI9
aI8
aI0
aI0
aI0
aa(lp1225
F0.018662262592898431
aaa(lp1226
(lp1227
I1066
aI8
aI2217
aI0
aa(lp1228
I3
aI9
aI8
aI7
aI3
aI8
aI4
aI0
aI0
aI0
aa(lp1229
F0.12419488026424443
aaa(lp1230
(lp1231
I2218
aI8
aI2219
aI0
aa(lp1232
I1
aI30
aI32
aI32
aI5
aI5
aI11
aI6
aI2
aI30
aa(lp1233
F0.12419488026424443
aaa(lp1234
(lp1235
I2221
aI8
aI2222
aI0
aa(lp1236
I8
aI6
aI3
aI8
aI4
aI0
aI0
aI0
aI0
aI0
aa(lp1237
F0.12419488026424443
aaa(lp1238
(lp1239
I308
aI8
aI1100
aI0
aa(lp1240
I34
aI5
aI23
aI3
aI1
aI8
aI4
aI0
aI0
aI0
aa(lp1241
F0.12419488026424443
aaa(lp1242
(lp1243
I1700
aI8
aI1620
aI0
aa(lp1244
I8
aI34
aI5
aI12
aI3
aI1
aI8
aI4
aI0
aI0
aa(lp1245
F0.12419488026424443
aaa(lp1246
(lp1247
I95
aI8
aI2232
aI0
aa(lp1248
I1
aI30
aI32
aI32
aI5
aI5
aI2
aI30
aI36
aI6
aa(lp1249
F0.12419488026424443
aaa(lp1250
(lp1251
I180
aI8
aI2238
aI0
aa(lp1252
I8
aI34
aI5
aI12
aI3
aI1
aI8
aI4
aI0
aI0
aa(lp1253
F0.12419488026424443
aaa(lp1254
(lp1255
I805
aI8
aI1377
aI0
aa(lp1256
I8
aI34
aI5
aI12
aI3
aI1
aI8
aI4
aI0
aI0
aa(lp1257
F0.12419488026424443
aaa(lp1258
(lp1259
I708
aI8
aI2240
aI0
aa(lp1260
I32
aI12
aI5
aI4
aI1
aI2
aI0
aI0
aI0
aI0
aa(lp1261
F0.12419488026424443
aaa(lp1262
(lp1263
I2243
aI8
aI2244
aI0
aa(lp1264
I39
aI12
aI5
aI5
aI31
aI11
aI8
aI4
aI22
aI11
aa(lp1265
F0.12419488026424443
aaa(lp1266
(lp1267
I174
aI8
aI2253
aI0
aa(lp1268
I8
aI34
aI5
aI12
aI3
aI1
aI8
aI4
aI0
aI0
aa(lp1269
F0.12419488026424443
aaa(lp1270
(lp1271
I2259
aI7
aI2260
aI0
aa(lp1272
I4
aI5
aI29
aI11
aI21
aI30
aI12
aI31
aI0
aI0
aa(lp1273
F0.018662262592898431
aaa(lp1274
(lp1275
I1605
aI8
aI1531
aI0
aa(lp1276
I8
aI34
aI5
aI12
aI3
aI1
aI8
aI4
aI0
aI0
aa(lp1277
F0.12419488026424443
aaa(lp1278
(lp1279
I1703
aI8
aI1494
aI0
aa(lp1280
I28
aI30
aI7
aI3
aI6
aI2
aI0
aI0
aI0
aI0
aa(lp1281
F0.12419488026424443
aaa(lp1282
(lp1283
I1151
aI8
aI2272
aI0
aa(lp1284
I1
aI30
aI32
aI32
aI5
aI5
aI11
aI20
aI8
aI12
aa(lp1285
F0.12419488026424443
aaa(lp1286
(lp1287
I1025
aI8
aI2274
aI0
aa(lp1288
I8
aI6
aI3
aI8
aI4
aI0
aI0
aI0
aI0
aI0
aa(lp1289
F0.12419488026424443
aaa(lp1290
(lp1291
I2275
aI8
aI2276
aI0
aa(lp1292
I3
aI4
aI22
aI3
aI8
aI4
aI0
aI0
aI0
aI0
aa(lp1293
F0.12419488026424443
aaa(lp1294
(lp1295
I2092
aI8
aI2278
aI0
aa(lp1296
I8
aI34
aI5
aI12
aI3
aI1
aI8
aI4
aI0
aI0
aa(lp1297
F0.12419488026424443
aaa(lp1298
(lp1299
I1697
aI8
aI1840
aI0
aa(lp1300
I1
aI8
aI7
aI3
aI32
aI30
aI12
aI4
aI3
aI8
aa(lp1301
F0.12419488026424443
aaa(lp1302
(lp1303
I845
aI8
aI2288
aI0
aa(lp1304
I41
aI8
aI28
aI8
aI4
aI5
aI6
aI5
aI0
aI0
aa(lp1305
F0.12419488026424443
aaa(lp1306
(lp1307
I922
aI8
aI2290
aI0
aa(lp1308
I1
aI30
aI32
aI32
aI5
aI5
aI11
aI6
aI2
aI30
aa(lp1309
F0.12419488026424443
aaa(lp1310
(lp1311
I386
aI7
aI2140
aI0
aa(lp1312
I4
aI5
aI29
aI11
aI21
aI30
aI12
aI31
aI0
aI0
aa(lp1313
F0.018662262592898431
aaa(lp1314
(lp1315
I2301
aI8
aI2302
aI0
aa(lp1316
I32
aI12
aI5
aI4
aI1
aI2
aI11
aI33
aI1
aI7
aa(lp1317
F0.12419488026424443
aaa(lp1318
(lp1319
I2304
aI8
aI2032
aI0
aa(lp1320
I8
aI6
aI3
aI8
aI4
aI0
aI0
aI0
aI0
aI0
aa(lp1321
F0.12419488026424443
aaa(lp1322
(lp1323
I1870
aI8
aI2312
aI0
aa(lp1324
I8
aI34
aI5
aI12
aI3
aI1
aI8
aI4
aI0
aI0
aa(lp1325
F0.12419488026424443
aaa(lp1326
(lp1327
I1614
aI8
aI2316
aI0
aa(lp1328
I6
aI5
aI8
aI32
aI30
aI30
aI22
aI0
aI0
aI0
aa(lp1329
F0.12419488026424443
aaa(lp1330
(lp1331
I1409
aI8
aI2318
aI0
aa(lp1332
I3
aI9
aI8
aI7
aI3
aI8
aI4
aI0
aI0
aI0
aa(lp1333
F0.12419488026424443
aaa(lp1334
(lp1335
I2322
aI8
aI2189
aI0
aa(lp1336
I38
aI3
aI5
aI9
aI4
aI8
aI34
aI5
aI6
aI5
aa(lp1337
F0.12419488026424443
aaa(lp1338
(lp1339
I2326
aI8
aI2327
aI0
aa(lp1340
I1
aI30
aI32
aI32
aI5
aI5
aI11
aI20
aI8
aI12
aa(lp1341
F0.12419488026424443
aaa(lp1342
(lp1343
I2225
aI8
aI1715
aI0
aa(lp1344
I3
aI4
aI22
aI3
aI8
aI4
aI0
aI0
aI0
aI0
aa(lp1345
F0.12419488026424443
aaa(lp1346
(lp1347
I816
aI8
aI69
aI0
aa(lp1348
I2
aI5
aI8
aI7
aI9
aI2
aI11
aI32
aI30
aI30
aa(lp1349
F0.12419488026424443
aaa(lp1350
(lp1351
I2029
aI8
aI593
aI0
aa(lp1352
I1
aI8
aI7
aI3
aI32
aI30
aI12
aI4
aI3
aI8
aa(lp1353
F0.12419488026424443
aaa(lp1354
(lp1355
I2337
aI8
aI1685
aI0
aa(lp1356
I1
aI2
aI3
aI4
aI5
aI6
aI5
aI0
aI0
aI0
aa(lp1357
F0.12419488026424443
aaa(lp1358
(lp1359
I2174
aI8
aI1887
aI0
aa(lp1360
I8
aI6
aI3
aI8
aI4
aI0
aI0
aI0
aI0
aI0
aa(lp1361
F0.12419488026424443
aaa(lp1362
(lp1363
I309
aI8
aI2342
aI0
aa(lp1364
I1
aI8
aI7
aI3
aI32
aI30
aI12
aI4
aI3
aI8
aa(lp1365
F0.12419488026424443
aaa(lp1366
(lp1367
I1738
aI8
aI2344
aI0
aa(lp1368
I34
aI5
aI23
aI3
aI1
aI8
aI4
aI0
aI0
aI0
aa(lp1369
F0.12419488026424443
aaa(lp1370
(lp1371
I2348
aI8
aI2349
aI0
aa(lp1372
I38
aI3
aI5
aI9
aI4
aI8
aI34
aI5
aI6
aI5
aa(lp1373
F0.12419488026424443
aaa(lp1374
(lp1375
I35
aI8
aI2351
aI0
aa(lp1376
I8
aI6
aI3
aI8
aI4
aI0
aI0
aI0
aI0
aI0
aa(lp1377
F0.12419488026424443
aaa(lp1378
(lp1379
I1764
aI7
aI1766
aI0
aa(lp1380
I4
aI5
aI29
aI11
aI21
aI30
aI12
aI31
aI0
aI0
aa(lp1381
F0.018662262592898431
aaa(lp1382
(lp1383
I2128
aI8
aI2005
aI0
aa(lp1384
I1
aI30
aI32
aI32
aI5
aI5
aI11
aI20
aI8
aI12
aa(lp1385
F0.12419488026424443
aaa(lp1386
(lp1387
I2378
aI8
aI2379
aI0
aa(lp1388
I32
aI12
aI5
aI4
aI1
aI2
aI0
aI0
aI0
aI0
aa(lp1389
F0.12419488026424443
aaa(lp1390
(lp1391
I2380
aI8
aI2381
aI0
aa(lp1392
I41
aI8
aI28
aI8
aI4
aI5
aI6
aI5
aI0
aI0
aa(lp1393
F0.12419488026424443
aaa(lp1394
(lp1395
I1942
aI8
aI2384
aI0
aa(lp1396
I8
aI34
aI5
aI12
aI3
aI1
aI8
aI4
aI0
aI0
aa(lp1397
F0.12419488026424443
aaa(lp1398
(lp1399
I953
aI7
aI1874
aI0
aa(lp1400
I20
aI12
aI30
aI30
aI31
aI7
aI21
aI4
aI0
aI0
aa(lp1401
F0.018662262592898431
aaa(lp1402
(lp1403
I332
aI8
aI1794
aI0
aa(lp1404
I1
aI8
aI12
aI3
aI20
aI20
aI5
aI8
aI4
aI0
aa(lp1405
F0.12419488026424443
aaa(lp1406
(lp1407
I2013
aI8
aI470
aI0
aa(lp1408
I6
aI9
aI5
aI8
aI31
aI2
aI30
aI36
aI6
aI5
aa(lp1409
F0.12419488026424443
aaa(lp1410
(lp1411
I1364
aI8
aI935
aI0
aa(lp1412
I6
aI9
aI5
aI8
aI31
aI11
aI2
aI30
aI36
aI6
aa(lp1413
F0.12419488026424443
aaa(lp1414
(lp1415
I2398
aI8
aI2399
aI0
aa(lp1416
I3
aI9
aI8
aI7
aI3
aI8
aI4
aI0
aI0
aI0
aa(lp1417
F0.12419488026424443
aaa(lp1418
(lp1419
I341
aI8
aI2401
aI0
aa(lp1420
I1
aI8
aI7
aI3
aI32
aI30
aI12
aI4
aI3
aI8
aa(lp1421
F0.12419488026424443
aaa(lp1422
(lp1423
I2404
aI8
aI2273
aI0
aa(lp1424
I1
aI30
aI32
aI32
aI5
aI5
aI2
aI30
aI36
aI6
aa(lp1425
F0.12419488026424443
aaa(lp1426
(lp1427
I1888
aI8
aI25
aI0
aa(lp1428
I32
aI12
aI5
aI4
aI1
aI2
aI11
aI33
aI1
aI7
aa(lp1429
F0.12419488026424443
aaa(lp1430
(lp1431
I2416
aI8
aI2417
aI0
aa(lp1432
I8
aI34
aI5
aI12
aI3
aI1
aI8
aI4
aI0
aI0
aa(lp1433
F0.12419488026424443
aaa(lp1434
(lp1435
I81
aI8
aI2421
aI0
aa(lp1436
I8
aI34
aI5
aI12
aI3
aI1
aI8
aI4
aI0
aI0
aa(lp1437
F0.12419488026424443
aaa(lp1438
(lp1439
I565
aI8
aI2422
aI0
aa(lp1440
I1
aI2
aI3
aI4
aI5
aI6
aI5
aI0
aI0
aI0
aa(lp1441
F0.12419488026424443
aaa(lp1442
(lp1443
I792
aI8
aI507
aI0
aa(lp1444
I38
aI5
aI39
aI5
aI9
aI8
aI12
aI3
aI8
aI4
aa(lp1445
F0.12419488026424443
aaa(lp1446
(lp1447
I1433
aI8
aI2429
aI0
aa(lp1448
I20
aI8
aI12
aI20
aI5
aI1
aI36
aI5
aI0
aI0
aa(lp1449
F0.12419488026424443
aaa(lp1450
(lp1451
I2430
aI8
aI1265
aI0
aa(lp1452
I8
aI34
aI5
aI12
aI3
aI1
aI8
aI4
aI0
aI0
aa(lp1453
F0.12419488026424443
aaa(lp1454
(lp1455
I974
aI8
aI2235
aI0
aa(lp1456
I32
aI12
aI5
aI4
aI1
aI2
aI11
aI20
aI3
aI6
aa(lp1457
F0.12419488026424443
aaa(lp1458
(lp1459
I2279
aI8
aI2436
aI0
aa(lp1460
I2
aI8
aI34
aI20
aI36
aI12
aI39
aI5
aI12
aI6
aa(lp1461
F0.12419488026424443
aaa(lp1462
(lp1463
I1787
aI8
aI141
aI0
aa(lp1464
I8
aI34
aI5
aI12
aI3
aI1
aI8
aI4
aI0
aI0
aa(lp1465
F0.12419488026424443
aaa(lp1466
(lp1467
I110
aI8
aI2444
aI0
aa(lp1468
I3
aI9
aI8
aI7
aI3
aI8
aI4
aI0
aI0
aI0
aa(lp1469
F0.12419488026424443
aaa(lp1470
(lp1471
I100
aI8
aI2096
aI0
aa(lp1472
I8
aI34
aI5
aI12
aI3
aI1
aI8
aI4
aI0
aI0
aa(lp1473
F0.12419488026424443
aaa(lp1474
(lp1475
I1914
aI8
aI2145
aI0
aa(lp1476
I6
aI30
aI36
aI9
aI2
aI5
aI12
aI4
aI25
aI6
aa(lp1477
F0.12419488026424443
aaa(lp1478
(lp1479
I2447
aI7
aI949
aI0
aa(lp1480
I4
aI5
aI29
aI11
aI21
aI30
aI12
aI31
aI0
aI0
aa(lp1481
F0.018662262592898431
aaa(lp1482
(lp1483
I2454
aI8
aI2455
aI0
aa(lp1484
I8
aI34
aI5
aI12
aI3
aI1
aI8
aI4
aI0
aI0
aa(lp1485
F0.12419488026424443
aaa(lp1486
(lp1487
I999
aI8
aI1198
aI0
aa(lp1488
I20
aI8
aI12
aI20
aI5
aI1
aI36
aI5
aI0
aI0
aa(lp1489
F0.12419488026424443
aaa(lp1490
(lp1491
I777
aI8
aI505
aI0
aa(lp1492
I22
aI3
aI4
aI5
aI12
aI6
aI0
aI0
aI0
aI0
aa(lp1493
F0.12419488026424443
aaa(lp1494
(lp1495
I1338
aI8
aI2458
aI0
aa(lp1496
I32
aI12
aI5
aI4
aI1
aI2
aI0
aI0
aI0
aI0
aa(lp1497
F0.12419488026424443
aaa(lp1498
(lp1499
I793
aI8
aI2459
aI0
aa(lp1500
I6
aI30
aI36
aI9
aI2
aI29
aI5
aI6
aI9
aI5
aa(lp1501
F0.12419488026424443
aaa(lp1502
(lp1503
I2460
aI8
aI2461
aI0
aa(lp1504
I8
aI6
aI3
aI8
aI4
aI0
aI0
aI0
aI0
aI0
aa(lp1505
F0.12419488026424443
aaa(lp1506
(lp1507
I1634
aI8
aI2462
aI0
aa(lp1508
I8
aI34
aI5
aI12
aI3
aI1
aI8
aI4
aI0
aI0
aa(lp1509
F0.12419488026424443
aaa(lp1510
(lp1511
I359
aI8
aI1096
aI0
aa(lp1512
I32
aI12
aI5
aI4
aI1
aI2
aI0
aI0
aI0
aI0
aa(lp1513
F0.12419488026424443
aaa(lp1514
(lp1515
I2465
aI7
aI2466
aI0
aa(lp1516
I8
aI9
aI7
aI8
aI4
aI9
aI8
aI0
aI0
aI0
aa(lp1517
F0.018662262592898431
aaa(lp1518
(lp1519
I547
aI8
aI2245
aI0
aa(lp1520
I3
aI9
aI8
aI7
aI3
aI8
aI4
aI0
aI0
aI0
aa(lp1521
F0.12419488026424443
aaa(lp1522
(lp1523
I1800
aI8
aI2476
aI0
aa(lp1524
I6
aI9
aI5
aI8
aI31
aI2
aI30
aI36
aI6
aI5
aa(lp1525
F0.12419488026424443
aaa(lp1526
(lp1527
I2478
aI8
aI1479
aI0
aa(lp1528
I36
aI31
aI12
aI8
aI3
aI4
aI3
aI8
aI4
aI0
aa(lp1529
F0.12419488026424443
aaa(lp1530
(lp1531
I323
aI8
aI1298
aI0
aa(lp1532
I8
aI34
aI5
aI12
aI3
aI1
aI8
aI4
aI0
aI0
aa(lp1533
F0.12419488026424443
aaa(lp1534
(lp1535
I512
aI8
aI2445
aI0
aa(lp1536
I32
aI12
aI5
aI4
aI1
aI2
aI0
aI0
aI0
aI0
aa(lp1537
F0.12419488026424443
aaa(lp1538
(lp1539
I197
aI8
aI529
aI0
aa(lp1540
I8
aI6
aI3
aI8
aI4
aI0
aI0
aI0
aI0
aI0
aa(lp1541
F0.12419488026424443
aaa(lp1542
(lp1543
I62
aI8
aI1653
aI0
aa(lp1544
I8
aI6
aI3
aI8
aI4
aI0
aI0
aI0
aI0
aI0
aa(lp1545
F0.12419488026424443
aaa(lp1546
(lp1547
I2223
aI8
aI2496
aI0
aa(lp1548
I3
aI9
aI8
aI7
aI3
aI8
aI4
aI0
aI0
aI0
aa(lp1549
F0.12419488026424443
aaa(lp1550
(lp1551
I2509
aI8
aI2510
aI0
aa(lp1552
I1
aI8
aI7
aI3
aI32
aI30
aI12
aI4
aI3
aI8
aa(lp1553
F0.12419488026424443
aaa(lp1554
(lp1555
I2515
aI8
aI2516
aI0
aa(lp1556
I1
aI30
aI4
aI9
aI3
aI4
aI5
aI4
aI9
aI8
aa(lp1557
F0.12419488026424443
aaa(lp1558
(lp1559
I71
aI8
aI2518
aI0
aa(lp1560
I6
aI30
aI36
aI9
aI2
aI5
aI12
aI4
aI0
aI0
aa(lp1561
F0.12419488026424443
aaa(lp1562
(lp1563
I448
aI8
aI768
aI0
aa(lp1564
I32
aI12
aI5
aI4
aI1
aI2
aI0
aI0
aI0
aI0
aa(lp1565
F0.12419488026424443
aaa(lp1566
(lp1567
I1288
aI8
aI2519
aI0
aa(lp1568
I34
aI5
aI22
aI3
aI9
aI5
aI12
aI12
aI8
aI4
aa(lp1569
F0.12419488026424443
aaa(lp1570
(lp1571
I2520
aI8
aI488
aI0
aa(lp1572
I34
aI5
aI22
aI3
aI9
aI5
aI12
aI12
aI8
aI4
aa(lp1573
F0.12419488026424443
aaa(lp1574
(lp1575
I761
aI8
aI2524
aI0
aa(lp1576
I22
aI3
aI4
aI5
aI12
aI6
aI0
aI0
aI0
aI0
aa(lp1577
F0.12419488026424443
aaa(lp1578
(lp1579
I2451
aI8
aI1420
aI0
aa(lp1580
I8
aI6
aI3
aI8
aI4
aI0
aI0
aI0
aI0
aI0
aa(lp1581
F0.12419488026424443
aaa(lp1582
(lp1583
I2525
aI8
aI393
aI0
aa(lp1584
I8
aI6
aI3
aI8
aI4
aI0
aI0
aI0
aI0
aI0
aa(lp1585
F0.12419488026424443
aaa(lp1586
(lp1587
I607
aI8
aI2526
aI0
aa(lp1588
I8
aI6
aI3
aI8
aI4
aI0
aI0
aI0
aI0
aI0
aa(lp1589
F0.12419488026424443
aaa(lp1590
(lp1591
I2527
aI8
aI2187
aI0
aa(lp1592
I6
aI9
aI5
aI8
aI31
aI11
aI2
aI30
aI36
aI6
aa(lp1593
F0.12419488026424443
aaa(lp1594
(lp1595
I2534
aI8
aI2535
aI0
aa(lp1596
I2
aI5
aI8
aI7
aI9
aI2
aI11
aI32
aI30
aI30
aa(lp1597
F0.12419488026424443
aaa(lp1598
(lp1599
I156
aI8
aI134
aI0
aa(lp1600
I32
aI12
aI5
aI4
aI1
aI2
aI11
aI33
aI4
aI5
aa(lp1601
F0.12419488026424443
aaa(lp1602
(lp1603
I2554
aI8
aI2555
aI0
aa(lp1604
I3
aI4
aI9
aI5
aI12
aI4
aI8
aI9
aI3
aI30
aa(lp1605
F0.12419488026424443
aaa(lp1606
(lp1607
I1441
aI8
aI2559
aI0
aa(lp1608
I39
aI12
aI5
aI5
aI31
aI0
aI0
aI0
aI0
aI0
aa(lp1609
F0.12419488026424443
aaa(lp1610
(lp1611
I1796
aI8
aI2562
aI0
aa(lp1612
I8
aI6
aI3
aI8
aI4
aI0
aI0
aI0
aI0
aI0
aa(lp1613
F0.12419488026424443
aaa(lp1614
(lp1615
I2026
aI8
aI1824
aI0
aa(lp1616
I1
aI30
aI32
aI32
aI5
aI5
aI11
aI6
aI2
aI30
aa(lp1617
F0.12419488026424443
aaa(lp1618
(lp1619
I1273
aI8
aI1795
aI0
aa(lp1620
I41
aI8
aI28
aI8
aI4
aI5
aI6
aI5
aI0
aI0
aa(lp1621
F0.12419488026424443
aaa(lp1622
(lp1623
I841
aI8
aI2589
aI0
aa(lp1624
I6
aI5
aI8
aI32
aI30
aI30
aI22
aI0
aI0
aI0
aa(lp1625
F0.12419488026424443
aaa(lp1626
(lp1627
I2343
aI8
aI2502
aI0
aa(lp1628
I3
aI9
aI8
aI7
aI3
aI8
aI4
aI0
aI0
aI0
aa(lp1629
F0.12419488026424443
aaa(lp1630
(lp1631
I1993
aI8
aI2602
aI0
aa(lp1632
I32
aI12
aI5
aI4
aI1
aI2
aI11
aI20
aI3
aI6
aa(lp1633
F0.12419488026424443
aaa(lp1634
(lp1635
I1011
aI8
aI2603
aI0
aa(lp1636
I8
aI34
aI5
aI12
aI3
aI1
aI8
aI4
aI0
aI0
aa(lp1637
F0.12419488026424443
aaa(lp1638
(lp1639
I744
aI8
aI2617
aI0
aa(lp1640
I6
aI9
aI5
aI8
aI31
aI2
aI30
aI36
aI6
aI5
aa(lp1641
F0.12419488026424443
aaa(lp1642
(lp1643
I288
aI8
aI1793
aI0
aa(lp1644
I8
aI34
aI5
aI12
aI3
aI1
aI8
aI4
aI0
aI0
aa(lp1645
F0.12419488026424443
aaa(lp1646
(lp1647
I114
aI8
aI700
aI0
aa(lp1648
I8
aI34
aI5
aI12
aI3
aI1
aI8
aI4
aI11
aI33
aa(lp1649
F0.12419488026424443
aaa(lp1650
(lp1651
I219
aI8
aI2633
aI0
aa(lp1652
I8
aI6
aI3
aI8
aI4
aI0
aI0
aI0
aI0
aI0
aa(lp1653
F0.12419488026424443
aaa(lp1654
(lp1655
I480
aI8
aI1716
aI0
aa(lp1656
I8
aI34
aI5
aI12
aI3
aI1
aI8
aI4
aI0
aI0
aa(lp1657
F0.12419488026424443
aaa(lp1658
(lp1659
I12
aI8
aI1306
aI0
aa(lp1660
I6
aI5
aI8
aI32
aI30
aI30
aI22
aI0
aI0
aI0
aa(lp1661
F0.12419488026424443
aaa(lp1662
(lp1663
I1689
aI8
aI2638
aI0
aa(lp1664
I3
aI9
aI8
aI7
aI3
aI8
aI4
aI0
aI0
aI0
aa(lp1665
F0.12419488026424443
aaa(lp1666
(lp1667
I195
aI8
aI2649
aI0
aa(lp1668
I32
aI12
aI5
aI4
aI1
aI2
aI11
aI33
aI4
aI5
aa(lp1669
F0.12419488026424443
aaa(lp1670
(lp1671
I3
aI8
aI1528
aI0
aa(lp1672
I2
aI30
aI9
aI11
aI22
aI30
aI39
aI6
aI0
aI0
aa(lp1673
F0.12419488026424443
aaa(lp1674
(lp1675
I2668
aI7
aI2201
aI0
aa(lp1676
I7
aI30
aI6
aI11
aI8
aI4
aI39
aI5
aI7
aI5
aa(lp1677
F0.018662262592898431
aaa(lp1678
(lp1679
I48
aI8
aI622
aI0
aa(lp1680
I8
aI34
aI5
aI12
aI3
aI1
aI8
aI4
aI0
aI0
aa(lp1681
F0.12419488026424443
aaa(lp1682
(lp1683
I609
aI8
aI2669
aI0
aa(lp1684
I3
aI9
aI8
aI7
aI3
aI8
aI4
aI0
aI0
aI0
aa(lp1685
F0.12419488026424443
aaa(lp1686
(lp1687
I2672
aI7
aI2674
aI0
aa(lp1688
I8
aI9
aI7
aI8
aI4
aI9
aI8
aI0
aI0
aI0
aa(lp1689
F0.018662262592898431
aaa(lp1690
(lp1691
I378
aI8
aI2262
aI0
aa(lp1692
I8
aI6
aI3
aI8
aI4
aI0
aI0
aI0
aI0
aI0
aa(lp1693
F0.12419488026424443
aaa(lp1694
(lp1695
I2690
aI7
aI225
aI0
aa(lp1696
I4
aI5
aI29
aI11
aI21
aI30
aI12
aI31
aI0
aI0
aa(lp1697
F0.018662262592898431
aaa(lp1698
(lp1699
I520
aI8
aI2025
aI0
aa(lp1700
I6
aI30
aI36
aI9
aI2
aI5
aI12
aI4
aI0
aI0
aa(lp1701
F0.12419488026424443
aaa(lp1702
(lp1703
I1662
aI8
aI2420
aI0
aa(lp1704
I8
aI34
aI5
aI12
aI3
aI1
aI8
aI4
aI0
aI0
aa(lp1705
F0.12419488026424443
aaa(lp1706
(lp1707
I928
aI8
aI2703
aI0
aa(lp1708
I8
aI6
aI3
aI8
aI4
aI0
aI0
aI0
aI0
aI0
aa(lp1709
F0.12419488026424443
aaa(lp1710
(lp1711
I2704
aI8
aI723
aI0
aa(lp1712
I3
aI9
aI8
aI7
aI3
aI8
aI4
aI0
aI0
aI0
aa(lp1713
F0.12419488026424443
aaa(lp1714
(lp1715
I1807
aI7
aI1808
aI0
aa(lp1716
I4
aI5
aI29
aI11
aI21
aI30
aI12
aI31
aI0
aI0
aa(lp1717
F0.018662262592898431
aaa(lp1718
(lp1719
I42
aI8
aI2706
aI0
aa(lp1720
I3
aI9
aI8
aI7
aI3
aI8
aI4
aI0
aI0
aI0
aa(lp1721
F0.12419488026424443
aaa(lp1722
(lp1723
I1214
aI8
aI2716
aI0
aa(lp1724
I8
aI34
aI5
aI12
aI3
aI1
aI8
aI4
aI0
aI0
aa(lp1725
F0.12419488026424443
aaa(lp1726
(lp1727
I545
aI7
aI2372
aI0
aa(lp1728
I4
aI5
aI29
aI11
aI21
aI30
aI12
aI31
aI0
aI0
aa(lp1729
F0.018662262592898431
aaa(lp1730
(lp1731
I932
aI8
aI1268
aI0
aa(lp1732
I8
aI6
aI3
aI8
aI4
aI0
aI0
aI0
aI0
aI0
aa(lp1733
F0.12419488026424443
aaa(lp1734
(lp1735
I331
aI8
aI2720
aI0
aa(lp1736
I1
aI2
aI3
aI1
aI31
aI5
aI4
aI0
aI0
aI0
aa(lp1737
F0.12419488026424443
aaa(lp1738
(lp1739
I1107
aI8
aI2727
aI0
aa(lp1740
I34
aI5
aI23
aI3
aI1
aI8
aI4
aI0
aI0
aI0
aa(lp1741
F0.12419488026424443
aaa(lp1742
(lp1743
I1131
aI8
aI2728
aI0
aa(lp1744
I2
aI8
aI34
aI20
aI36
aI12
aI39
aI5
aI12
aI6
aa(lp1745
F0.12419488026424443
aaa(lp1746
(lp1747
I1717
aI8
aI990
aI0
aa(lp1748
I20
aI20
aI42
aI0
aI0
aI0
aI0
aI0
aI0
aI0
aa(lp1749
F0.12419488026424443
aaa(lp1750
(lp1751
I346
aI8
aI1451
aI0
aa(lp1752
I6
aI30
aI36
aI9
aI2
aI29
aI5
aI6
aI9
aI5
aa(lp1753
F0.12419488026424443
aaa(lp1754
(lp1755
I634
aI8
aI2733
aI0
aa(lp1756
I32
aI12
aI5
aI4
aI1
aI2
aI0
aI0
aI0
aI0
aa(lp1757
F0.12419488026424443
aaa(lp1758
(lp1759
I1237
aI8
aI2736
aI0
aa(lp1760
I32
aI12
aI5
aI4
aI1
aI2
aI11
aI33
aI4
aI5
aa(lp1761
F0.12419488026424443
aaa(lp1762
(lp1763
I2529
aI8
aI2739
aI0
aa(lp1764
I6
aI9
aI5
aI8
aI31
aI11
aI2
aI30
aI36
aI6
aa(lp1765
F0.12419488026424443
aaa(lp1766
(lp1767
I2503
aI8
aI1833
aI0
aa(lp1768
I39
aI12
aI5
aI5
aI31
aI0
aI0
aI0
aI0
aI0
aa(lp1769
F0.12419488026424443
aaa(lp1770
(lp1771
I1454
aI8
aI2752
aI0
aa(lp1772
I6
aI9
aI5
aI8
aI31
aI2
aI30
aI36
aI6
aI5
aa(lp1773
F0.12419488026424443
aaa(lp1774
(lp1775
I1881
aI8
aI2755
aI0
aa(lp1776
I20
aI36
aI32
aI32
aI5
aI9
aI6
aI0
aI0
aI0
aa(lp1777
F0.12419488026424443
aaa(lp1778
(lp1779
I1205
aI8
aI2756
aI0
aa(lp1780
I32
aI12
aI5
aI4
aI1
aI2
aI11
aI33
aI1
aI7
aa(lp1781
F0.12419488026424443
aaa(lp1782
(lp1783
I466
aI8
aI2424
aI0
aa(lp1784
I8
aI6
aI3
aI8
aI4
aI0
aI0
aI0
aI0
aI0
aa(lp1785
F0.12419488026424443
aaa(lp1786
(lp1787
I28
aI7
aI2165
aI0
aa(lp1788
I20
aI5
aI38
aI5
aI12
aI7
aI21
aI11
aI2
aI3
aa(lp1789
F0.018662262592898431
aaa(lp1790
(lp1791
I2701
aI8
aI2758
aI0
aa(lp1792
I1
aI30
aI32
aI32
aI5
aI5
aI11
aI6
aI2
aI30
aa(lp1793
F0.12419488026424443
aaa(lp1794
(lp1795
I2726
aI8
aI2760
aI0
aa(lp1796
I6
aI9
aI5
aI8
aI31
aI2
aI30
aI36
aI6
aI5
aa(lp1797
F0.12419488026424443
aaa(lp1798
(lp1799
I2418
aI8
aI2761
aI0
aa(lp1800
I22
aI5
aI7
aI3
aI6
aI0
aI0
aI0
aI0
aI0
aa(lp1801
F0.12419488026424443
aaa(lp1802
(lp1803
I2386
aI8
aI2762
aI0
aa(lp1804
I1
aI30
aI32
aI32
aI5
aI5
aI11
aI20
aI8
aI12
aa(lp1805
F0.12419488026424443
aaa(lp1806
(lp1807
I208
aI8
aI1290
aI0
aa(lp1808
I39
aI12
aI5
aI5
aI31
aI11
aI8
aI4
aI22
aI11
aa(lp1809
F0.12419488026424443
aaa(lp1810
(lp1811
I1933
aI8
aI2779
aI0
aa(lp1812
I32
aI12
aI5
aI4
aI1
aI2
aI0
aI0
aI0
aI0
aa(lp1813
F0.12419488026424443
aaa(lp1814
(lp1815
I2782
aI7
aI2783
aI0
aa(lp1816
I7
aI30
aI6
aI11
aI8
aI4
aI39
aI5
aI7
aI5
aa(lp1817
F0.018662262592898431
aaa(lp1818
(lp1819
I1055
aI8
aI2784
aI0
aa(lp1820
I34
aI3
aI22
aI22
aI7
aI5
aI11
aI5
aI8
aI6
aa(lp1821
F0.12419488026424443
aaa(lp1822
(lp1823
I730
aI8
aI1296
aI0
aa(lp1824
I8
aI34
aI5
aI12
aI3
aI1
aI8
aI4
aI0
aI0
aa(lp1825
F0.12419488026424443
aaa(lp1826
(lp1827
I2797
aI8
aI2798
aI0
aa(lp1828
I8
aI34
aI5
aI12
aI3
aI1
aI8
aI4
aI0
aI0
aa(lp1829
F0.12419488026424443
aaa(lp1830
(lp1831
I2563
aI8
aI281
aI0
aa(lp1832
I34
aI5
aI23
aI3
aI1
aI8
aI4
aI0
aI0
aI0
aa(lp1833
F0.12419488026424443
aaa(lp1834
(lp1835
I2813
aI8
aI1935
aI0
aa(lp1836
I34
aI3
aI22
aI22
aI7
aI5
aI11
aI5
aI8
aI6
aa(lp1837
F0.12419488026424443
aaa(lp1838
(lp1839
I1545
aI8
aI2818
aI0
aa(lp1840
I1
aI30
aI4
aI9
aI3
aI4
aI5
aI4
aI9
aI8
aa(lp1841
F0.12419488026424443
aaa(lp1842
(lp1843
I2
aI8
aI2819
aI0
aa(lp1844
I3
aI9
aI8
aI7
aI3
aI8
aI4
aI0
aI0
aI0
aa(lp1845
F0.12419488026424443
aaa(lp1846
(lp1847
I2081
aI7
aI2826
aI0
aa(lp1848
I6
aI8
aI4
aI9
aI8
aI11
aI34
aI30
aI4
aI3
aa(lp1849
F0.018662262592898431
aaa(lp1850
(lp1851
I240
aI8
aI479
aI0
aa(lp1852
I8
aI34
aI5
aI12
aI3
aI1
aI8
aI4
aI0
aI0
aa(lp1853
F0.12419488026424443
aaa(lp1854
(lp1855
I2467
aI8
aI2681
aI0
aa(lp1856
I8
aI34
aI5
aI12
aI3
aI1
aI8
aI4
aI0
aI0
aa(lp1857
F0.12419488026424443
aaa(lp1858
(lp1859
I1046
aI8
aI2842
aI0
aa(lp1860
I3
aI9
aI8
aI7
aI3
aI8
aI4
aI0
aI0
aI0
aa(lp1861
F0.12419488026424443
aaa(lp1862
(lp1863
I2808
aI8
aI2844
aI0
aa(lp1864
I38
aI5
aI39
aI5
aI9
aI8
aI12
aI3
aI8
aI4
aa(lp1865
F0.12419488026424443
aaa(lp1866
(lp1867
I2184
aI7
aI2185
aI0
aa(lp1868
I7
aI30
aI6
aI11
aI8
aI4
aI39
aI5
aI7
aI5
aa(lp1869
F0.018662262592898431
aaa(lp1870
(lp1871
I475
aI8
aI1069
aI0
aa(lp1872
I1
aI8
aI7
aI3
aI32
aI30
aI12
aI4
aI3
aI8
aa(lp1873
F0.12419488026424443
aaa(lp1874
(lp1875
I2575
aI8
aI385
aI0
aa(lp1876
I6
aI5
aI8
aI32
aI30
aI30
aI22
aI0
aI0
aI0
aa(lp1877
F0.12419488026424443
aaa(lp1878
(lp1879
I1510
aI8
aI1663
aI0
aa(lp1880
I8
aI34
aI5
aI12
aI3
aI1
aI8
aI4
aI0
aI0
aa(lp1881
F0.12419488026424443
aaa(lp1882
(lp1883
I2849
aI7
aI2713
aI0
aa(lp1884
I4
aI5
aI29
aI11
aI21
aI30
aI12
aI31
aI0
aI0
aa(lp1885
F0.018662262592898431
aaa(lp1886
(lp1887
I804
aI8
aI1097
aI0
aa(lp1888
I1
aI30
aI32
aI32
aI5
aI5
aI11
aI20
aI8
aI12
aa(lp1889
F0.12419488026424443
aaa(lp1890
(lp1891
I188
aI8
aI2284
aI0
aa(lp1892
I34
aI5
aI22
aI3
aI9
aI5
aI12
aI12
aI8
aI4
aa(lp1893
F0.12419488026424443
aaa(lp1894
(lp1895
I2408
aI7
aI2853
aI0
aa(lp1896
I6
aI2
aI5
aI12
aI34
aI8
aI4
aI11
aI30
aI8
aa(lp1897
F0.018662262592898431
aaa(lp1898
(lp1899
I1543
aI8
aI2854
aI0
aa(lp1900
I8
aI6
aI3
aI8
aI4
aI0
aI0
aI0
aI0
aI0
aa(lp1901
F0.12419488026424443
aaa(lp1902
(lp1903
I1631
aI8
aI2735
aI0
aa(lp1904
I20
aI36
aI32
aI32
aI5
aI9
aI6
aI0
aI0
aI0
aa(lp1905
F0.12419488026424443
aaa(lp1906
(lp1907
I2355
aI8
aI2864
aI0
aa(lp1908
I3
aI9
aI8
aI7
aI3
aI8
aI4
aI0
aI0
aI0
aa(lp1909
F0.12419488026424443
aaa(lp1910
(lp1911
I2162
aI8
aI2870
aI0
aa(lp1912
I6
aI5
aI8
aI32
aI30
aI30
aI22
aI0
aI0
aI0
aa(lp1913
F0.12419488026424443
aaa(lp1914
(lp1915
I1627
aI8
aI2875
aI0
aa(lp1916
I8
aI34
aI5
aI12
aI3
aI1
aI8
aI4
aI0
aI0
aa(lp1917
F0.12419488026424443
aaa(lp1918
(lp1919
I655
aI8
aI2876
aI0
aa(lp1920
I1
aI30
aI4
aI9
aI3
aI4
aI5
aI4
aI9
aI8
aa(lp1921
F0.12419488026424443
aaa(lp1922
(lp1923
I1559
aI8
aI1421
aI0
aa(lp1924
I8
aI6
aI3
aI8
aI4
aI0
aI0
aI0
aI0
aI0
aa(lp1925
F0.12419488026424443
aaa(lp1926
(lp1927
I1156
aI7
aI1157
aI0
aa(lp1928
I4
aI5
aI29
aI11
aI21
aI30
aI12
aI31
aI0
aI0
aa(lp1929
F0.018662262592898431
aaa(lp1930
(lp1931
I16
aI8
aI2884
aI0
aa(lp1932
I1
aI8
aI7
aI3
aI32
aI30
aI12
aI4
aI3
aI8
aa(lp1933
F0.12419488026424443
aaa(lp1934
(lp1935
I2885
aI7
aI2886
aI0
aa(lp1936
I34
aI8
aI7
aI3
aI20
aI36
aI0
aI0
aI0
aI0
aa(lp1937
F0.018662262592898431
aaa(lp1938
(lp1939
I1139
aI7
aI1141
aI0
aa(lp1940
I8
aI9
aI7
aI8
aI4
aI9
aI8
aI0
aI0
aI0
aa(lp1941
F0.018662262592898431
aaa(lp1942
(lp1943
I1734
aI8
aI2893
aI0
aa(lp1944
I8
aI6
aI3
aI8
aI4
aI0
aI0
aI0
aI0
aI0
aa(lp1945
F0.12419488026424443
aaa(lp1946
(lp1947
I266
aI8
aI2898
aI0
aa(lp1948
I8
aI6
aI3
aI8
aI4
aI0
aI0
aI0
aI0
aI0
aa(lp1949
F0.12419488026424443
aaa(lp1950
(lp1951
I2900
aI8
aI2637
aI0
aa(lp1952
I22
aI5
aI6
aI6
aI5
aI12
aI9
aI6
aI0
aI0
aa(lp1953
F0.12419488026424443
aaa(lp1954
(lp1955
I1918
aI8
aI29
aI0
aa(lp1956
I8
aI34
aI5
aI12
aI3
aI1
aI8
aI4
aI0
aI0
aa(lp1957
F0.12419488026424443
aaa(lp1958
(lp1959
I500
aI8
aI583
aI0
aa(lp1960
I8
aI4
aI22
aI11
aI24
aI14
aI24
aI25
aI19
aI14
aa(lp1961
F0.12419488026424443
aaa(lp1962
(lp1963
I330
aI8
aI2907
aI0
aa(lp1964
I6
aI5
aI8
aI32
aI30
aI30
aI22
aI0
aI0
aI0
aa(lp1965
F0.12419488026424443
aaa(lp1966
(lp1967
I2271
aI8
aI2910
aI0
aa(lp1968
I1
aI30
aI32
aI32
aI5
aI5
aI11
aI20
aI8
aI12
aa(lp1969
F0.12419488026424443
aaa(lp1970
(lp1971
I204
aI8
aI2266
aI0
aa(lp1972
I6
aI9
aI5
aI8
aI31
aI2
aI30
aI36
aI6
aI5
aa(lp1973
F0.12419488026424443
aaa(lp1974
(lp1975
I2841
aI8
aI2916
aI0
aa(lp1976
I6
aI9
aI5
aI8
aI31
aI2
aI30
aI36
aI6
aI5
aa(lp1977
F0.12419488026424443
aaa(lp1978
(lp1979
I717
aI8
aI1135
aI0
aa(lp1980
I3
aI9
aI8
aI7
aI3
aI8
aI4
aI0
aI0
aI0
aa(lp1981
F0.12419488026424443
aaa(lp1982
(lp1983
I2655
aI8
aI2611
aI0
aa(lp1984
I8
aI6
aI3
aI8
aI4
aI0
aI0
aI0
aI0
aI0
aa(lp1985
F0.12419488026424443
aaa(lp1986
(lp1987
I104
aI8
aI2923
aI0
aa(lp1988
I30
aI7
aI22
aI11
aI6
aI8
aI4
aI11
aI32
aI12
aa(lp1989
F0.12419488026424443
aaa(lp1990
(lp1991
I452
aI8
aI2913
aI0
aa(lp1992
I34
aI5
aI23
aI3
aI1
aI8
aI4
aI0
aI0
aI0
aa(lp1993
F0.12419488026424443
aaa(lp1994
(lp1995
I21
aI7
aI22
aI0
aa(lp1996
I4
aI5
aI29
aI11
aI21
aI30
aI12
aI31
aI0
aI0
aa(lp1997
F0.018662262592898431
aaa(lp1998
(lp1999
I2255
aI8
aI2935
aI0
aa(lp2000
I3
aI9
aI8
aI7
aI3
aI8
aI4
aI0
aI0
aI0
aa(lp2001
F0.12419488026424443
aaa(lp2002
(lp2003
I2540
aI8
aI1384
aI0
aa(lp2004
I6
aI9
aI5
aI8
aI31
aI2
aI30
aI36
aI6
aI5
aa(lp2005
F0.12419488026424443
aaa(lp2006
(lp2007
I1735
aI8
aI1397
aI0
aa(lp2008
I3
aI9
aI8
aI7
aI3
aI8
aI4
aI0
aI0
aI0
aa(lp2009
F0.12419488026424443
aaa(lp2010
(lp2011
I2144
aI8
aI2943
aI0
aa(lp2012
I8
aI34
aI5
aI12
aI3
aI1
aI8
aI4
aI11
aI33
aa(lp2013
F0.12419488026424443
aaa(lp2014
(lp2015
I97
aI8
aI1440
aI0
aa(lp2016
I8
aI34
aI5
aI12
aI3
aI1
aI8
aI4
aI0
aI0
aa(lp2017
F0.12419488026424443
aaa(lp2018
(lp2019
I890
aI8
aI2912
aI0
aa(lp2020
I6
aI30
aI36
aI9
aI2
aI5
aI12
aI4
aI25
aI6
aa(lp2021
F0.12419488026424443
aaa(lp2022
(lp2023
I1178
aI8
aI324
aI0
aa(lp2024
I8
aI34
aI5
aI12
aI3
aI1
aI8
aI4
aI0
aI0
aa(lp2025
F0.12419488026424443
aaa(lp2026
(lp2027
I2945
aI7
aI2946
aI0
aa(lp2028
I7
aI30
aI6
aI11
aI8
aI4
aI39
aI5
aI7
aI5
aa(lp2029
F0.018662262592898431
aaa(lp2030
(lp2031
I962
aI8
aI716
aI0
aa(lp2032
I34
aI5
aI23
aI3
aI1
aI8
aI4
aI0
aI0
aI0
aa(lp2033
F0.12419488026424443
aaa(lp2034
(lp2035
I1884
aI8
aI1646
aI0
aa(lp2036
I1
aI30
aI32
aI32
aI5
aI5
aI11
aI20
aI8
aI12
aa(lp2037
F0.12419488026424443
aaa(lp2038
(lp2039
I1785
aI7
aI992
aI0
aa(lp2040
I8
aI9
aI7
aI8
aI4
aI9
aI8
aI0
aI0
aI0
aa(lp2041
F0.018662262592898431
aaa(lp2042
(lp2043
I656
aI8
aI2880
aI0
aa(lp2044
I1
aI8
aI12
aI3
aI20
aI20
aI5
aI8
aI4
aI0
aa(lp2045
F0.12419488026424443
aaa(lp2046
(lp2047
I987
aI8
aI287
aI0
aa(lp2048
I8
aI34
aI5
aI12
aI3
aI1
aI8
aI4
aI0
aI0
aa(lp2049
F0.12419488026424443
aaa(lp2050
(lp2051
I971
aI8
aI2956
aI0
aa(lp2052
I8
aI34
aI5
aI12
aI3
aI1
aI8
aI4
aI0
aI0
aa(lp2053
F0.12419488026424443
aaa(lp2054
(lp2055
I1589
aI8
aI1431
aI0
aa(lp2056
I8
aI34
aI5
aI12
aI3
aI1
aI8
aI4
aI11
aI33
aa(lp2057
F0.12419488026424443
aaa(lp2058
(lp2059
I778
aI8
aI2743
aI0
aa(lp2060
I1
aI2
aI3
aI4
aI5
aI6
aI5
aI0
aI0
aI0
aa(lp2061
F0.12419488026424443
aaa(lp2062
(lp2063
I1533
aI8
aI2001
aI0
aa(lp2064
I38
aI5
aI39
aI5
aI9
aI8
aI12
aI3
aI8
aI4
aa(lp2065
F0.12419488026424443
aaa(lp2066
(lp2067
I1710
aI8
aI2959
aI0
aa(lp2068
I8
aI6
aI3
aI8
aI4
aI0
aI0
aI0
aI0
aI0
aa(lp2069
F0.12419488026424443
aaa(lp2070
(lp2071
I1532
aI8
aI2966
aI0
aa(lp2072
I3
aI9
aI8
aI7
aI3
aI8
aI4
aI0
aI0
aI0
aa(lp2073
F0.12419488026424443
aaa(lp2074
(lp2075
I980
aI8
aI2585
aI0
aa(lp2076
I1
aI8
aI41
aI36
aI4
aI25
aI1
aI12
aI5
aI30
aa(lp2077
F0.12419488026424443
aaa(lp2078
(lp2079
I812
aI8
aI872
aI0
aa(lp2080
I6
aI30
aI36
aI9
aI2
aI5
aI12
aI4
aI0
aI0
aa(lp2081
F0.12419488026424443
aaa(lp2082
(lp2083
I2780
aI7
aI1781
aI0
aa(lp2084
I8
aI9
aI7
aI8
aI4
aI9
aI8
aI0
aI0
aI0
aa(lp2085
F0.018662262592898431
aaa(lp2086
(lp2087
I1969
aI8
aI2926
aI0
aa(lp2088
I36
aI31
aI12
aI8
aI3
aI4
aI3
aI8
aI4
aI0
aa(lp2089
F0.12419488026424443
aaa(lp2090
(lp2091
I2648
aI7
aI2433
aI0
aa(lp2092
I8
aI9
aI7
aI8
aI4
aI9
aI8
aI0
aI0
aI0
aa(lp2093
F0.018662262592898431
aaa(lp2094
(lp2095
I2499
aI7
aI2552
aI0
aa(lp2096
I7
aI8
aI6
aI11
aI38
aI5
aI39
aI8
aI6
aI0
aa(lp2097
F0.018662262592898431
aaa(lp2098
(lp2099
I2879
aI8
aI1572
aI0
aa(lp2100
I39
aI12
aI5
aI5
aI31
aI11
aI8
aI4
aI22
aI11
aa(lp2101
F0.12419488026424443
aaa(lp2102
(lp2103
I1239
aI7
aI1241
aI0
aa(lp2104
I7
aI8
aI6
aI11
aI38
aI5
aI39
aI8
aI6
aI0
aa(lp2105
F0.018662262592898431
aaa(lp2106
(lp2107
I349
aI8
aI2978
aI0
aa(lp2108
I9
aI2
aI8
aI3
aI0
aI0
aI0
aI0
aI0
aI0
aa(lp2109
F0.12419488026424443
aaa(lp2110
(lp2111
I2572
aI8
aI2981
aI0
aa(lp2112
I8
aI34
aI5
aI12
aI3
aI1
aI8
aI4
aI11
aI33
aa(lp2113
F0.12419488026424443
aaa(lp2114
(lp2115
I2921
aI7
aI2950
aI0
aa(lp2116
I4
aI5
aI29
aI11
aI21
aI30
aI12
aI31
aI0
aI0
aa(lp2117
F0.018662262592898431
aaa(lp2118
(lp2119
I2644
aI8
aI2983
aI0
aa(lp2120
I9
aI2
aI8
aI3
aI0
aI0
aI0
aI0
aI0
aI0
aa(lp2121
F0.12419488026424443
aaa(lp2122
(lp2123
I2579
aI8
aI2984
aI0
aa(lp2124
I7
aI8
aI9
aI3
aI4
aI11
aI8
aI34
aI5
aI12
aa(lp2125
F0.12419488026424443
aaa(lp2126
(lp2127
I2133
aI8
aI2438
aI0
aa(lp2128
I1
aI30
aI32
aI32
aI5
aI5
aI11
aI6
aI2
aI30
aa(lp2129
F0.12419488026424443
aaa(lp2130
(lp2131
I2547
aI8
aI2987
aI0
aa(lp2132
I3
aI9
aI8
aI7
aI3
aI8
aI4
aI0
aI0
aI0
aa(lp2133
F0.12419488026424443
aaa(lp2134
(lp2135
I1078
aI8
aI1036
aI0
aa(lp2136
I5
aI1
aI7
aI5
aI1
aI9
aI3
aI1
aI0
aI0
aa(lp2137
F0.12419488026424443
aaa(lp2138
(lp2139
I1093
aI8
aI2992
aI0
aa(lp2140
I9
aI2
aI8
aI3
aI0
aI0
aI0
aI0
aI0
aI0
aa(lp2141
F0.12419488026424443
aaa(lp2142
(lp2143
I2134
aI8
aI2464
aI0
aa(lp2144
I1
aI8
aI7
aI3
aI32
aI30
aI12
aI4
aI3
aI8
aa(lp2145
F0.12419488026424443
aaa(lp2146
(lp2147
I903
aI8
aI948
aI0
aa(lp2148
I32
aI8
aI6
aI9
aI11
aI32
aI30
aI30
aI22
aI0
aa(lp2149
F0.12419488026424443
aaa(lp2150
(lp2151
I2484
aI8
aI228
aI0
aa(lp2152
I34
aI5
aI23
aI3
aI1
aI8
aI4
aI0
aI0
aI0
aa(lp2153
F0.12419488026424443
aaa(lp2154
(lp2155
I1539
aI8
aI2345
aI0
aa(lp2156
I8
aI34
aI5
aI12
aI3
aI1
aI8
aI4
aI0
aI0
aa(lp2157
F0.12419488026424443
aaa(lp2158
(lp2159
I250
aI8
aI1859
aI0
aa(lp2160
I2
aI5
aI8
aI7
aI9
aI2
aI11
aI32
aI30
aI30
aa(lp2161
F0.12419488026424443
aaa(lp2162
(lp2163
I1850
aI8
aI3017
aI0
aa(lp2164
I1
aI8
aI7
aI3
aI32
aI30
aI12
aI4
aI3
aI8
aa(lp2165
F0.12419488026424443
aaa(lp2166
(lp2167
I2895
aI8
aI1677
aI0
aa(lp2168
I8
aI6
aI3
aI8
aI4
aI0
aI0
aI0
aI0
aI0
aa(lp2169
F0.12419488026424443
aaa(lp2170
(lp2171
I198
aI8
aI2643
aI0
aa(lp2172
I32
aI12
aI5
aI4
aI1
aI2
aI11
aI33
aI4
aI5
aa(lp2173
F0.12419488026424443
aaa(lp2174
(lp2175
I471
aI7
aI2665
aI0
aa(lp2176
I8
aI9
aI7
aI8
aI4
aI9
aI8
aI0
aI0
aI0
aa(lp2177
F0.018662262592898431
aaa(lp2178
(lp2179
I213
aI8
aI3022
aI0
aa(lp2180
I2
aI8
aI34
aI20
aI36
aI12
aI39
aI5
aI12
aI6
aa(lp2181
F0.12419488026424443
aaa(lp2182
(lp2183
I3006
aI8
aI3023
aI0
aa(lp2184
I8
aI34
aI5
aI12
aI3
aI1
aI8
aI4
aI0
aI0
aa(lp2185
F0.12419488026424443
aaa(lp2186
(lp2187
I282
aI8
aI1649
aI0
aa(lp2188
I3
aI9
aI8
aI7
aI3
aI8
aI4
aI0
aI0
aI0
aa(lp2189
F0.12419488026424443
aaa(lp2190
(lp2191
I2082
aI8
aI1621
aI0
aa(lp2192
I1
aI8
aI7
aI3
aI32
aI30
aI12
aI4
aI3
aI8
aa(lp2193
F0.12419488026424443
aaa(lp2194
(lp2195
I2300
aI8
aI3029
aI0
aa(lp2196
I32
aI12
aI5
aI4
aI1
aI2
aI0
aI0
aI0
aI0
aa(lp2197
F0.12419488026424443
aaa(lp2198
(lp2199
I2346
aI8
aI3032
aI0
aa(lp2200
I3
aI9
aI8
aI7
aI3
aI8
aI4
aI0
aI0
aI0
aa(lp2201
F0.12419488026424443
aaa(lp2202
(lp2203
I2283
aI8
aI1432
aI0
aa(lp2204
I3
aI9
aI8
aI7
aI3
aI8
aI4
aI0
aI0
aI0
aa(lp2205
F0.12419488026424443
aaa(lp2206
(lp2207
I2469
aI8
aI2294
aI0
aa(lp2208
I32
aI12
aI5
aI4
aI1
aI2
aI11
aI33
aI4
aI5
aa(lp2209
F0.12419488026424443
aaa(lp2210
(lp2211
I1088
aI8
aI2412
aI0
aa(lp2212
I34
aI3
aI22
aI22
aI7
aI5
aI11
aI5
aI8
aI6
aa(lp2213
F0.12419488026424443
aaa(lp2214
(lp2215
I1657
aI8
aI2586
aI0
aa(lp2216
I9
aI2
aI8
aI3
aI0
aI0
aI0
aI0
aI0
aI0
aa(lp2217
F0.12419488026424443
aaa(lp2218
(lp2219
I1585
aI8
aI3009
aI0
aa(lp2220
I8
aI34
aI5
aI12
aI3
aI1
aI8
aI4
aI0
aI0
aa(lp2221
F0.12419488026424443
aaa(lp2222
(lp2223
I2048
aI8
aI3038
aI0
aa(lp2224
I34
aI5
aI22
aI3
aI9
aI5
aI12
aI12
aI8
aI4
aa(lp2225
F0.12419488026424443
aaa(lp2226
(lp2227
I1486
aI8
aI1542
aI0
aa(lp2228
I3
aI9
aI8
aI7
aI3
aI8
aI4
aI0
aI0
aI0
aa(lp2229
F0.12419488026424443
aaa(lp2230
(lp2231
I2702
aI8
aI139
aI0
aa(lp2232
I8
aI34
aI5
aI12
aI3
aI1
aI8
aI4
aI0
aI0
aa(lp2233
F0.12419488026424443
aaa(lp2234
(lp2235
I1019
aI8
aI3045
aI0
aa(lp2236
I1
aI2
aI3
aI4
aI5
aI6
aI5
aI0
aI0
aI0
aa(lp2237
F0.12419488026424443
aaa(lp2238
(lp2239
I169
aI8
aI3033
aI0
aa(lp2240
I32
aI12
aI5
aI4
aI1
aI2
aI0
aI0
aI0
aI0
aa(lp2241
F0.12419488026424443
aaa(lp2242
(lp2243
I2691
aI8
aI3047
aI0
aa(lp2244
I6
aI30
aI36
aI9
aI2
aI5
aI12
aI4
aI0
aI0
aa(lp2245
F0.12419488026424443
aaa(lp2246
(lp2247
I1292
aI8
aI2863
aI0
aa(lp2248
I28
aI3
aI10
aI10
aI8
aI0
aI0
aI0
aI0
aI0
aa(lp2249
F0.12419488026424443
aaa(lp2250
(lp2251
I2522
aI8
aI920
aI0
aa(lp2252
I8
aI6
aI3
aI8
aI4
aI0
aI0
aI0
aI0
aI0
aa(lp2253
F0.12419488026424443
aaa(lp2254
(lp2255
I491
aI8
aI2896
aI0
aa(lp2256
I34
aI5
aI23
aI3
aI1
aI8
aI4
aI25
aI9
aI5
aa(lp2257
F0.12419488026424443
aaa(lp2258
(lp2259
I1813
aI8
aI3051
aI0
aa(lp2260
I3
aI9
aI8
aI7
aI3
aI8
aI4
aI0
aI0
aI0
aa(lp2261
F0.12419488026424443
aaa(lp2262
(lp2263
I155
aI8
aI186
aI0
aa(lp2264
I1
aI30
aI32
aI32
aI5
aI5
aI11
aI6
aI2
aI30
aa(lp2265
F0.12419488026424443
aaa(lp2266
(lp2267
I2437
aI7
aI2613
aI0
aa(lp2268
I4
aI5
aI29
aI11
aI21
aI30
aI12
aI31
aI0
aI0
aa(lp2269
F0.018662262592898431
aaa(lp2270
(lp2271
I551
aI8
aI506
aI0
aa(lp2272
I32
aI12
aI5
aI4
aI1
aI2
aI11
aI33
aI4
aI5
aa(lp2273
F0.12419488026424443
aaa(lp2274
(lp2275
I1324
aI8
aI2960
aI0
aa(lp2276
I1
aI30
aI4
aI9
aI3
aI4
aI5
aI4
aI9
aI8
aa(lp2277
F0.12419488026424443
aaa(lp2278
(lp2279
I648
aI7
aI2902
aI0
aa(lp2280
I7
aI8
aI6
aI11
aI38
aI5
aI39
aI8
aI6
aI0
aa(lp2281
F0.018662262592898431
aaa(lp2282
(lp2283
I2413
aI8
aI834
aI0
aa(lp2284
I1
aI30
aI4
aI9
aI3
aI4
aI5
aI4
aI9
aI8
aa(lp2285
F0.12419488026424443
aaa(lp2286
(lp2287
I2439
aI8
aI1651
aI0
aa(lp2288
I3
aI9
aI8
aI7
aI3
aI8
aI4
aI0
aI0
aI0
aa(lp2289
F0.12419488026424443
aaa(lp2290
(lp2291
I417
aI8
aI2472
aI0
aa(lp2292
I8
aI6
aI3
aI8
aI4
aI0
aI0
aI0
aI0
aI0
aa(lp2293
F0.12419488026424443
aaa(lp2294
(lp2295
I1258
aI8
aI3058
aI0
aa(lp2296
I3
aI9
aI8
aI7
aI3
aI8
aI4
aI0
aI0
aI0
aa(lp2297
F0.12419488026424443
aaa(lp2298
(lp2299
I1963
aI8
aI1592
aI0
aa(lp2300
I32
aI12
aI5
aI4
aI1
aI2
aI0
aI0
aI0
aI0
aa(lp2301
F0.12419488026424443
aaa(lp2302
(lp2303
I2567
aI8
aI3062
aI0
aa(lp2304
I1
aI30
aI32
aI32
aI5
aI5
aI11
aI20
aI8
aI12
aa(lp2305
F0.12419488026424443
aaa(lp2306
(lp2307
I1753
aI8
aI791
aI0
aa(lp2308
I1
aI8
aI41
aI36
aI4
aI0
aI0
aI0
aI0
aI0
aa(lp2309
F0.12419488026424443
aaa(lp2310
(lp2311
I2474
aI8
aI2973
aI0
aa(lp2312
I7
aI8
aI9
aI3
aI4
aI11
aI8
aI34
aI5
aI12
aa(lp2313
F0.12419488026424443
aaa(lp2314
(lp2315
I70
aI8
aI2883
aI0
aa(lp2316
I34
aI3
aI22
aI22
aI7
aI5
aI11
aI5
aI8
aI6
aa(lp2317
F0.12419488026424443
aaa(lp2318
(lp2319
I1363
aI8
aI2968
aI0
aa(lp2320
I3
aI9
aI8
aI7
aI3
aI8
aI4
aI0
aI0
aI0
aa(lp2321
F0.12419488026424443
aaa(lp2322
(lp2323
I1414
aI8
aI866
aI0
aa(lp2324
I8
aI34
aI5
aI12
aI3
aI1
aI8
aI4
aI11
aI33
aa(lp2325
F0.12419488026424443
aaa(lp2326
(lp2327
I1161
aI8
aI3065
aI0
aa(lp2328
I8
aI34
aI5
aI12
aI3
aI1
aI8
aI4
aI0
aI0
aa(lp2329
F0.12419488026424443
aaa(lp2330
(lp2331
I1654
aI8
aI3066
aI0
aa(lp2332
I8
aI34
aI5
aI12
aI3
aI1
aI8
aI4
aI0
aI0
aa(lp2333
F0.12419488026424443
aaa(lp2334
(lp2335
I2962
aI7
aI881
aI0
aa(lp2336
I4
aI5
aI29
aI11
aI21
aI30
aI12
aI31
aI0
aI0
aa(lp2337
F0.018662262592898431
aaa(lp2338
(lp2339
I698
aI8
aI3069
aI0
aa(lp2340
I8
aI34
aI5
aI12
aI3
aI1
aI8
aI4
aI11
aI33
aa(lp2341
F0.12419488026424443
aaa(lp2342
(lp2343
I423
aI8
aI1020
aI0
aa(lp2344
I8
aI34
aI5
aI12
aI3
aI1
aI8
aI4
aI0
aI0
aa(lp2345
F0.12419488026424443
aaa(lp2346
(lp2347
I73
aI8
aI3078
aI0
aa(lp2348
I6
aI8
aI4
aI22
aI29
aI3
aI1
aI2
aI5
aI6
aa(lp2349
F0.12419488026424443
aaa(lp2350
(lp2351
I687
aI8
aI3082
aI0
aa(lp2352
I3
aI9
aI8
aI7
aI3
aI8
aI4
aI0
aI0
aI0
aa(lp2353
F0.12419488026424443
aaa(lp2354
(lp2355
I2560
aI8
aI2843
aI0
aa(lp2356
I1
aI8
aI7
aI3
aI32
aI30
aI12
aI4
aI3
aI8
aa(lp2357
F0.12419488026424443
aaa(lp2358
(lp2359
I2683
aI8
aI3087
aI0
aa(lp2360
I3
aI9
aI8
aI7
aI3
aI8
aI4
aI0
aI0
aI0
aa(lp2361
F0.12419488026424443
aaa(lp2362
(lp2363
I878
aI8
aI3088
aI0
aa(lp2364
I32
aI12
aI5
aI4
aI1
aI2
aI11
aI20
aI3
aI6
aa(lp2365
F0.12419488026424443
aaa(lp2366
(lp2367
I1500
aI8
aI3091
aI0
aa(lp2368
I8
aI34
aI5
aI12
aI3
aI1
aI8
aI4
aI0
aI0
aa(lp2369
F0.12419488026424443
aaa(lp2370
(lp2371
I220
aI8
aI1108
aI0
aa(lp2372
I6
aI5
aI8
aI32
aI30
aI30
aI22
aI0
aI0
aI0
aa(lp2373
F0.12419488026424443
aaa(lp2374
(lp2375
I2179
aI8
aI1871
aI0
aa(lp2376
I6
aI30
aI36
aI9
aI2
aI5
aI12
aI4
aI25
aI6
aa(lp2377
F0.12419488026424443
aaa(lp2378
(lp2379
I2073
aI8
aI3093
aI0
aa(lp2380
I8
aI34
aI5
aI12
aI3
aI1
aI8
aI4
aI0
aI0
aa(lp2381
F0.12419488026424443
aaa(lp2382
(lp2383
I1723
aI8
aI1232
aI0
aa(lp2384
I1
aI30
aI32
aI32
aI5
aI5
aI11
aI6
aI2
aI30
aa(lp2385
F0.12419488026424443
aaa(lp2386
(lp2387
I542
aI8
aI3094
aI0
aa(lp2388
I8
aI34
aI5
aI12
aI3
aI1
aI8
aI4
aI0
aI0
aa(lp2389
F0.12419488026424443
aaa(lp2390
(lp2391
I273
aI8
aI3097
aI0
aa(lp2392
I3
aI9
aI8
aI7
aI3
aI8
aI4
aI0
aI0
aI0
aa(lp2393
F0.12419488026424443
aaa(lp2394
(lp2395
I371
aI8
aI685
aI0
aa(lp2396
I22
aI3
aI4
aI5
aI12
aI6
aI0
aI0
aI0
aI0
aa(lp2397
F0.12419488026424443
aaa(lp2398
(lp2399
I3101
aI8
aI3102
aI0
aa(lp2400
I8
aI6
aI3
aI8
aI4
aI0
aI0
aI0
aI0
aI0
aa(lp2401
F0.12419488026424443
aaa(lp2402
(lp2403
I125
aI8
aI2852
aI0
aa(lp2404
I1
aI8
aI32
aI5
aI9
aI5
aI12
aI3
aI8
aI6
aa(lp2405
F0.12419488026424443
aaa(lp2406
(lp2407
I3104
aI8
aI2677
aI0
aa(lp2408
I8
aI34
aI5
aI12
aI3
aI1
aI8
aI4
aI0
aI0
aa(lp2409
F0.12419488026424443
aaa(lp2410
(lp2411
I472
aI8
aI2471
aI0
aa(lp2412
I20
aI36
aI32
aI32
aI5
aI9
aI6
aI0
aI0
aI0
aa(lp2413
F0.12419488026424443
aaa(lp2414
(lp2415
I88
aI8
aI3110
aI0
aa(lp2416
I8
aI6
aI3
aI8
aI4
aI0
aI0
aI0
aI0
aI0
aa(lp2417
F0.12419488026424443
aaa(lp2418
(lp2419
I1220
aI7
aI1374
aI0
aa(lp2420
I4
aI5
aI29
aI11
aI21
aI30
aI12
aI31
aI0
aI0
aa(lp2421
F0.018662262592898431
aaa(lp2422
(lp2423
I2800
aI7
aI828
aI0
aa(lp2424
I4
aI5
aI29
aI11
aI21
aI30
aI12
aI31
aI0
aI0
aa(lp2425
F0.018662262592898431
aaa(lp2426
(lp2427
I2717
aI8
aI3111
aI0
aa(lp2428
I1
aI8
aI7
aI3
aI32
aI30
aI12
aI4
aI3
aI8
aa(lp2429
F0.12419488026424443
aaa(lp2430
(lp2431
I429
aI8
aI3113
aI0
aa(lp2432
I3
aI9
aI8
aI7
aI3
aI8
aI4
aI0
aI0
aI0
aa(lp2433
F0.12419488026424443
aaa(lp2434
(lp2435
I894
aI8
aI14
aI0
aa(lp2436
I3
aI9
aI8
aI7
aI3
aI8
aI4
aI0
aI0
aI0
aa(lp2437
F0.12419488026424443
aaa(lp2438
(lp2439
I376
aI8
aI580
aI0
aa(lp2440
I32
aI12
aI5
aI4
aI1
aI2
aI11
aI33
aI1
aI7
aa(lp2441
F0.12419488026424443
aaa(lp2442
(lp2443
I1412
aI8
aI2231
aI0
aa(lp2444
I8
aI6
aI3
aI8
aI4
aI0
aI0
aI0
aI0
aI0
aa(lp2445
F0.12419488026424443
aaa(lp2446
(lp2447
I1322
aI7
aI2041
aI0
aa(lp2448
I4
aI5
aI29
aI11
aI21
aI30
aI12
aI31
aI0
aI0
aa(lp2449
F0.018662262592898431
aaa(lp2450
(lp2451
I570
aI8
aI3124
aI0
aa(lp2452
I9
aI5
aI23
aI15
aI34
aI5
aI23
aI0
aI0
aI0
aa(lp2453
F0.12419488026424443
aaa(lp2454
(lp2455
I884
aI8
aI3126
aI0
aa(lp2456
I3
aI9
aI8
aI7
aI3
aI8
aI4
aI0
aI0
aI0
aa(lp2457
F0.12419488026424443
aaa(lp2458
(lp2459
I1907
aI8
aI2383
aI0
aa(lp2460
I30
aI7
aI22
aI11
aI6
aI8
aI4
aI11
aI32
aI12
aa(lp2461
F0.12419488026424443
aaa(lp2462
(lp2463
I152
aI8
aI3130
aI0
aa(lp2464
I3
aI9
aI8
aI7
aI3
aI8
aI4
aI0
aI0
aI0
aa(lp2465
F0.12419488026424443
aaa(lp2466
(lp2467
I1990
aI8
aI2894
aI0
aa(lp2468
I8
aI34
aI5
aI12
aI3
aI1
aI8
aI4
aI0
aI0
aa(lp2469
F0.12419488026424443
aaa(lp2470
(lp2471
I3133
aI7
aI3134
aI0
aa(lp2472
I8
aI9
aI7
aI8
aI4
aI9
aI8
aI0
aI0
aI0
aa(lp2473
F0.018662262592898431
aaa(lp2474
(lp2475
I133
aI8
aI2131
aI0
aa(lp2476
I8
aI34
aI5
aI12
aI3
aI1
aI8
aI4
aI0
aI0
aa(lp2477
F0.12419488026424443
aaa(lp2478
(lp2479
I569
aI8
aI2858
aI0
aa(lp2480
I8
aI6
aI3
aI8
aI4
aI0
aI0
aI0
aI0
aI0
aa(lp2481
F0.12419488026424443
aaa(lp2482
(lp2483
I636
aI8
aI3136
aI0
aa(lp2484
I3
aI9
aI8
aI7
aI3
aI8
aI4
aI0
aI0
aI0
aa(lp2485
F0.12419488026424443
aaa(lp2486
(lp2487
I808
aI8
aI2694
aI0
aa(lp2488
I30
aI7
aI22
aI11
aI6
aI8
aI4
aI11
aI32
aI12
aa(lp2489
F0.12419488026424443
aaa(lp2490
(lp2491
I3137
aI8
aI2533
aI0
aa(lp2492
I1
aI30
aI32
aI32
aI5
aI5
aI11
aI20
aI8
aI12
aa(lp2493
F0.12419488026424443
aaa(lp2494
(lp2495
I997
aI8
aI1106
aI0
aa(lp2496
I8
aI34
aI5
aI12
aI3
aI1
aI8
aI4
aI11
aI33
aa(lp2497
F0.12419488026424443
aaa(lp2498
(lp2499
I6
aI8
aI2825
aI0
aa(lp2500
I8
aI34
aI5
aI12
aI3
aI1
aI8
aI4
aI0
aI0
aa(lp2501
F0.12419488026424443
aaa(lp2502
(lp2503
I2331
aI8
aI2267
aI0
aa(lp2504
I32
aI12
aI5
aI4
aI1
aI2
aI0
aI0
aI0
aI0
aa(lp2505
F0.12419488026424443
aaa(lp2506
(lp2507
I1042
aI8
aI3143
aI0
aa(lp2508
I8
aI34
aI5
aI12
aI3
aI1
aI8
aI4
aI11
aI33
aa(lp2509
F0.12419488026424443
aaa(lp2510
(lp2511
I1136
aI8
aI3147
aI0
aa(lp2512
I3
aI9
aI8
aI7
aI3
aI8
aI4
aI0
aI0
aI0
aa(lp2513
F0.12419488026424443
aaa(lp2514
(lp2515
I1181
aI8
aI2161
aI0
aa(lp2516
I6
aI9
aI5
aI8
aI31
aI2
aI30
aI36
aI6
aI5
aa(lp2517
F0.12419488026424443
aaa(lp2518
(lp2519
I2993
aI8
aI3149
aI0
aa(lp2520
I3
aI9
aI8
aI7
aI3
aI8
aI4
aI0
aI0
aI0
aa(lp2521
F0.12419488026424443
aaa(lp2522
(lp2523
I1146
aI7
aI2831
aI0
aa(lp2524
I7
aI30
aI6
aI11
aI8
aI4
aI39
aI5
aI7
aI5
aa(lp2525
F0.018662262592898431
aaa(lp2526
(lp2527
I2138
aI8
aI3153
aI0
aa(lp2528
I1
aI30
aI32
aI32
aI5
aI5
aI11
aI20
aI8
aI12
aa(lp2529
F0.12419488026424443
aaa(lp2530
(lp2531
I194
aI8
aI2889
aI0
aa(lp2532
I1
aI30
aI4
aI9
aI3
aI4
aI5
aI4
aI9
aI8
aa(lp2533
F0.12419488026424443
aaa(lp2534
(lp2535
I2684
aI8
aI2851
aI0
aa(lp2536
I8
aI6
aI3
aI8
aI4
aI0
aI0
aI0
aI0
aI0
aa(lp2537
F0.12419488026424443
aaa(lp2538
(lp2539
I1125
aI8
aI3015
aI0
aa(lp2540
I8
aI34
aI5
aI12
aI3
aI1
aI8
aI4
aI0
aI0
aa(lp2541
F0.12419488026424443
aaa(lp2542
(lp2543
I1050
aI8
aI1325
aI0
aa(lp2544
I8
aI34
aI5
aI12
aI3
aI1
aI8
aI4
aI0
aI0
aa(lp2545
F0.12419488026424443
aaa(lp2546
(lp2547
I2687
aI8
aI2477
aI0
aa(lp2548
I38
aI3
aI5
aI9
aI4
aI8
aI34
aI5
aI6
aI5
aa(lp2549
F0.12419488026424443
aaa(lp2550
(lp2551
I2773
aI7
aI2775
aI0
aa(lp2552
I8
aI9
aI7
aI8
aI4
aI9
aI8
aI0
aI0
aI0
aa(lp2553
F0.018662262592898431
aaa(lp2554
(lp2555
I2443
aI8
aI3148
aI0
aa(lp2556
I8
aI6
aI3
aI8
aI4
aI0
aI0
aI0
aI0
aI0
aa(lp2557
F0.12419488026424443
aaa(lp2558
(lp2559
I2536
aI7
aI2537
aI0
aa(lp2560
I4
aI5
aI29
aI11
aI21
aI30
aI12
aI31
aI0
aI0
aa(lp2561
F0.018662262592898431
aaa(lp2562
(lp2563
I1117
aI8
aI3056
aI0
aa(lp2564
I22
aI5
aI7
aI3
aI1
aI8
aI9
aI5
aI6
aI6
aa(lp2565
F0.12419488026424443
aaa(lp2566
(lp2567
I1638
aI8
aI2456
aI0
aa(lp2568
I2
aI8
aI34
aI20
aI36
aI12
aI39
aI5
aI12
aI6
aa(lp2569
F0.12419488026424443
aaa(lp2570
(lp2571
I2254
aI8
aI722
aI0
aa(lp2572
I32
aI12
aI5
aI4
aI1
aI2
aI11
aI20
aI3
aI6
aa(lp2573
F0.12419488026424443
aaa(lp2574
(lp2575
I2291
aI8
aI2710
aI0
aa(lp2576
I1
aI30
aI4
aI9
aI3
aI4
aI5
aI4
aI9
aI8
aa(lp2577
F0.12419488026424443
aaa(lp2578
(lp2579
I274
aI8
aI2948
aI0
aa(lp2580
I8
aI34
aI5
aI12
aI3
aI1
aI8
aI4
aI0
aI0
aa(lp2581
F0.12419488026424443
aaa(lp2582
(lp2583
I1732
aI7
aI1557
aI0
aa(lp2584
I6
aI8
aI4
aI11
aI32
aI12
aI8
aI4
aI1
aI3
aa(lp2585
F0.018662262592898431
aaa(lp2586
(lp2587
I2188
aI8
aI1944
aI0
aa(lp2588
I8
aI34
aI5
aI12
aI3
aI1
aI8
aI4
aI0
aI0
aa(lp2589
F0.12419488026424443
aaa(lp2590
(lp2591
I1326
aI8
aI1920
aI0
aa(lp2592
I8
aI34
aI5
aI12
aI3
aI1
aI8
aI4
aI0
aI0
aa(lp2593
F0.12419488026424443
aaa(lp2594
(lp2595
I2319
aI8
aI2382
aI0
aa(lp2596
I34
aI3
aI22
aI22
aI7
aI5
aI11
aI5
aI8
aI6
aa(lp2597
F0.12419488026424443
aaa(lp2598
(lp2599
I2390
aI8
aI2075
aI0
aa(lp2600
I8
aI34
aI5
aI12
aI3
aI1
aI8
aI4
aI0
aI0
aa(lp2601
F0.12419488026424443
aaa(lp2602
(lp2603
I1692
aI8
aI2495
aI0
aa(lp2604
I8
aI34
aI5
aI12
aI3
aI1
aI8
aI4
aI0
aI0
aa(lp2605
F0.12419488026424443
aaa(lp2606
(lp2607
I1905
aI8
aI3183
aI0
aa(lp2608
I1
aI8
aI7
aI3
aI32
aI30
aI12
aI4
aI3
aI8
aa(lp2609
F0.12419488026424443
aaa(lp2610
(lp2611
I590
aI8
aI1452
aI0
aa(lp2612
I3
aI9
aI8
aI7
aI3
aI8
aI4
aI0
aI0
aI0
aa(lp2613
F0.12419488026424443
aaa(lp2614
(lp2615
I647
aI8
aI2047
aI0
aa(lp2616
I8
aI34
aI5
aI12
aI3
aI1
aI8
aI4
aI0
aI0
aa(lp2617
F0.12419488026424443
aaa(lp2618
(lp2619
I2277
aI8
aI3185
aI0
aa(lp2620
I8
aI6
aI3
aI8
aI4
aI0
aI0
aI0
aI0
aI0
aa(lp2621
F0.12419488026424443
aaa(lp2622
(lp2623
I670
aI8
aI1376
aI0
aa(lp2624
I8
aI6
aI3
aI8
aI4
aI0
aI0
aI0
aI0
aI0
aa(lp2625
F0.12419488026424443
aaa(lp2626
(lp2627
I1659
aI8
aI3169
aI0
aa(lp2628
I32
aI12
aI5
aI4
aI1
aI2
aI0
aI0
aI0
aI0
aa(lp2629
F0.12419488026424443
aaa(lp2630
(lp2631
I1183
aI8
aI2143
aI0
aa(lp2632
I34
aI5
aI23
aI3
aI1
aI8
aI4
aI0
aI0
aI0
aa(lp2633
F0.12419488026424443
aaa(lp2634
(lp2635
I938
aI8
aI248
aI0
aa(lp2636
I6
aI30
aI36
aI9
aI2
aI5
aI12
aI4
aI25
aI6
aa(lp2637
F0.12419488026424443
aaa(lp2638
(lp2639
I502
aI8
aI3197
aI0
aa(lp2640
I6
aI5
aI8
aI32
aI30
aI30
aI22
aI0
aI0
aI0
aa(lp2641
F0.12419488026424443
aaa(lp2642
(lp2643
I1176
aI8
aI382
aI0
aa(lp2644
I6
aI5
aI8
aI32
aI30
aI30
aI22
aI0
aI0
aI0
aa(lp2645
F0.12419488026424443
aaa(lp2646
(lp2647
I252
aI8
aI3200
aI0
aa(lp2648
I1
aI36
aI20
aI8
aI4
aI0
aI0
aI0
aI0
aI0
aa(lp2649
F0.12419488026424443
aaa(lp2650
(lp2651
I1312
aI8
aI166
aI0
aa(lp2652
I8
aI34
aI5
aI12
aI3
aI1
aI8
aI4
aI0
aI0
aa(lp2653
F0.12419488026424443
aaa(lp2654
(lp2655
I611
aI8
aI3201
aI0
aa(lp2656
I3
aI9
aI8
aI7
aI3
aI8
aI4
aI0
aI0
aI0
aa(lp2657
F0.12419488026424443
aaa(lp2658
(lp2659
I1722
aI8
aI3203
aI0
aa(lp2660
I34
aI5
aI23
aI3
aI1
aI8
aI4
aI25
aI7
aI8
aa(lp2661
F0.12419488026424443
aaa(lp2662
(lp2663
I2829
aI7
aI3067
aI0
aa(lp2664
I8
aI9
aI7
aI8
aI4
aI9
aI8
aI0
aI0
aI0
aa(lp2665
F0.018662262592898431
aaa(lp2666
(lp2667
I2431
aI8
aI3080
aI0
aa(lp2668
I6
aI9
aI5
aI8
aI31
aI2
aI30
aI36
aI6
aI5
aa(lp2669
F0.12419488026424443
aaa(lp2670
(lp2671
I516
aI8
aI3209
aI0
aa(lp2672
I34
aI5
aI22
aI3
aI9
aI5
aI12
aI12
aI8
aI4
aa(lp2673
F0.12419488026424443
aaa(lp2674
(lp2675
I2641
aI8
aI3210
aI0
aa(lp2676
I3
aI9
aI8
aI7
aI3
aI8
aI4
aI0
aI0
aI0
aa(lp2677
F0.12419488026424443
aaa(lp2678
(lp2679
I1664
aI8
aI3212
aI0
aa(lp2680
I3
aI9
aI8
aI7
aI3
aI8
aI4
aI0
aI0
aI0
aa(lp2681
F0.12419488026424443
aaa(lp2682
(lp2683
I1221
aI8
aI2642
aI0
aa(lp2684
I3
aI9
aI8
aI7
aI3
aI8
aI4
aI0
aI0
aI0
aa(lp2685
F0.12419488026424443
aaa(lp2686
(lp2687
I399
aI8
aI3218
aI0
aa(lp2688
I32
aI12
aI5
aI4
aI1
aI2
aI11
aI33
aI4
aI5
aa(lp2689
F0.12419488026424443
aaa(lp2690
(lp2691
I1519
aI8
aI3222
aI0
aa(lp2692
I1
aI30
aI32
aI32
aI5
aI5
aI11
aI20
aI8
aI12
aa(lp2693
F0.12419488026424443
aaa(lp2694
(lp2695
I239
aI8
aI665
aI0
aa(lp2696
I8
aI6
aI3
aI8
aI4
aI0
aI0
aI0
aI0
aI0
aa(lp2697
F0.12419488026424443
aaa(lp2698
(lp2699
I1260
aI7
aI1261
aI0
aa(lp2700
I4
aI5
aI29
aI11
aI21
aI30
aI12
aI31
aI0
aI0
aa(lp2701
F0.018662262592898431
aaa(lp2702
(lp2703
I1144
aI8
aI3225
aI0
aa(lp2704
I8
aI34
aI5
aI12
aI3
aI1
aI8
aI4
aI0
aI0
aa(lp2705
F0.12419488026424443
aaa(lp2706
(lp2707
I2182
aI8
aI1625
aI0
aa(lp2708
I3
aI9
aI8
aI7
aI3
aI8
aI4
aI0
aI0
aI0
aa(lp2709
F0.12419488026424443
aaa(lp2710
(lp2711
I1495
aI8
aI1470
aI0
aa(lp2712
I8
aI34
aI5
aI12
aI3
aI1
aI8
aI4
aI0
aI0
aa(lp2713
F0.12419488026424443
aaa(lp2714
(lp2715
I2237
aI7
aI1522
aI0
aa(lp2716
I7
aI30
aI6
aI11
aI8
aI4
aI39
aI5
aI7
aI5
aa(lp2717
F0.018662262592898431
aaa(lp2718
(lp2719
I2056
aI8
aI3211
aI0
aa(lp2720
I32
aI12
aI5
aI4
aI1
aI2
aI11
aI33
aI1
aI7
aa(lp2721
F0.12419488026424443
aaa(lp2722
(lp2723
I2927
aI8
aI3227
aI0
aa(lp2724
I34
aI3
aI22
aI22
aI7
aI5
aI11
aI5
aI8
aI6
aa(lp2725
F0.12419488026424443
aaa(lp2726
(lp2727
I628
aI8
aI3041
aI0
aa(lp2728
I1
aI2
aI3
aI4
aI5
aI6
aI5
aI0
aI0
aI0
aa(lp2729
F0.12419488026424443
aaa(lp2730
(lp2731
I440
aI8
aI3228
aI0
aa(lp2732
I3
aI9
aI8
aI7
aI3
aI8
aI4
aI0
aI0
aI0
aa(lp2733
F0.12419488026424443
aaa(lp2734
(lp2735
I333
aI8
aI3054
aI0
aa(lp2736
I34
aI5
aI22
aI3
aI9
aI5
aI12
aI12
aI8
aI4
aa(lp2737
F0.12419488026424443
aaa(lp2738
(lp2739
I2407
aI8
aI3231
aI0
aa(lp2740
I8
aI34
aI5
aI12
aI3
aI1
aI8
aI4
aI11
aI33
aa(lp2741
F0.12419488026424443
aaa(lp2742
(lp2743
I2846
aI8
aI292
aI0
aa(lp2744
I3
aI9
aI8
aI7
aI3
aI8
aI4
aI0
aI0
aI0
aa(lp2745
F0.12419488026424443
aaa(lp2746
(lp2747
I1547
aI8
aI3234
aI0
aa(lp2748
I32
aI12
aI5
aI4
aI1
aI2
aI11
aI33
aI1
aI7
aa(lp2749
F0.12419488026424443
aaa(lp2750
(lp2751
I2627
aI8
aI2914
aI0
aa(lp2752
I1
aI30
aI32
aI32
aI5
aI5
aI11
aI20
aI8
aI12
aa(lp2753
F0.12419488026424443
aaa(lp2754
(lp2755
I277
aI8
aI3164
aI0
aa(lp2756
I8
aI6
aI3
aI8
aI4
aI0
aI0
aI0
aI0
aI0
aa(lp2757
F0.12419488026424443
aaa(lp2758
(lp2759
I144
aI8
aI3037
aI0
aa(lp2760
I3
aI9
aI8
aI7
aI3
aI8
aI4
aI0
aI0
aI0
aa(lp2761
F0.12419488026424443
aaa(lp2762
(lp2763
I1193
aI8
aI1410
aI0
aa(lp2764
I34
aI5
aI22
aI3
aI9
aI5
aI12
aI12
aI8
aI4
aa(lp2765
F0.12419488026424443
aaa(lp2766
(lp2767
I907
aI8
aI2216
aI0
aa(lp2768
I28
aI3
aI10
aI10
aI8
aI0
aI0
aI0
aI0
aI0
aa(lp2769
F0.12419488026424443
aaa(lp2770
(lp2771
I1958
aI8
aI2667
aI0
aa(lp2772
I34
aI5
aI23
aI3
aI1
aI8
aI4
aI0
aI0
aI0
aa(lp2773
F0.12419488026424443
aaa(lp2774
(lp2775
I839
aI8
aI3238
aI0
aa(lp2776
I30
aI4
aI7
aI21
aI11
aI3
aI4
aI11
aI7
aI8
aa(lp2777
F0.12419488026424443
aaa(lp2778
(lp2779
I2635
aI8
aI2862
aI0
aa(lp2780
I34
aI5
aI23
aI3
aI1
aI8
aI4
aI0
aI0
aI0
aa(lp2781
F0.12419488026424443
aaa(lp2782
(lp2783
I2017
aI8
aI3239
aI0
aa(lp2784
I8
aI34
aI5
aI12
aI3
aI1
aI8
aI4
aI0
aI0
aa(lp2785
F0.12419488026424443
aaa(lp2786
(lp2787
I772
aI8
aI2939
aI0
aa(lp2788
I32
aI12
aI5
aI4
aI1
aI2
aI11
aI20
aI3
aI6
aa(lp2789
F0.12419488026424443
aaa(lp2790
(lp2791
I1837
aI8
aI1841
aI0
aa(lp2792
I6
aI30
aI36
aI9
aI2
aI5
aI12
aI4
aI25
aI6
aa(lp2793
F0.12419488026424443
aaa(lp2794
(lp2795
I631
aI8
aI2095
aI0
aa(lp2796
I1
aI30
aI32
aI32
aI5
aI5
aI11
aI6
aI2
aI30
aa(lp2797
F0.12419488026424443
aaa(lp2798
(lp2799
I2280
aI8
aI838
aI0
aa(lp2800
I39
aI12
aI5
aI5
aI31
aI11
aI8
aI4
aI22
aI11
aa(lp2801
F0.12419488026424443
aaa(lp2802
(lp2803
I2317
aI8
aI3247
aI0
aa(lp2804
I8
aI34
aI5
aI12
aI3
aI1
aI8
aI4
aI11
aI33
aa(lp2805
F0.12419488026424443
aaa(lp2806
(lp2807
I1749
aI8
aI3248
aI0
aa(lp2808
I41
aI8
aI28
aI8
aI4
aI5
aI6
aI5
aI0
aI0
aa(lp2809
F0.12419488026424443
aaa(lp2810
(lp2811
I2834
aI8
aI1393
aI0
aa(lp2812
I39
aI12
aI5
aI5
aI31
aI11
aI8
aI4
aI22
aI11
aa(lp2813
F0.12419488026424443
aaa(lp2814
(lp2815
I336
aI8
aI2891
aI0
aa(lp2816
I32
aI12
aI5
aI4
aI1
aI2
aI11
aI33
aI4
aI5
aa(lp2817
F0.12419488026424443
aaa(lp2818
(lp2819
I126
aI8
aI2781
aI0
aa(lp2820
I8
aI34
aI5
aI12
aI3
aI1
aI8
aI4
aI0
aI0
aa(lp2821
F0.12419488026424443
aaa(lp2822
(lp2823
I532
aI8
aI3117
aI0
aa(lp2824
I12
aI36
aI6
aI6
aI3
aI8
aI4
aI0
aI0
aI0
aa(lp2825
F0.12419488026424443
aaa(lp2826
(lp2827
I996
aI8
aI46
aI0
aa(lp2828
I1
aI30
aI32
aI32
aI5
aI5
aI11
aI20
aI8
aI12
aa(lp2829
F0.12419488026424443
aaa(lp2830
(lp2831
I1114
aI7
aI1116
aI0
aa(lp2832
I8
aI9
aI7
aI8
aI4
aI9
aI8
aI0
aI0
aI0
aa(lp2833
F0.018662262592898431
aaa(lp2834
(lp2835
I2065
aI8
aI3252
aI0
aa(lp2836
I6
aI1
aI8
aI4
aI22
aI3
aI4
aI8
aI38
aI3
aa(lp2837
F0.12419488026424443
aaa(lp2838
(lp2839
I1956
aI8
aI2158
aI0
aa(lp2840
I1
aI8
aI7
aI3
aI32
aI30
aI12
aI4
aI3
aI8
aa(lp2841
F0.12419488026424443
aaa(lp2842
(lp2843
I1417
aI8
aI3249
aI0
aa(lp2844
I1
aI8
aI7
aI3
aI32
aI30
aI12
aI4
aI3
aI8
aa(lp2845
F0.12419488026424443
aaa(lp2846
(lp2847
I2698
aI8
aI3259
aI0
aa(lp2848
I8
aI6
aI3
aI8
aI4
aI0
aI0
aI0
aI0
aI0
aa(lp2849
F0.12419488026424443
aaa(lp2850
(lp2851
I236
aI7
aI238
aI0
aa(lp2852
I7
aI8
aI6
aI11
aI38
aI5
aI39
aI8
aI6
aI0
aa(lp2853
F0.018662262592898431
aaa(lp2854
(lp2855
I2228
aI8
aI3260
aI0
aa(lp2856
I20
aI8
aI12
aI20
aI5
aI1
aI36
aI5
aI0
aI0
aa(lp2857
F0.12419488026424443
aaa(lp2858
(lp2859
I1023
aI8
aI3269
aI0
aa(lp2860
I8
aI34
aI5
aI12
aI3
aI1
aI8
aI4
aI11
aI33
aa(lp2861
F0.12419488026424443
aaa(lp2862
(lp2863
I1481
aI7
aI3046
aI0
aa(lp2864
I8
aI9
aI7
aI8
aI4
aI9
aI8
aI0
aI0
aI0
aa(lp2865
F0.018662262592898431
aaa(lp2866
(lp2867
I3233
aI8
aI950
aI0
aa(lp2868
I3
aI9
aI8
aI7
aI3
aI8
aI4
aI0
aI0
aI0
aa(lp2869
F0.12419488026424443
aaa(lp2870
(lp2871
I936
aI8
aI457
aI0
aa(lp2872
I8
aI34
aI5
aI12
aI3
aI1
aI8
aI4
aI0
aI0
aa(lp2873
F0.12419488026424443
aaa(lp2874
(lp2875
I2594
aI8
aI533
aI0
aa(lp2876
I28
aI8
aI1
aI3
aI32
aI3
aI1
aI11
aI12
aI3
aa(lp2877
F0.12419488026424443
aaa(lp2878
(lp2879
I2955
aI7
aI2258
aI0
aa(lp2880
I6
aI8
aI4
aI11
aI32
aI12
aI8
aI4
aI1
aI3
aa(lp2881
F0.018662262592898431
aaa(lp2882
(lp2883
I850
aI8
aI2160
aI0
aa(lp2884
I32
aI12
aI5
aI4
aI1
aI2
aI0
aI0
aI0
aI0
aa(lp2885
F0.12419488026424443
aaa(lp2886
(lp2887
I3277
aI8
aI3155
aI0
aa(lp2888
I8
aI34
aI5
aI12
aI3
aI1
aI8
aI4
aI0
aI0
aa(lp2889
F0.12419488026424443
aaa(lp2890
(lp2891
I1182
aI8
aI3055
aI0
aa(lp2892
I7
aI8
aI9
aI3
aI4
aI11
aI8
aI34
aI5
aI12
aa(lp2893
F0.12419488026424443
aaa(lp2894
(lp2895
I1984
aI8
aI3014
aI0
aa(lp2896
I4
aI30
aI30
aI22
aI7
aI5
aI11
aI6
aI2
aI30
aa(lp2897
F0.12419488026424443
aaa(lp2898
(lp2899
I2614
aI8
aI2202
aI0
aa(lp2900
I32
aI12
aI5
aI4
aI1
aI2
aI11
aI20
aI3
aI6
aa(lp2901
F0.12419488026424443
aaa(lp2902
(lp2903
I2512
aI8
aI2598
aI0
aa(lp2904
I9
aI2
aI8
aI3
aI0
aI0
aI0
aI0
aI0
aI0
aa(lp2905
F0.12419488026424443
aaa(lp2906
(lp2907
I2748
aI8
aI3283
aI0
aa(lp2908
I3
aI9
aI8
aI7
aI3
aI8
aI4
aI0
aI0
aI0
aa(lp2909
F0.12419488026424443
aaa(lp2910
(lp2911
I2196
aI8
aI1174
aI0
aa(lp2912
I8
aI34
aI5
aI12
aI3
aI1
aI8
aI4
aI0
aI0
aa(lp2913
F0.12419488026424443
aaa(lp2914
(lp2915
I853
aI8
aI3266
aI0
aa(lp2916
I28
aI3
aI10
aI10
aI8
aI0
aI0
aI0
aI0
aI0
aa(lp2917
F0.12419488026424443
aaa(lp2918
(lp2919
I2906
aI8
aI896
aI0
aa(lp2920
I3
aI9
aI8
aI7
aI3
aI8
aI4
aI0
aI0
aI0
aa(lp2921
F0.12419488026424443
aaa(lp2922
(lp2923
I1844
aI8
aI1089
aI0
aa(lp2924
I1
aI30
aI32
aI32
aI5
aI5
aI11
aI6
aI2
aI30
aa(lp2925
F0.12419488026424443
aaa(lp2926
(lp2927
I1945
aI7
aI1946
aI0
aa(lp2928
I6
aI8
aI4
aI11
aI32
aI12
aI8
aI4
aI1
aI3
aa(lp2929
F0.018662262592898431
aaa(lp2930
(lp2931
I2332
aI8
aI1310
aI0
aa(lp2932
I3
aI9
aI8
aI7
aI3
aI8
aI4
aI0
aI0
aI0
aa(lp2933
F0.12419488026424443
aaa(lp2934
(lp2935
I2024
aI8
aI2487
aI0
aa(lp2936
I8
aI34
aI5
aI12
aI3
aI1
aI8
aI4
aI0
aI0
aa(lp2937
F0.12419488026424443
aaa(lp2938
(lp2939
I1652
aI8
aI693
aI0
aa(lp2940
I5
aI1
aI7
aI5
aI1
aI9
aI3
aI1
aI0
aI0
aa(lp2941
F0.12419488026424443
aaa(lp2942
(lp2943
I1609
aI7
aI2565
aI0
aa(lp2944
I4
aI5
aI29
aI11
aI21
aI30
aI12
aI31
aI0
aI0
aa(lp2945
F0.018662262592898431
aaa(lp2946
(lp2947
I829
aI8
aI1896
aI0
aa(lp2948
I8
aI6
aI3
aI8
aI4
aI0
aI0
aI0
aI0
aI0
aa(lp2949
F0.12419488026424443
aaa(lp2950
(lp2951
I1021
aI8
aI3241
aI0
aa(lp2952
I41
aI8
aI28
aI8
aI4
aI5
aI6
aI5
aI0
aI0
aa(lp2953
F0.12419488026424443
aaa(lp2954
(lp2955
I991
aI8
aI2016
aI0
aa(lp2956
I1
aI8
aI7
aI3
aI32
aI30
aI12
aI4
aI3
aI8
aa(lp2957
F0.12419488026424443
aaa(lp2958
(lp2959
I925
aI8
aI3303
aI0
aa(lp2960
I34
aI5
aI23
aI3
aI1
aI8
aI4
aI0
aI0
aI0
aa(lp2961
F0.12419488026424443
aaa(lp2962
(lp2963
I412
aI8
aI3304
aI0
aa(lp2964
I8
aI34
aI5
aI12
aI3
aI1
aI8
aI4
aI0
aI0
aa(lp2965
F0.12419488026424443
aaa(lp2966
(lp2967
I1959
aI8
aI1705
aI0
aa(lp2968
I41
aI8
aI28
aI8
aI4
aI5
aI6
aI5
aI0
aI0
aa(lp2969
F0.12419488026424443
aaa(lp2970
(lp2971
I1099
aI8
aI2807
aI0
aa(lp2972
I22
aI3
aI4
aI5
aI12
aI6
aI0
aI0
aI0
aI0
aa(lp2973
F0.12419488026424443
aaa(lp2974
(lp2975
I728
aI8
aI3308
aI0
aa(lp2976
I8
aI34
aI5
aI12
aI3
aI1
aI8
aI4
aI0
aI0
aa(lp2977
F0.12419488026424443
aaa(lp2978
(lp2979
I1726
aI8
aI1040
aI0
aa(lp2980
I8
aI34
aI5
aI12
aI3
aI1
aI8
aI4
aI0
aI0
aa(lp2981
F0.12419488026424443
aaa(lp2982
(lp2983
I2770
aI8
aI3142
aI0
aa(lp2984
I32
aI12
aI5
aI4
aI1
aI2
aI11
aI20
aI3
aI6
aa(lp2985
F0.12419488026424443
aaa(lp2986
(lp2987
I1587
aI8
aI1053
aI0
aa(lp2988
I32
aI12
aI5
aI4
aI1
aI2
aI0
aI0
aI0
aI0
aa(lp2989
F0.12419488026424443
aaa(lp2990
(lp2991
I1607
aI8
aI2897
aI0
aa(lp2992
I1
aI30
aI4
aI9
aI3
aI4
aI5
aI4
aI9
aI8
aa(lp2993
F0.12419488026424443
aaa(lp2994
(lp2995
I1513
aI8
aI2600
aI0
aa(lp2996
I6
aI30
aI36
aI9
aI2
aI29
aI5
aI6
aI9
aI5
aa(lp2997
F0.12419488026424443
aaa(lp2998
(lp2999
I2837
aI8
aI3114
aI0
aa(lp3000
I8
aI34
aI5
aI12
aI3
aI1
aI8
aI4
aI0
aI0
aa(lp3001
F0.12419488026424443
aaa(lp3002
(lp3003
I1754
aI8
aI653
aI0
aa(lp3004
I41
aI8
aI28
aI8
aI4
aI5
aI6
aI5
aI0
aI0
aa(lp3005
F0.12419488026424443
aaa(lp3006
(lp3007
I1590
aI8
aI1094
aI0
aa(lp3008
I6
aI5
aI8
aI32
aI30
aI30
aI22
aI0
aI0
aI0
aa(lp3009
F0.12419488026424443
aaa(lp3010
(lp3011
I3166
aI7
aI3146
aI0
aa(lp3012
I7
aI30
aI6
aI11
aI8
aI4
aI39
aI5
aI7
aI5
aa(lp3013
F0.018662262592898431
aaa(lp3014
(lp3015
I963
aI8
aI966
aI0
aa(lp3016
I8
aI6
aI3
aI8
aI4
aI0
aI0
aI0
aI0
aI0
aa(lp3017
F0.12419488026424443
aaa(lp3018
(lp3019
I2338
aI8
aI1148
aI0
aa(lp3020
I2
aI30
aI9
aI11
aI22
aI30
aI39
aI6
aI0
aI0
aa(lp3021
F0.12419488026424443
aaa(lp3022
(lp3023
I696
aI8
aI1805
aI0
aa(lp3024
I32
aI12
aI5
aI4
aI1
aI2
aI11
aI33
aI4
aI5
aa(lp3025
F0.12419488026424443
aaa(lp3026
(lp3027
I2397
aI8
aI3317
aI0
aa(lp3028
I8
aI34
aI5
aI12
aI3
aI1
aI8
aI4
aI0
aI0
aa(lp3029
F0.12419488026424443
aaa(lp3030
(lp3031
I2500
aI8
aI2070
aI0
aa(lp3032
I32
aI12
aI5
aI4
aI1
aI2
aI0
aI0
aI0
aI0
aa(lp3033
F0.12419488026424443
aaa(lp3034
(lp3035
I548
aI8
aI1982
aI0
aa(lp3036
I32
aI12
aI5
aI4
aI1
aI2
aI0
aI0
aI0
aI0
aa(lp3037
F0.12419488026424443
aaa(lp3038
(lp3039
I1560
aI8
aI2764
aI0
aa(lp3040
I34
aI5
aI22
aI3
aI9
aI5
aI12
aI12
aI8
aI4
aa(lp3041
F0.12419488026424443
aaa(lp3042
(lp3043
I2543
aI8
aI2440
aI0
aa(lp3044
I8
aI6
aI3
aI8
aI4
aI0
aI0
aI0
aI0
aI0
aa(lp3045
F0.12419488026424443
aaa(lp3046
(lp3047
I2485
aI8
aI2150
aI0
aa(lp3048
I3
aI9
aI8
aI7
aI3
aI8
aI4
aI0
aI0
aI0
aa(lp3049
F0.12419488026424443
aaa(lp3050
(lp3051
I1704
aI8
aI1083
aI0
aa(lp3052
I8
aI6
aI3
aI8
aI4
aI0
aI0
aI0
aI0
aI0
aa(lp3053
F0.12419488026424443
aaa(lp3054
(lp3055
I1740
aI8
aI328
aI0
aa(lp3056
I8
aI34
aI5
aI12
aI3
aI1
aI8
aI4
aI0
aI0
aa(lp3057
F0.12419488026424443
aaa(lp3058
(lp3059
I1165
aI8
aI3324
aI0
aa(lp3060
I3
aI9
aI8
aI7
aI3
aI8
aI4
aI0
aI0
aI0
aa(lp3061
F0.12419488026424443
aaa(lp3062
(lp3063
I1203
aI8
aI1266
aI0
aa(lp3064
I1
aI30
aI32
aI32
aI5
aI5
aI11
aI20
aI8
aI12
aa(lp3065
F0.12419488026424443
aaa(lp3066
(lp3067
I2006
aI8
aI2582
aI0
aa(lp3068
I32
aI12
aI5
aI4
aI1
aI2
aI0
aI0
aI0
aI0
aa(lp3069
F0.12419488026424443
aaa(lp3070
(lp3071
I635
aI8
aI559
aI0
aa(lp3072
I32
aI12
aI5
aI4
aI1
aI2
aI0
aI0
aI0
aI0
aa(lp3073
F0.12419488026424443
aaa(lp3074
(lp3075
I1546
aI8
aI527
aI0
aa(lp3076
I8
aI34
aI5
aI12
aI3
aI1
aI8
aI4
aI11
aI33
aa(lp3077
F0.12419488026424443
aaa(lp3078
(lp3079
I207
aI8
aI205
aI0
aa(lp3080
I3
aI9
aI8
aI7
aI3
aI8
aI4
aI0
aI0
aI0
aa(lp3081
F0.12419488026424443
aaa(lp3082
(lp3083
I2571
aI8
aI2942
aI0
aa(lp3084
I5
aI8
aI6
aI9
aI11
aI5
aI36
aI12
aI30
aI28
aa(lp3085
F0.12419488026424443
aaa(lp3086
(lp3087
I1162
aI8
aI3109
aI0
aa(lp3088
I8
aI32
aI39
aI2
aI8
aI4
aI0
aI0
aI0
aI0
aa(lp3089
F0.12419488026424443
aaa(lp3090
(lp3091
I1293
aI8
aI3219
aI0
aa(lp3092
I20
aI8
aI12
aI20
aI5
aI1
aI36
aI5
aI0
aI0
aa(lp3093
F0.12419488026424443
aaa(lp3094
(lp3095
I1648
aI8
aI1082
aI0
aa(lp3096
I32
aI12
aI5
aI4
aI1
aI2
aI0
aI0
aI0
aI0
aa(lp3097
F0.12419488026424443
aaa(lp3098
(lp3099
I790
aI8
aI3206
aI0
aa(lp3100
I32
aI12
aI5
aI4
aI1
aI2
aI0
aI0
aI0
aI0
aa(lp3101
F0.12419488026424443
aaa(lp3102
(lp3103
I1334
aI8
aI3140
aI0
aa(lp3104
I34
aI5
aI23
aI3
aI1
aI8
aI4
aI0
aI0
aI0
aa(lp3105
F0.12419488026424443
aaa(lp3106
(lp3107
I2541
aI8
aI203
aI0
aa(lp3108
I3
aI9
aI8
aI7
aI3
aI8
aI4
aI0
aI0
aI0
aa(lp3109
F0.12419488026424443
aaa(lp3110
(lp3111
I514
aI8
aI2587
aI0
aa(lp3112
I22
aI5
aI7
aI3
aI6
aI0
aI0
aI0
aI0
aI0
aa(lp3113
F0.12419488026424443
aaa(lp3114
(lp3115
I322
aI8
aI3340
aI0
aa(lp3116
I1
aI30
aI4
aI9
aI3
aI4
aI5
aI4
aI9
aI8
aa(lp3117
F0.12419488026424443
aaa(lp3118
(lp3119
I1168
aI7
aI1900
aI0
aa(lp3120
I6
aI8
aI4
aI11
aI32
aI12
aI8
aI4
aI1
aI3
aa(lp3121
F0.018662262592898431
aaa(lp3122
(lp3123
I1745
aI7
aI1003
aI0
aa(lp3124
I8
aI9
aI7
aI8
aI4
aI9
aI8
aI0
aI0
aI0
aa(lp3125
F0.018662262592898431
aaa(lp3126
(lp3127
I2590
aI8
aI2619
aI0
aa(lp3128
I38
aI5
aI39
aI5
aI9
aI8
aI12
aI3
aI8
aI4
aa(lp3129
F0.12419488026424443
aaa(lp3130
(lp3131
I1867
aI8
aI823
aI0
aa(lp3132
I32
aI12
aI5
aI4
aI1
aI2
aI0
aI0
aI0
aI0
aa(lp3133
F0.12419488026424443
aaa(lp3134
(lp3135
I659
aI8
aI2080
aI0
aa(lp3136
I3
aI9
aI8
aI7
aI3
aI8
aI4
aI0
aI0
aI0
aa(lp3137
F0.12419488026424443
aaa(lp3138
(lp3139
I2246
aI8
aI1675
aI0
aa(lp3140
I8
aI34
aI5
aI12
aI3
aI1
aI8
aI4
aI11
aI33
aa(lp3141
F0.12419488026424443
aaa(lp3142
(lp3143
I2653
aI8
aI1391
aI0
aa(lp3144
I28
aI8
aI1
aI3
aI32
aI3
aI1
aI11
aI4
aI5
aa(lp3145
F0.12419488026424443
aaa(lp3146
(lp3147
I1503
aI8
aI3202
aI0
aa(lp3148
I8
aI34
aI5
aI12
aI3
aI1
aI8
aI4
aI0
aI0
aa(lp3149
F0.12419488026424443
aaa(lp3150
(lp3151
I2746
aI8
aI749
aI0
aa(lp3152
I8
aI34
aI5
aI12
aI3
aI1
aI8
aI4
aI0
aI0
aa(lp3153
F0.12419488026424443
aaa(lp3154
(lp3155
I337
aI7
aI2629
aI0
aa(lp3156
I7
aI30
aI6
aI11
aI8
aI4
aI39
aI5
aI7
aI5
aa(lp3157
F0.018662262592898431
aaa(lp3158
(lp3159
I1311
aI7
aI3158
aI0
aa(lp3160
I4
aI5
aI29
aI11
aI21
aI30
aI12
aI31
aI0
aI0
aa(lp3161
F0.018662262592898431
aaa(lp3162
(lp3163
I2670
aI8
aI2592
aI0
aa(lp3164
I32
aI12
aI5
aI4
aI1
aI2
aI0
aI0
aI0
aI0
aa(lp3165
F0.12419488026424443
aaa(lp3166
(lp3167
I1379
aI8
aI1065
aI0
aa(lp3168
I6
aI30
aI36
aI9
aI2
aI5
aI12
aI4
aI0
aI0
aa(lp3169
F0.12419488026424443
aaa(lp3170
(lp3171
I1351
aI8
aI3095
aI0
aa(lp3172
I1
aI8
aI32
aI5
aI9
aI5
aI12
aI3
aI8
aI6
aa(lp3173
F0.12419488026424443
aaa(lp3174
(lp3175
I2650
aI8
aI2814
aI0
aa(lp3176
I3
aI4
aI22
aI3
aI8
aI4
aI0
aI0
aI0
aI0
aa(lp3177
F0.12419488026424443
aaa(lp3178
(lp3179
I1791
aI8
aI720
aI0
aa(lp3180
I3
aI9
aI8
aI7
aI3
aI8
aI4
aI0
aI0
aI0
aa(lp3181
F0.12419488026424443
aaa(lp3182
(lp3183
I1842
aI8
aI3216
aI0
aa(lp3184
I1
aI30
aI32
aI32
aI5
aI5
aI11
aI6
aI2
aI30
aa(lp3185
F0.12419488026424443
aaa(lp3186
(lp3187
I1052
aI8
aI739
aI0
aa(lp3188
I8
aI34
aI5
aI12
aI3
aI1
aI8
aI4
aI11
aI33
aa(lp3189
F0.12419488026424443
aaa(lp3190
(lp3191
I1281
aI8
aI3167
aI0
aa(lp3192
I28
aI8
aI1
aI3
aI32
aI3
aI1
aI11
aI4
aI5
aa(lp3193
F0.12419488026424443
aaa(lp3194
(lp3195
I459
aI8
aI3194
aI0
aa(lp3196
I32
aI12
aI5
aI4
aI1
aI2
aI0
aI0
aI0
aI0
aa(lp3197
F0.12419488026424443
aaa(lp3198
(lp3199
I1143
aI8
aI2303
aI0
aa(lp3200
I32
aI12
aI5
aI4
aI1
aI2
aI11
aI20
aI3
aI6
aa(lp3201
F0.12419488026424443
aaa(lp3202
(lp3203
I921
aI8
aI3364
aI0
aa(lp3204
I8
aI34
aI5
aI12
aI3
aI1
aI8
aI4
aI0
aI0
aa(lp3205
F0.12419488026424443
aaa(lp3206
(lp3207
I541
aI8
aI1598
aI0
aa(lp3208
I9
aI2
aI8
aI3
aI0
aI0
aI0
aI0
aI0
aI0
aa(lp3209
F0.12419488026424443
aaa(lp3210
(lp3211
I2366
aI8
aI2878
aI0
aa(lp3212
I1
aI30
aI4
aI9
aI3
aI4
aI5
aI4
aI9
aI8
aa(lp3213
F0.12419488026424443
aaa(lp3214
(lp3215
I2358
aI8
aI3019
aI0
aa(lp3216
I1
aI2
aI3
aI4
aI5
aI6
aI5
aI0
aI0
aI0
aa(lp3217
F0.12419488026424443
aaa(lp3218
(lp3219
I1249
aI8
aI571
aI0
aa(lp3220
I3
aI9
aI8
aI7
aI3
aI8
aI4
aI0
aI0
aI0
aa(lp3221
F0.12419488026424443
aaa(lp3222
(lp3223
I1005
aI8
aI2584
aI0
aa(lp3224
I1
aI2
aI3
aI4
aI5
aI6
aI5
aI0
aI0
aI0
aa(lp3225
F0.12419488026424443
aaa(lp3226
(lp3227
I2656
aI8
aI2994
aI0
aa(lp3228
I32
aI12
aI5
aI4
aI1
aI2
aI0
aI0
aI0
aI0
aa(lp3229
F0.12419488026424443
aaa(lp3230
(lp3231
I2058
aI8
aI1748
aI0
aa(lp3232
I1
aI30
aI4
aI9
aI3
aI4
aI5
aI4
aI9
aI8
aa(lp3233
F0.12419488026424443
aaa(lp3234
(lp3235
I2391
aI8
aI1679
aI0
aa(lp3236
I34
aI5
aI23
aI3
aI1
aI8
aI4
aI25
aI7
aI8
aa(lp3237
F0.12419488026424443
aaa(lp3238
(lp3239
I2639
aI8
aI3132
aI0
aa(lp3240
I32
aI12
aI5
aI4
aI1
aI2
aI0
aI0
aI0
aI0
aa(lp3241
F0.12419488026424443
aaa(lp3242
(lp3243
I2192
aI7
aI2194
aI0
aa(lp3244
I8
aI9
aI7
aI8
aI4
aI9
aI8
aI0
aI0
aI0
aa(lp3245
F0.018662262592898431
aaa(lp3246
(lp3247
I1523
aI8
aI870
aI0
aa(lp3248
I1
aI8
aI32
aI5
aI9
aI5
aI12
aI3
aI8
aI6
aa(lp3249
F0.12419488026424443
aaa(lp3250
(lp3251
I2608
aI8
aI2738
aI0
aa(lp3252
I2
aI8
aI34
aI20
aI36
aI12
aI39
aI5
aI12
aI6
aa(lp3253
F0.12419488026424443
aaa(lp3254
(lp3255
I2132
aI8
aI1045
aI0
aa(lp3256
I8
aI6
aI3
aI8
aI4
aI0
aI0
aI0
aI0
aI0
aa(lp3257
F0.12419488026424443
aaa(lp3258
(lp3259
I934
aI8
aI2295
aI0
aa(lp3260
I8
aI6
aI3
aI8
aI4
aI0
aI0
aI0
aI0
aI0
aa(lp3261
F0.12419488026424443
aaa(lp3262
(lp3263
I1602
aI8
aI2607
aI0
aa(lp3264
I1
aI30
aI32
aI32
aI5
aI5
aI11
aI20
aI8
aI12
aa(lp3265
F0.12419488026424443
aaa(lp3266
(lp3267
I2799
aI8
aI3074
aI0
aa(lp3268
I3
aI4
aI22
aI3
aI8
aI4
aI0
aI0
aI0
aI0
aa(lp3269
F0.12419488026424443
aaa(lp3270
(lp3271
I2012
aI8
aI1992
aI0
aa(lp3272
I3
aI9
aI8
aI7
aI3
aI8
aI4
aI0
aI0
aI0
aa(lp3273
F0.12419488026424443
aaa(lp3274
(lp3275
I501
aI7
aI1508
aI0
aa(lp3276
I7
aI30
aI6
aI11
aI8
aI4
aI39
aI5
aI7
aI5
aa(lp3277
F0.018662262592898431
aaa(lp3278
(lp3279
I1576
aI8
aI377
aI0
aa(lp3280
I32
aI12
aI5
aI4
aI1
aI2
aI0
aI0
aI0
aI0
aa(lp3281
F0.12419488026424443
aaa(lp3282
(lp3283
I105
aI8
aI2634
aI0
aa(lp3284
I32
aI12
aI5
aI4
aI1
aI2
aI0
aI0
aI0
aI0
aa(lp3285
F0.12419488026424443
aaa(lp3286
(lp3287
I1456
aI8
aI2915
aI0
aa(lp3288
I34
aI5
aI22
aI3
aI9
aI5
aI12
aI12
aI8
aI4
aa(lp3289
F0.12419488026424443
aaa(lp3290
(lp3291
I1307
aI7
aI1308
aI0
aa(lp3292
I4
aI5
aI29
aI11
aI21
aI30
aI12
aI31
aI0
aI0
aa(lp3293
F0.018662262592898431
aaa(lp3294
(lp3295
I2630
aI7
aI1231
aI0
aa(lp3296
I7
aI30
aI6
aI11
aI8
aI4
aI39
aI5
aI7
aI5
aa(lp3297
F0.018662262592898431
aaa(lp3298
(lp3299
I1073
aI8
aI3235
aI0
aa(lp3300
I3
aI9
aI8
aI7
aI3
aI8
aI4
aI0
aI0
aI0
aa(lp3301
F0.12419488026424443
aaa(lp3302
(lp3303
I1137
aI8
aI2505
aI0
aa(lp3304
I8
aI34
aI5
aI12
aI3
aI1
aI8
aI4
aI0
aI0
aa(lp3305
F0.12419488026424443
aaa(lp3306
(lp3307
I2442
aI8
aI3002
aI0
aa(lp3308
I8
aI6
aI3
aI8
aI4
aI0
aI0
aI0
aI0
aI0
aa(lp3309
F0.12419488026424443
aaa(lp3310
(lp3311
I1769
aI8
aI2654
aI0
aa(lp3312
I6
aI30
aI36
aI9
aI2
aI5
aI12
aI4
aI25
aI6
aa(lp3313
F0.12419488026424443
aaa(lp3314
(lp3315
I2239
aI8
aI3205
aI0
aa(lp3316
I3
aI9
aI8
aI7
aI3
aI8
aI4
aI0
aI0
aI0
aa(lp3317
F0.12419488026424443
aaa(lp3318
(lp3319
I1921
aI8
aI3389
aI0
aa(lp3320
I8
aI6
aI3
aI8
aI4
aI0
aI0
aI0
aI0
aI0
aa(lp3321
F0.12419488026424443
aaa(lp3322
(lp3323
I933
aI8
aI485
aI0
aa(lp3324
I8
aI34
aI5
aI12
aI3
aI1
aI8
aI4
aI11
aI33
aa(lp3325
F0.12419488026424443
aaa(lp3326
(lp3327
I724
aI8
aI3286
aI0
aa(lp3328
I38
aI5
aI39
aI5
aI9
aI8
aI12
aI3
aI8
aI4
aa(lp3329
F0.12419488026424443
aaa(lp3330
(lp3331
I78
aI7
aI79
aI0
aa(lp3332
I6
aI8
aI4
aI11
aI32
aI12
aI8
aI4
aI1
aI3
aa(lp3333
F0.018662262592898431
aaa(lp3334
(lp3335
I1538
aI8
aI2682
aI0
aa(lp3336
I6
aI5
aI8
aI32
aI30
aI30
aI22
aI0
aI0
aI0
aa(lp3337
F0.12419488026424443
aaa(lp3338
(lp3339
I2214
aI7
aI2215
aI0
aa(lp3340
I6
aI8
aI4
aI11
aI32
aI12
aI8
aI4
aI1
aI3
aa(lp3341
F0.018662262592898431
aaa(lp3342
(lp3343
I612
aI8
aI2406
aI0
aa(lp3344
I1
aI30
aI32
aI32
aI5
aI5
aI11
aI20
aI8
aI12
aa(lp3345
F0.12419488026424443
aaa(lp3346
(lp3347
I454
aI7
aI455
aI0
aa(lp3348
I4
aI5
aI29
aI11
aI21
aI30
aI12
aI31
aI0
aI0
aa(lp3349
F0.018662262592898431
aaa(lp3350
(lp3351
I447
aI8
aI733
aI0
aa(lp3352
I6
aI9
aI5
aI8
aI31
aI2
aI30
aI36
aI6
aI5
aa(lp3353
F0.12419488026424443
aaa(lp3354
(lp3355
I1329
aI7
aI2999
aI0
aa(lp3356
I6
aI8
aI4
aI11
aI32
aI12
aI8
aI4
aI1
aI3
aa(lp3357
F0.018662262592898431
aaa(lp3358
(lp3359
I1995
aI8
aI2789
aI0
aa(lp3360
I3
aI9
aI8
aI7
aI3
aI8
aI4
aI0
aI0
aI0
aa(lp3361
F0.12419488026424443
aaa(lp3362
(lp3363
I1485
aI8
aI3402
aI0
aa(lp3364
I8
aI6
aI3
aI8
aI4
aI0
aI0
aI0
aI0
aI0
aa(lp3365
F0.12419488026424443
aaa(lp3366
(lp3367
I1246
aI8
aI2626
aI0
aa(lp3368
I34
aI5
aI23
aI3
aI1
aI8
aI4
aI0
aI0
aI0
aa(lp3369
F0.12419488026424443
aaa(lp3370
(lp3371
I2204
aI8
aI1236
aI0
aa(lp3372
I32
aI12
aI5
aI4
aI1
aI2
aI11
aI33
aI4
aI5
aa(lp3373
F0.12419488026424443
aaa(lp3374
(lp3375
I2497
aI7
aI2482
aI0
aa(lp3376
I20
aI5
aI7
aI11
aI8
aI3
aI12
aI0
aI0
aI0
aa(lp3377
F0.018662262592898431
aaa(lp3378
(lp3379
I2392
aI8
aI3122
aI0
aa(lp3380
I8
aI34
aI5
aI12
aI3
aI1
aI8
aI4
aI0
aI0
aa(lp3381
F0.12419488026424443
aaa(lp3382
(lp3383
I2908
aI8
aI3297
aI0
aa(lp3384
I3
aI9
aI8
aI7
aI3
aI8
aI4
aI0
aI0
aI0
aa(lp3385
F0.12419488026424443
aaa(lp3386
(lp3387
I2116
aI8
aI2265
aI0
aa(lp3388
I7
aI8
aI9
aI3
aI4
aI11
aI8
aI34
aI5
aI12
aa(lp3389
F0.12419488026424443
aaa(lp3390
(lp3391
I1354
aI8
aI1109
aI0
aa(lp3392
I8
aI6
aI3
aI8
aI4
aI0
aI0
aI0
aI0
aI0
aa(lp3393
F0.12419488026424443
aaa(lp3394
(lp3395
I867
aI8
aI298
aI0
aa(lp3396
I34
aI5
aI22
aI3
aI9
aI5
aI12
aI12
aI8
aI4
aa(lp3397
F0.12419488026424443
aaa(lp3398
(lp3399
I2120
aI8
aI1940
aI0
aa(lp3400
I8
aI34
aI5
aI12
aI3
aI1
aI8
aI4
aI0
aI0
aa(lp3401
F0.12419488026424443
aaa(lp3402
(lp3403
I1788
aI8
aI2385
aI0
aa(lp3404
I22
aI5
aI7
aI3
aI6
aI0
aI0
aI0
aI0
aI0
aa(lp3405
F0.12419488026424443
aaa(lp3406
(lp3407
I1686
aI7
aI1687
aI0
aa(lp3408
I7
aI30
aI6
aI11
aI8
aI4
aI39
aI5
aI7
aI5
aa(lp3409
F0.018662262592898431
aaa(lp3410
(lp3411
I1305
aI8
aI1690
aI0
aa(lp3412
I22
aI3
aI4
aI5
aI12
aI6
aI0
aI0
aI0
aI0
aa(lp3413
F0.12419488026424443
aaa(lp3414
(lp3415
I1987
aI8
aI303
aI0
aa(lp3416
I32
aI12
aI5
aI4
aI1
aI2
aI0
aI0
aI0
aI0
aa(lp3417
F0.12419488026424443
aaa(lp3418
(lp3419
I3119
aI8
aI3265
aI0
aa(lp3420
I12
aI36
aI6
aI6
aI3
aI8
aI4
aI0
aI0
aI0
aa(lp3421
F0.12419488026424443
aaa(lp3422
(lp3423
I426
aI8
aI2820
aI0
aa(lp3424
I8
aI34
aI5
aI12
aI3
aI1
aI8
aI4
aI0
aI0
aa(lp3425
F0.12419488026424443
aaa(lp3426
(lp3427
I1330
aI8
aI442
aI0
aa(lp3428
I8
aI34
aI5
aI12
aI3
aI1
aI8
aI4
aI0
aI0
aa(lp3429
F0.12419488026424443
aaa(lp3430
(lp3431
I3157
aI7
aI1892
aI0
aa(lp3432
I4
aI5
aI29
aI11
aI21
aI30
aI12
aI31
aI0
aI0
aa(lp3433
F0.018662262592898431
aaa(lp3434
(lp3435
I360
aI8
aI3292
aI0
aa(lp3436
I8
aI6
aI3
aI8
aI4
aI0
aI0
aI0
aI0
aI0
aa(lp3437
F0.12419488026424443
aaa(lp3438
(lp3439
I1150
aI8
aI1493
aI0
aa(lp3440
I2
aI30
aI9
aI11
aI22
aI30
aI39
aI6
aI0
aI0
aa(lp3441
F0.12419488026424443
aaa(lp3442
(lp3443
I2097
aI8
aI1279
aI0
aa(lp3444
I2
aI8
aI34
aI20
aI36
aI12
aI39
aI5
aI12
aI6
aa(lp3445
F0.12419488026424443
aaa(lp3446
(lp3447
I697
aI7
aI3011
aI0
aa(lp3448
I8
aI9
aI7
aI8
aI4
aI9
aI8
aI0
aI0
aI0
aa(lp3449
F0.018662262592898431
aaa(lp3450
(lp3451
I598
aI7
aI3064
aI0
aa(lp3452
I4
aI5
aI29
aI11
aI21
aI30
aI12
aI31
aI0
aI0
aa(lp3453
F0.018662262592898431
aaa(lp3454
(lp3455
I3061
aI7
aI339
aI0
aa(lp3456
I4
aI5
aI29
aI11
aI21
aI30
aI12
aI31
aI0
aI0
aa(lp3457
F0.018662262592898431
aaa(lp3458
(lp3459
I2809
aI7
aI2810
aI0
aa(lp3460
I8
aI9
aI7
aI8
aI4
aI9
aI8
aI0
aI0
aI0
aa(lp3461
F0.018662262592898431
aaa.