(dp1
crdflib.term
URIRef
p2
(Vhttp://www.okkam.org/oaie/restaurant2-Restaurant4
tRp3
S'campanile'
p4
sg2
(Vhttp://www.okkam.org/oaie/restaurant2-Restaurant5
tRp5
S'chinois on main'
p6
sg2
(Vhttp://www.okkam.org/oaie/restaurant2-Restaurant6
tRp7
S'citrus'
p8
sg2
(Vhttp://www.okkam.org/oaie/restaurant2-Restaurant7
tRp9
S'fenix at the argyle'
p10
sg2
(Vhttp://www.okkam.org/oaie/restaurant2-Restaurant0
tRp11
S"arnie morton's of chicago"
p12
sg2
(Vhttp://www.okkam.org/oaie/restaurant2-Restaurant2
tRp13
S'bel-air hotel'
p14
sg2
(Vhttp://www.okkam.org/oaie/restaurant2-Restaurant3
tRp15
S'cafe bizou'
p16
sg2
(Vhttp://www.okkam.org/oaie/restaurant2-Restaurant8
tRp17
S'granita'
p18
sg2
(Vhttp://www.okkam.org/oaie/restaurant2-Restaurant9
tRp19
S'grill  the'
p20
sg2
(Vhttp://www.okkam.org/oaie/restaurant2-Category414
tRp21
S'barbecue'
p22
sg2
(Vhttp://www.okkam.org/oaie/restaurant2-Category415
tRp23
S'asian'
p24
sg2
(Vhttp://www.okkam.org/oaie/restaurant2-Category140
tRp25
S'health food'
p26
sg2
(Vhttp://www.okkam.org/oaie/restaurant2-Category141
tRp27
S'californian'
p28
sg2
(Vhttp://www.okkam.org/oaie/restaurant2-Category146
tRp29
S'italian'
p30
sg2
(Vhttp://www.okkam.org/oaie/restaurant2-Category411
tRp31
S'american'
p32
sg2
(Vhttp://www.okkam.org/oaie/restaurant2-Category412
tRp33
S'italian'
p34
sg2
(Vhttp://www.okkam.org/oaie/restaurant2-Category145
tRp35
S'french'
p36
sg2
(Vhttp://www.okkam.org/oaie/restaurant2-restaurant240
tRp37
S"jack sprat's grill"
p38
sg2
(Vhttp://www.okkam.org/oaie/restaurant2-restaurant241
tRp39
S"jackson's farm"
p40
sg2
(Vhttp://www.okkam.org/oaie/restaurant2-restaurant242
tRp41
S"jimmy's"
p42
sg2
(Vhttp://www.okkam.org/oaie/restaurant2-restaurant243
tRp43
S'joss'
p44
sg2
(Vhttp://www.okkam.org/oaie/restaurant2-restaurant244
tRp45
S'le colonial'
p46
sg2
(Vhttp://www.okkam.org/oaie/restaurant2-restaurant245
tRp47
S'le dome'
p48
sg2
(Vhttp://www.okkam.org/oaie/restaurant2-restaurant246
tRp49
S"louise's trattoria"
p50
sg2
(Vhttp://www.okkam.org/oaie/restaurant2-restaurant247
tRp51
S'mon kee seafood restaurant'
p52
sg2
(Vhttp://www.okkam.org/oaie/restaurant2-restaurant248
tRp53
S"morton's"
p54
sg2
(Vhttp://www.okkam.org/oaie/restaurant2-restaurant249
tRp55
S"nate 'n' al's"
p56
sg2
(Vhttp://www.okkam.org/oaie/restaurant1-City51
tRp57
S'new york'
p58
sg2
(Vhttp://www.okkam.org/oaie/restaurant1-City50
tRp59
S'new york'
p60
sg2
(Vhttp://www.okkam.org/oaie/restaurant1-City53
tRp61
S'new york'
p62
sg2
(Vhttp://www.okkam.org/oaie/restaurant1-City52
tRp63
S'new york'
p64
sg2
(Vhttp://www.okkam.org/oaie/restaurant1-City55
tRp65
S'new york'
p66
sg2
(Vhttp://www.okkam.org/oaie/restaurant1-City54
tRp67
S'new york'
p68
sg2
(Vhttp://www.okkam.org/oaie/restaurant1-City57
tRp69
S'new york'
p70
sg2
(Vhttp://www.okkam.org/oaie/restaurant1-City56
tRp71
S'brooklyn'
p72
sg2
(Vhttp://www.okkam.org/oaie/restaurant1-City59
tRp73
S'new york'
p74
sg2
(Vhttp://www.okkam.org/oaie/restaurant1-City58
tRp75
S'new york'
p76
sg2
(Vhttp://www.okkam.org/oaie/restaurant2-Restaurant356
tRp77
S'tang pavillion'
p78
sg2
(Vhttp://www.okkam.org/oaie/restaurant2-Restaurant357
tRp79
S'tapika'
p80
sg2
(Vhttp://www.okkam.org/oaie/restaurant2-Restaurant354
tRp81
S"sweet'n'tart cafe"
p82
sg2
(Vhttp://www.okkam.org/oaie/restaurant2-Restaurant355
tRp83
S't salon'
p84
sg2
(Vhttp://www.okkam.org/oaie/restaurant2-Restaurant352
tRp85
S'stage deli'
p86
sg2
(Vhttp://www.okkam.org/oaie/restaurant2-Restaurant353
tRp87
S'stingray'
p88
sg2
(Vhttp://www.okkam.org/oaie/restaurant2-Restaurant350
tRp89
S'sofia fabulous pizza'
p90
sg2
(Vhttp://www.okkam.org/oaie/restaurant2-Restaurant351
tRp91
S'spring street natural restaurant & bar'
p92
sg2
(Vhttp://www.okkam.org/oaie/restaurant2-Restaurant358
tRp93
S"teresa's"
p94
sg2
(Vhttp://www.okkam.org/oaie/restaurant2-Restaurant359
tRp95
S'terrace'
p96
sg2
(Vhttp://www.okkam.org/oaie/restaurant2-Restaurant752
tRp97
S'wa-ha-ka oaxaca mexican grill'
p98
sg2
(Vhttp://www.okkam.org/oaie/restaurant2-Restaurant750
tRp99
S'tu lan'
p100
sg2
(Vhttp://www.okkam.org/oaie/restaurant2-Restaurant751
tRp101
S'vicolo pizzeria'
p102
sg2
(Vhttp://www.okkam.org/oaie/restaurant2-Restaurant598
tRp103
S"tommy's"
p104
sg2
(Vhttp://www.okkam.org/oaie/restaurant2-Restaurant599
tRp105
S"uncle bill's pancake house"
p106
sg2
(Vhttp://www.okkam.org/oaie/restaurant2-Restaurant590
tRp107
S"rubin's red hots"
p108
sg2
(Vhttp://www.okkam.org/oaie/restaurant2-Restaurant591
tRp109
S"ruby's (la)"
p110
sg2
(Vhttp://www.okkam.org/oaie/restaurant2-Restaurant592
tRp111
S"russell's burgers"
p112
sg2
(Vhttp://www.okkam.org/oaie/restaurant2-Restaurant593
tRp113
S"ruth's chris steak house (los angeles)"
p114
sg2
(Vhttp://www.okkam.org/oaie/restaurant2-Restaurant594
tRp115
S'shiro'
p116
sg2
(Vhttp://www.okkam.org/oaie/restaurant2-Restaurant595
tRp117
S'sushi nozawa'
p118
sg2
(Vhttp://www.okkam.org/oaie/restaurant2-Restaurant596
tRp119
S'sweet lady jane'
p120
sg2
(Vhttp://www.okkam.org/oaie/restaurant2-Restaurant597
tRp121
S'taiko'
p122
sg2
(Vhttp://www.okkam.org/oaie/restaurant2-Restaurant231
tRp123
S"el teddy's"
p124
sg2
(Vhttp://www.okkam.org/oaie/restaurant2-Restaurant230
tRp125
S'duane park cafe'
p126
sg2
(Vhttp://www.okkam.org/oaie/restaurant2-Category35
tRp127
S'american (new)'
p128
sg2
(Vhttp://www.okkam.org/oaie/restaurant2-Restaurant232
tRp129
S"emily's"
p130
sg2
(Vhttp://www.okkam.org/oaie/restaurant2-Category33
tRp131
S'italian'
p132
sg2
(Vhttp://www.okkam.org/oaie/restaurant2-Category32
tRp133
S'indian'
p134
sg2
(Vhttp://www.okkam.org/oaie/restaurant2-Category31
tRp135
S'french (new)'
p136
sg2
(Vhttp://www.okkam.org/oaie/restaurant2-Restaurant236
tRp137
S'f. ille ponte ristorante'
p138
sg2
(Vhttp://www.okkam.org/oaie/restaurant1-Restaurant79
tRp139
S'ciboulette'
p140
sg2
(Vhttp://www.okkam.org/oaie/restaurant1-Restaurant78
tRp141
S'buckhead diner'
p142
sg2
(Vhttp://www.okkam.org/oaie/restaurant1-Restaurant71
tRp143
S'second street grille'
p144
sg2
(Vhttp://www.okkam.org/oaie/restaurant1-Restaurant70
tRp145
S'palace court'
p146
sg2
(Vhttp://www.okkam.org/oaie/restaurant1-Restaurant73
tRp147
S'tillerman'
p148
sg2
(Vhttp://www.okkam.org/oaie/restaurant1-Restaurant72
tRp149
S'steak house'
p150
sg2
(Vhttp://www.okkam.org/oaie/restaurant1-Restaurant75
tRp151
S'bacchanalia'
p152
sg2
(Vhttp://www.okkam.org/oaie/restaurant1-Restaurant74
tRp153
S'abruzzi'
p154
sg2
(Vhttp://www.okkam.org/oaie/restaurant1-Restaurant77
tRp155
S'brasserie le coze'
p156
sg2
(Vhttp://www.okkam.org/oaie/restaurant1-Restaurant76
tRp157
S"bone's"
p158
sg2
(Vhttp://www.okkam.org/oaie/restaurant2-Category188
tRp159
S'coffee bar'
p160
sg2
(Vhttp://www.okkam.org/oaie/restaurant2-Category189
tRp161
S'american'
p162
sg2
(Vhttp://www.okkam.org/oaie/restaurant2-Category186
tRp163
S'italian'
p164
sg2
(Vhttp://www.okkam.org/oaie/restaurant2-Category187
tRp165
S'american'
p166
sg2
(Vhttp://www.okkam.org/oaie/restaurant2-Category184
tRp167
S'asian'
p168
sg2
(Vhttp://www.okkam.org/oaie/restaurant2-Category185
tRp169
S'mediterranean'
p170
sg2
(Vhttp://www.okkam.org/oaie/restaurant2-Category182
tRp171
S'american'
p172
sg2
(Vhttp://www.okkam.org/oaie/restaurant2-Category183
tRp173
S'italian'
p174
sg2
(Vhttp://www.okkam.org/oaie/restaurant2-Category180
tRp175
S'american'
p176
sg2
(Vhttp://www.okkam.org/oaie/restaurant2-Category181
tRp177
S'italian'
p178
sg2
(Vhttp://www.okkam.org/oaie/restaurant2-Category450
tRp179
S'italian'
p180
sg2
(Vhttp://www.okkam.org/oaie/restaurant2-Category451
tRp181
S'mexican'
p182
sg2
(Vhttp://www.okkam.org/oaie/restaurant2-Category452
tRp183
S'steak houses'
p184
sg2
(Vhttp://www.okkam.org/oaie/restaurant2-Category453
tRp185
S'american'
p186
sg2
(Vhttp://www.okkam.org/oaie/restaurant2-Category454
tRp187
S'italian'
p188
sg2
(Vhttp://www.okkam.org/oaie/restaurant2-Category455
tRp189
S'old san francisco'
p190
sg2
(Vhttp://www.okkam.org/oaie/restaurant2-Category456
tRp191
S'asian'
p192
sg2
(Vhttp://www.okkam.org/oaie/restaurant2-Category457
tRp193
S'french'
p194
sg2
(Vhttp://www.okkam.org/oaie/restaurant2-Category458
tRp195
S'american'
p196
sg2
(Vhttp://www.okkam.org/oaie/restaurant2-Category459
tRp197
S'french'
p198
sg2
(Vhttp://www.okkam.org/oaie/restaurant2-Category666
tRp199
S'chinese'
p200
sg2
(Vhttp://www.okkam.org/oaie/restaurant2-Category234
tRp201
S'american'
p202
sg2
(Vhttp://www.okkam.org/oaie/restaurant2-Category235
tRp203
S'asian'
p204
sg2
(Vhttp://www.okkam.org/oaie/restaurant2-Category236
tRp205
S'italian'
p206
sg2
(Vhttp://www.okkam.org/oaie/restaurant2-Category237
tRp207
S'french'
p208
sg2
(Vhttp://www.okkam.org/oaie/restaurant2-Category230
tRp209
S'american'
p210
sg2
(Vhttp://www.okkam.org/oaie/restaurant2-Category231
tRp211
S'mexican'
p212
sg2
(Vhttp://www.okkam.org/oaie/restaurant2-Category232
tRp213
S'american'
p214
sg2
(Vhttp://www.okkam.org/oaie/restaurant2-Category233
tRp215
S'asian'
p216
sg2
(Vhttp://www.okkam.org/oaie/restaurant2-Category238
tRp217
S'french'
p218
sg2
(Vhttp://www.okkam.org/oaie/restaurant2-Category239
tRp219
S'american'
p220
sg2
(Vhttp://www.okkam.org/oaie/restaurant2-Category528
tRp221
S'asian'
p222
sg2
(Vhttp://www.okkam.org/oaie/restaurant2-Category529
tRp223
S'greek and middle eastern'
p224
sg2
(Vhttp://www.okkam.org/oaie/restaurant2-Category520
tRp225
S'french'
p226
sg2
(Vhttp://www.okkam.org/oaie/restaurant2-Category521
tRp227
S'asian'
p228
sg2
(Vhttp://www.okkam.org/oaie/restaurant2-Category522
tRp229
S'asian'
p230
sg2
(Vhttp://www.okkam.org/oaie/restaurant2-Category523
tRp231
S'mediterranean'
p232
sg2
(Vhttp://www.okkam.org/oaie/restaurant2-Category524
tRp233
S'italian'
p234
sg2
(Vhttp://www.okkam.org/oaie/restaurant2-Category525
tRp235
S'italian'
p236
sg2
(Vhttp://www.okkam.org/oaie/restaurant2-Category526
tRp237
S'american'
p238
sg2
(Vhttp://www.okkam.org/oaie/restaurant2-Category527
tRp239
S'asian'
p240
sg2
(Vhttp://www.okkam.org/oaie/restaurant2-Restaurant367
tRp241
S'turkish kitchen'
p242
sg2
(Vhttp://www.okkam.org/oaie/restaurant2-Restaurant85
tRp243
S'la grotta'
p244
sg2
(Vhttp://www.okkam.org/oaie/restaurant2-Category83
tRp245
S'indian'
p246
sg2
(Vhttp://www.okkam.org/oaie/restaurant2-Restaurant87
tRp247
S"nikolai's roof"
p248
sg2
(Vhttp://www.okkam.org/oaie/restaurant2-Restaurant86
tRp249
S"mary mac's tea room"
p250
sg2
(Vhttp://www.okkam.org/oaie/restaurant2-Category86
tRp251
S'southern/soul'
p252
sg2
(Vhttp://www.okkam.org/oaie/restaurant1-City90
tRp253
S'atlanta'
p254
sg2
(Vhttp://www.okkam.org/oaie/restaurant2-Category84
tRp255
S'eclectic'
p256
sg2
(Vhttp://www.okkam.org/oaie/restaurant2-Category85
tRp257
S'italian'
p258
sg2
(Vhttp://www.okkam.org/oaie/restaurant1-City99
tRp259
S'san francisco'
p260
sg2
(Vhttp://www.okkam.org/oaie/restaurant2-Restaurant88
tRp261
S"pano's & paul's"
p262
sg2
(Vhttp://www.okkam.org/oaie/restaurant2-restaurant275
tRp263
S'agrotikon'
p264
sg2
(Vhttp://www.okkam.org/oaie/restaurant2-restaurant274
tRp265
S'adrienne'
p266
sg2
(Vhttp://www.okkam.org/oaie/restaurant2-restaurant277
tRp267
S'alamo'
p268
sg2
(Vhttp://www.okkam.org/oaie/restaurant2-restaurant276
tRp269
S'aja'
p270
sg2
(Vhttp://www.okkam.org/oaie/restaurant2-restaurant271
tRp271
S'west beach cafe'
p272
sg2
(Vhttp://www.okkam.org/oaie/restaurant2-restaurant270
tRp273
S'vida'
p274
sg2
(Vhttp://www.okkam.org/oaie/restaurant2-restaurant273
tRp275
S'9 jones street'
p276
sg2
(Vhttp://www.okkam.org/oaie/restaurant2-restaurant272
tRp277
S'20 mott'
p278
sg2
(Vhttp://www.okkam.org/oaie/restaurant2-restaurant279
tRp279
S'ambassador grill'
p280
sg2
(Vhttp://www.okkam.org/oaie/restaurant2-restaurant278
tRp281
S"alley's end"
p282
sg2
(Vhttp://www.okkam.org/oaie/restaurant2-Restaurant297
tRp283
S'mad fish'
p284
sg2
(Vhttp://www.okkam.org/oaie/restaurant2-Restaurant296
tRp285
S'lucky strike'
p286
sg2
(Vhttp://www.okkam.org/oaie/restaurant2-Restaurant295
tRp287
S'lola'
p288
sg2
(Vhttp://www.okkam.org/oaie/restaurant2-Restaurant294
tRp289
S'lincoln tavern'
p290
sg2
(Vhttp://www.okkam.org/oaie/restaurant2-Restaurant293
tRp291
S'les halles'
p292
sg2
(Vhttp://www.okkam.org/oaie/restaurant2-Restaurant292
tRp293
S'le select'
p294
sg2
(Vhttp://www.okkam.org/oaie/restaurant2-Restaurant291
tRp295
S'le perigord'
p296
sg2
(Vhttp://www.okkam.org/oaie/restaurant2-Restaurant290
tRp297
S'le marais'
p298
sg2
(Vhttp://www.okkam.org/oaie/restaurant2-Restaurant299
tRp299
S'mangia e bevi'
p300
sg2
(Vhttp://www.okkam.org/oaie/restaurant2-Restaurant298
tRp301
S'main street'
p302
sg2
(Vhttp://www.okkam.org/oaie/restaurant2-Restaurant619
tRp303
S'kelley & ping'
p304
sg2
(Vhttp://www.okkam.org/oaie/restaurant2-Restaurant618
tRp305
S"john's pizzeria"
p306
sg2
(Vhttp://www.okkam.org/oaie/restaurant2-Restaurant613
tRp307
S'good enough to eat'
p308
sg2
(Vhttp://www.okkam.org/oaie/restaurant2-Restaurant612
tRp309
S'elias corner'
p310
sg2
(Vhttp://www.okkam.org/oaie/restaurant2-Restaurant611
tRp311
S'edison cafe'
p312
sg2
(Vhttp://www.okkam.org/oaie/restaurant2-Restaurant610
tRp313
S"ej's luncheonette"
p314
sg2
(Vhttp://www.okkam.org/oaie/restaurant2-Restaurant617
tRp315
S"joe's shanghai"
p316
sg2
(Vhttp://www.okkam.org/oaie/restaurant2-Restaurant616
tRp317
S'jackson diner'
p318
sg2
(Vhttp://www.okkam.org/oaie/restaurant2-Restaurant615
tRp319
S'il mulino'
p320
sg2
(Vhttp://www.okkam.org/oaie/restaurant2-Restaurant614
tRp321
S"gray's papaya"
p322
sg2
(Vhttp://www.okkam.org/oaie/restaurant2-Restaurant729
tRp323
S'ebisu'
p324
sg2
(Vhttp://www.okkam.org/oaie/restaurant2-Restaurant728
tRp325
S'dusit thai'
p326
sg2
(Vhttp://www.okkam.org/oaie/restaurant2-Restaurant727
tRp327
S"dottie's true blue cafe"
p328
sg2
(Vhttp://www.okkam.org/oaie/restaurant2-Restaurant726
tRp329
S"doidge's"
p330
sg2
(Vhttp://www.okkam.org/oaie/restaurant2-Restaurant725
tRp331
S"cha cha cha's"
p332
sg2
(Vhttp://www.okkam.org/oaie/restaurant2-Restaurant724
tRp333
S'campo santo'
p334
sg2
(Vhttp://www.okkam.org/oaie/restaurant2-Restaurant723
tRp335
S'caffe greco'
p336
sg2
(Vhttp://www.okkam.org/oaie/restaurant2-Restaurant722
tRp337
S'cafe flore'
p338
sg2
(Vhttp://www.okkam.org/oaie/restaurant2-Restaurant721
tRp339
S"bill's place"
p340
sg2
(Vhttp://www.okkam.org/oaie/restaurant2-Restaurant720
tRp341
S'zab-e-lee'
p342
sg2
(Vhttp://www.okkam.org/oaie/restaurant2-Restaurant96
tRp343
S'boulevard'
p344
sg2
(Vhttp://www.okkam.org/oaie/restaurant2-Restaurant97
tRp345
S'cafe claude'
p346
sg2
(Vhttp://www.okkam.org/oaie/restaurant2-Restaurant94
tRp347
S'alain rondelli'
p348
sg2
(Vhttp://www.okkam.org/oaie/restaurant1-City89
tRp349
S'atlanta'
p350
sg2
(Vhttp://www.okkam.org/oaie/restaurant2-Restaurant92
tRp351
S'toulouse'
p352
sg2
(Vhttp://www.okkam.org/oaie/restaurant2-Restaurant93
tRp353
S'veni vidi vici'
p354
sg2
(Vhttp://www.okkam.org/oaie/restaurant2-Restaurant90
tRp355
S'ritz-carlton dining room (buckhead)'
p356
sg2
(Vhttp://www.okkam.org/oaie/restaurant2-Restaurant91
tRp357
S'ritz-carlton restaurant'
p358
sg2
(Vhttp://www.okkam.org/oaie/restaurant1-City82
tRp359
S'atlanta'
p360
sg2
(Vhttp://www.okkam.org/oaie/restaurant1-City83
tRp361
S'atlanta'
p362
sg2
(Vhttp://www.okkam.org/oaie/restaurant1-City80
tRp363
S'atlanta'
p364
sg2
(Vhttp://www.okkam.org/oaie/restaurant1-City81
tRp365
S'atlanta'
p366
sg2
(Vhttp://www.okkam.org/oaie/restaurant1-City86
tRp367
S'atlanta'
p368
sg2
(Vhttp://www.okkam.org/oaie/restaurant1-City87
tRp369
S'atlanta'
p370
sg2
(Vhttp://www.okkam.org/oaie/restaurant1-City84
tRp371
S'atlanta'
p372
sg2
(Vhttp://www.okkam.org/oaie/restaurant1-City85
tRp373
S'atlanta'
p374
sg2
(Vhttp://www.okkam.org/oaie/restaurant2-Restaurant433
tRp375
S'cafe roma'
p376
sg2
(Vhttp://www.okkam.org/oaie/restaurant2-Restaurant432
tRp377
S'cafe michelle'
p378
sg2
(Vhttp://www.okkam.org/oaie/restaurant2-Restaurant431
tRp379
S"bugsy's diner"
p380
sg2
(Vhttp://www.okkam.org/oaie/restaurant2-Restaurant430
tRp381
S'broiler'
p382
sg2
(Vhttp://www.okkam.org/oaie/restaurant2-Restaurant437
tRp383
S'circus circus'
p384
sg2
(Vhttp://www.okkam.org/oaie/restaurant2-Restaurant436
tRp385
S'center stage plaza hotel'
p386
sg2
(Vhttp://www.okkam.org/oaie/restaurant2-Restaurant435
tRp387
S'carnival world'
p388
sg2
(Vhttp://www.okkam.org/oaie/restaurant2-Restaurant434
tRp389
S"capozzoli's"
p390
sg2
(Vhttp://www.okkam.org/oaie/restaurant2-Restaurant509
tRp391
S'rumpus'
p392
sg2
(Vhttp://www.okkam.org/oaie/restaurant2-Restaurant439
tRp393
S'feast'
p394
sg2
(Vhttp://www.okkam.org/oaie/restaurant2-Restaurant438
tRp395
S'empress court'
p396
sg2
(Vhttp://www.okkam.org/oaie/restaurant2-Restaurant549
tRp397
S'diaghilev'
p398
sg2
(Vhttp://www.okkam.org/oaie/restaurant2-Restaurant37
tRp399
S'island spice'
p400
sg2
(Vhttp://www.okkam.org/oaie/restaurant2-Restaurant38
tRp401
S'jo jo'
p402
sg2
(Vhttp://www.okkam.org/oaie/restaurant1-Restaurant48
tRp403
S'mi cocina'
p404
sg2
(Vhttp://www.okkam.org/oaie/restaurant1-Restaurant49
tRp405
S'montrachet'
p406
sg2
(Vhttp://www.okkam.org/oaie/restaurant2-Restaurant546
tRp407
S'cafe blanc'
p408
sg2
(Vhttp://www.okkam.org/oaie/restaurant1-Restaurant44
tRp409
S'lutece'
p410
sg2
(Vhttp://www.okkam.org/oaie/restaurant1-Restaurant45
tRp411
S'manhattan ocean club'
p412
sg2
(Vhttp://www.okkam.org/oaie/restaurant1-Restaurant46
tRp413
S'march'
p414
sg2
(Vhttp://www.okkam.org/oaie/restaurant1-Restaurant47
tRp415
S'mesa grill'
p416
sg2
(Vhttp://www.okkam.org/oaie/restaurant1-Restaurant40
tRp417
S'la cote basque'
p418
sg2
(Vhttp://www.okkam.org/oaie/restaurant1-Restaurant41
tRp419
S'le bernardin'
p420
sg2
(Vhttp://www.okkam.org/oaie/restaurant1-Restaurant42
tRp421
S'les celebrites'
p422
sg2
(Vhttp://www.okkam.org/oaie/restaurant1-Restaurant43
tRp423
S'lespinasse'
p424
sg2
(Vhttp://www.okkam.org/oaie/restaurant2-Category425
tRp425
S'asian'
p426
sg2
(Vhttp://www.okkam.org/oaie/restaurant2-Category424
tRp427
S'buffets'
p428
sg2
(Vhttp://www.okkam.org/oaie/restaurant2-Category427
tRp429
S'italian'
p430
sg2
(Vhttp://www.okkam.org/oaie/restaurant2-Category426
tRp431
S'italian'
p432
sg2
(Vhttp://www.okkam.org/oaie/restaurant2-Category421
tRp433
S'southern'
p434
sg2
(Vhttp://www.okkam.org/oaie/restaurant2-Category420
tRp435
S'american'
p436
sg2
(Vhttp://www.okkam.org/oaie/restaurant2-Category423
tRp437
S'italian'
p438
sg2
(Vhttp://www.okkam.org/oaie/restaurant2-Category422
tRp439
S'continental'
p440
sg2
(Vhttp://www.okkam.org/oaie/restaurant2-Category429
tRp441
S'continental'
p442
sg2
(Vhttp://www.okkam.org/oaie/restaurant2-Category428
tRp443
S'coffee shops/diners'
p444
sg2
(Vhttp://www.okkam.org/oaie/restaurant2-Category739
tRp445
S'hamburgers'
p446
sg2
(Vhttp://www.okkam.org/oaie/restaurant2-Category738
tRp447
S'thai'
p448
sg2
(Vhttp://www.okkam.org/oaie/restaurant2-Category731
tRp449
S'chinese'
p450
sg2
(Vhttp://www.okkam.org/oaie/restaurant2-Category730
tRp451
S'vietnamese'
p452
sg2
(Vhttp://www.okkam.org/oaie/restaurant2-Category733
tRp453
S'californian'
p454
sg2
(Vhttp://www.okkam.org/oaie/restaurant2-Category732
tRp455
S'hamburgers'
p456
sg2
(Vhttp://www.okkam.org/oaie/restaurant2-Category735
tRp457
S'mediterranean'
p458
sg2
(Vhttp://www.okkam.org/oaie/restaurant2-Category734
tRp459
S'mexican'
p460
sg2
(Vhttp://www.okkam.org/oaie/restaurant2-Category737
tRp461
S'italian'
p462
sg2
(Vhttp://www.okkam.org/oaie/restaurant2-Category736
tRp463
S'mexican'
p464
sg2
(Vhttp://www.okkam.org/oaie/restaurant2-Category559
tRp465
S'hot dogs'
p466
sg2
(Vhttp://www.okkam.org/oaie/restaurant2-Category558
tRp467
S'californian'
p468
sg2
(Vhttp://www.okkam.org/oaie/restaurant2-Category555
tRp469
S'coffee shops'
p470
sg2
(Vhttp://www.okkam.org/oaie/restaurant2-Category554
tRp471
S'cajun/creole'
p472
sg2
(Vhttp://www.okkam.org/oaie/restaurant2-Category557
tRp473
S'coffee shops'
p474
sg2
(Vhttp://www.okkam.org/oaie/restaurant2-Category556
tRp475
S'indonesian'
p476
sg2
(Vhttp://www.okkam.org/oaie/restaurant2-Category551
tRp477
S'coffee shops'
p478
sg2
(Vhttp://www.okkam.org/oaie/restaurant2-Category550
tRp479
S'italian'
p480
sg2
(Vhttp://www.okkam.org/oaie/restaurant2-Category553
tRp481
S'chinese'
p482
sg2
(Vhttp://www.okkam.org/oaie/restaurant2-Category552
tRp483
S'middle eastern'
p484
sg2
(Vhttp://www.okkam.org/oaie/restaurant2-restaurant268
tRp485
S'tra di noi'
p486
sg2
(Vhttp://www.okkam.org/oaie/restaurant2-restaurant269
tRp487
S"trader vic's"
p488
sg2
(Vhttp://www.okkam.org/oaie/restaurant2-restaurant262
tRp489
S'schatzi on main'
p490
sg2
(Vhttp://www.okkam.org/oaie/restaurant2-restaurant263
tRp491
S'sofi'
p492
sg2
(Vhttp://www.okkam.org/oaie/restaurant2-restaurant260
tRp493
S'restaurant horikawa'
p494
sg2
(Vhttp://www.okkam.org/oaie/restaurant2-restaurant261
tRp495
S"roscoe's house of chicken 'n' waffles"
p496
sg2
(Vhttp://www.okkam.org/oaie/restaurant2-restaurant266
tRp497
S'the mandarin'
p498
sg2
(Vhttp://www.okkam.org/oaie/restaurant2-restaurant267
tRp499
S"tommy tang's"
p500
sg2
(Vhttp://www.okkam.org/oaie/restaurant2-restaurant264
tRp501
S'swingers'
p502
sg2
(Vhttp://www.okkam.org/oaie/restaurant2-restaurant265
tRp503
S'tavola calda'
p504
sg2
(Vhttp://www.okkam.org/oaie/restaurant2-Restaurant284
tRp505
S'layla'
p506
sg2
(Vhttp://www.okkam.org/oaie/restaurant2-Restaurant285
tRp507
S'le chantilly'
p508
sg2
(Vhttp://www.okkam.org/oaie/restaurant2-Restaurant286
tRp509
S'le colonial'
p510
sg2
(Vhttp://www.okkam.org/oaie/restaurant2-Restaurant287
tRp511
S'le gamin'
p512
sg2
(Vhttp://www.okkam.org/oaie/restaurant2-Restaurant280
tRp513
S"l'udo"
p514
sg2
(Vhttp://www.okkam.org/oaie/restaurant2-Restaurant281
tRp515
S'la reserve'
p516
sg2
(Vhttp://www.okkam.org/oaie/restaurant2-Restaurant282
tRp517
S'lanza restaurant'
p518
sg2
(Vhttp://www.okkam.org/oaie/restaurant2-Restaurant283
tRp519
S'lattanzi ristorante'
p520
sg2
(Vhttp://www.okkam.org/oaie/restaurant2-Restaurant288
tRp521
S'le jardin'
p522
sg2
(Vhttp://www.okkam.org/oaie/restaurant2-Restaurant289
tRp523
S'le madri'
p524
sg2
(Vhttp://www.okkam.org/oaie/restaurant2-Restaurant608
tRp525
S'cucina di pesce'
p526
sg2
(Vhttp://www.okkam.org/oaie/restaurant2-Restaurant609
tRp527
S'darbar'
p528
sg2
(Vhttp://www.okkam.org/oaie/restaurant2-Restaurant600
tRp529
S'water grill'
p530
sg2
(Vhttp://www.okkam.org/oaie/restaurant2-Restaurant601
tRp531
S'zankou chicken'
p532
sg2
(Vhttp://www.okkam.org/oaie/restaurant2-Restaurant602
tRp533
S'afghan kebab house'
p534
sg2
(Vhttp://www.okkam.org/oaie/restaurant2-Restaurant603
tRp535
S'arcadia'
p536
sg2
(Vhttp://www.okkam.org/oaie/restaurant2-Restaurant604
tRp537
S"benny's burritos"
p538
sg2
(Vhttp://www.okkam.org/oaie/restaurant2-Restaurant605
tRp539
S'cafe con leche'
p540
sg2
(Vhttp://www.okkam.org/oaie/restaurant2-Restaurant606
tRp541
S'corner bistro'
p542
sg2
(Vhttp://www.okkam.org/oaie/restaurant2-Restaurant607
tRp543
S'cucina della fontana'
p544
sg2
(Vhttp://www.okkam.org/oaie/restaurant2-Restaurant738
tRp545
S'marnee thai'
p546
sg2
(Vhttp://www.okkam.org/oaie/restaurant2-Restaurant739
tRp547
S"mel's drive-in"
p548
sg2
(Vhttp://www.okkam.org/oaie/restaurant2-Restaurant734
tRp549
S'la cumbre'
p550
sg2
(Vhttp://www.okkam.org/oaie/restaurant2-Restaurant735
tRp551
S'la mediterranee'
p552
sg2
(Vhttp://www.okkam.org/oaie/restaurant2-Restaurant736
tRp553
S'la taqueria'
p554
sg2
(Vhttp://www.okkam.org/oaie/restaurant2-Restaurant737
tRp555
S"mario's bohemian cigar store cafe"
p556
sg2
(Vhttp://www.okkam.org/oaie/restaurant2-Restaurant730
tRp557
S'emerald garden restaurant'
p558
sg2
(Vhttp://www.okkam.org/oaie/restaurant2-Restaurant731
tRp559
S"eric's chinese restaurant"
p560
sg2
(Vhttp://www.okkam.org/oaie/restaurant2-Restaurant732
tRp561
S"hamburger mary's"
p562
sg2
(Vhttp://www.okkam.org/oaie/restaurant2-Restaurant733
tRp563
S"kelly's on trinity"
p564
sg2
(Vhttp://www.okkam.org/oaie/restaurant1-City95
tRp565
S'san francisco'
p566
sg2
(Vhttp://www.okkam.org/oaie/restaurant2-Restaurant84
tRp567
S'indigo coastal grill'
p568
sg2
(Vhttp://www.okkam.org/oaie/restaurant1-City97
tRp569
S'san francisco'
p570
sg2
(Vhttp://www.okkam.org/oaie/restaurant1-City96
tRp571
S'san francisco'
p572
sg2
(Vhttp://www.okkam.org/oaie/restaurant2-Restaurant81
tRp573
S'georgia grille'
p574
sg2
(Vhttp://www.okkam.org/oaie/restaurant2-Restaurant80
tRp575
S'delectables'
p576
sg2
(Vhttp://www.okkam.org/oaie/restaurant2-Restaurant83
tRp577
S'heera of india'
p578
sg2
(Vhttp://www.okkam.org/oaie/restaurant2-Restaurant82
tRp579
S'hedgerose heights inn  the'
p580
sg2
(Vhttp://www.okkam.org/oaie/restaurant2-Category88
tRp581
S'american (new)'
p582
sg2
(Vhttp://www.okkam.org/oaie/restaurant2-Category89
tRp583
S'american (new)'
p584
sg2
(Vhttp://www.okkam.org/oaie/restaurant2-Restaurant89
tRp585
S'ritz-carlton cafe (buckhead)'
p586
sg2
(Vhttp://www.okkam.org/oaie/restaurant1-City98
tRp587
S'san francisco'
p588
sg2
(Vhttp://www.okkam.org/oaie/restaurant2-Restaurant420
tRp589
S'sundown cafe'
p590
sg2
(Vhttp://www.okkam.org/oaie/restaurant2-Restaurant421
tRp591
S'taste of new orleans'
p592
sg2
(Vhttp://www.okkam.org/oaie/restaurant2-Restaurant422
tRp593
S'tomtom'
p594
sg2
(Vhttp://www.okkam.org/oaie/restaurant2-Restaurant423
tRp595
S"antonio's"
p596
sg2
(Vhttp://www.okkam.org/oaie/restaurant2-Restaurant424
tRp597
S"bally's big kitchen"
p598
sg2
(Vhttp://www.okkam.org/oaie/restaurant2-Restaurant425
tRp599
S'bamboo garden'
p600
sg2
(Vhttp://www.okkam.org/oaie/restaurant2-Restaurant426
tRp601
S"battista's hole in the wall"
p602
sg2
(Vhttp://www.okkam.org/oaie/restaurant2-Restaurant427
tRp603
S"bertolini's"
p604
sg2
(Vhttp://www.okkam.org/oaie/restaurant2-Restaurant428
tRp605
S"binion's coffee shop"
p606
sg2
(Vhttp://www.okkam.org/oaie/restaurant2-Restaurant429
tRp607
S'bistro'
p608
sg2
(Vhttp://www.okkam.org/oaie/restaurant1-Restaurant53
tRp609
S'picholine'
p610
sg2
(Vhttp://www.okkam.org/oaie/restaurant1-Restaurant52
tRp611
S'petrossian'
p612
sg2
(Vhttp://www.okkam.org/oaie/restaurant1-Restaurant51
tRp613
S'park avenue cafe'
p614
sg2
(Vhttp://www.okkam.org/oaie/restaurant1-Restaurant50
tRp615
S'oceana'
p616
sg2
(Vhttp://www.okkam.org/oaie/restaurant1-Restaurant57
tRp617
S'san domenico'
p618
sg2
(Vhttp://www.okkam.org/oaie/restaurant1-Restaurant56
tRp619
S'river cafe'
p620
sg2
(Vhttp://www.okkam.org/oaie/restaurant1-Restaurant55
tRp621
S'rainbow room'
p622
sg2
(Vhttp://www.okkam.org/oaie/restaurant1-Restaurant54
tRp623
S'pisces'
p624
sg2
(Vhttp://www.okkam.org/oaie/restaurant2-Restaurant260
tRp625
S'halcyon'
p626
sg2
(Vhttp://www.okkam.org/oaie/restaurant1-Restaurant59
tRp627
S'seryna'
p628
sg2
(Vhttp://www.okkam.org/oaie/restaurant1-Restaurant58
tRp629
S'second avenue deli'
p630
sg2
(Vhttp://www.okkam.org/oaie/restaurant2-Category436
tRp631
S'american'
p632
sg2
(Vhttp://www.okkam.org/oaie/restaurant2-Category437
tRp633
S'buffets'
p634
sg2
(Vhttp://www.okkam.org/oaie/restaurant2-Category434
tRp635
S'italian'
p636
sg2
(Vhttp://www.okkam.org/oaie/restaurant2-Category435
tRp637
S'buffets'
p638
sg2
(Vhttp://www.okkam.org/oaie/restaurant2-Category432
tRp639
S'american'
p640
sg2
(Vhttp://www.okkam.org/oaie/restaurant2-Category433
tRp641
S'coffee shops/diners'
p642
sg2
(Vhttp://www.okkam.org/oaie/restaurant2-Category430
tRp643
S'american'
p644
sg2
(Vhttp://www.okkam.org/oaie/restaurant2-Category431
tRp645
S'coffee shops/diners'
p646
sg2
(Vhttp://www.okkam.org/oaie/restaurant2-Category329
tRp647
S'latin american'
p648
sg2
(Vhttp://www.okkam.org/oaie/restaurant2-Category438
tRp649
S'asian'
p650
sg2
(Vhttp://www.okkam.org/oaie/restaurant2-Category439
tRp651
S'buffets'
p652
sg2
(Vhttp://www.okkam.org/oaie/restaurant2-Category728
tRp653
S'thai'
p654
sg2
(Vhttp://www.okkam.org/oaie/restaurant2-Category729
tRp655
S'japanese'
p656
sg2
(Vhttp://www.okkam.org/oaie/restaurant2-Category722
tRp657
S'californian'
p658
sg2
(Vhttp://www.okkam.org/oaie/restaurant2-Category723
tRp659
S'continental'
p660
sg2
(Vhttp://www.okkam.org/oaie/restaurant2-Category720
tRp661
S'thai'
p662
sg2
(Vhttp://www.okkam.org/oaie/restaurant2-Category721
tRp663
S'hamburgers'
p664
sg2
(Vhttp://www.okkam.org/oaie/restaurant2-Category726
tRp665
S'american'
p666
sg2
(Vhttp://www.okkam.org/oaie/restaurant2-Category727
tRp667
S'diners'
p668
sg2
(Vhttp://www.okkam.org/oaie/restaurant2-Category724
tRp669
S'mexican'
p670
sg2
(Vhttp://www.okkam.org/oaie/restaurant2-Category725
tRp671
S'caribbean'
p672
sg2
(Vhttp://www.okkam.org/oaie/restaurant2-Category54
tRp673
S'seafood'
p674
sg2
(Vhttp://www.okkam.org/oaie/restaurant2-Category645
tRp675
S'chinese'
p676
sg2
(Vhttp://www.okkam.org/oaie/restaurant2-Category548
tRp677
S'eclectic'
p678
sg2
(Vhttp://www.okkam.org/oaie/restaurant2-Category644
tRp679
S'southern/soul'
p680
sg2
(Vhttp://www.okkam.org/oaie/restaurant2-Category546
tRp681
S'pacific new wave'
p682
sg2
(Vhttp://www.okkam.org/oaie/restaurant2-Category547
tRp683
S'hamburgers'
p684
sg2
(Vhttp://www.okkam.org/oaie/restaurant2-Category544
tRp685
S'italian'
p686
sg2
(Vhttp://www.okkam.org/oaie/restaurant2-Category545
tRp687
S'american'
p688
sg2
(Vhttp://www.okkam.org/oaie/restaurant2-Category542
tRp689
S'coffee shops'
p690
sg2
(Vhttp://www.okkam.org/oaie/restaurant2-Category543
tRp691
S'californian'
p692
sg2
(Vhttp://www.okkam.org/oaie/restaurant2-Category540
tRp693
S'californian'
p694
sg2
(Vhttp://www.okkam.org/oaie/restaurant2-Category541
tRp695
S'delis'
p696
sg2
(Vhttp://www.okkam.org/oaie/restaurant2-Category646
tRp697
S'chinese'
p698
sg2
(Vhttp://www.okkam.org/oaie/restaurant2-Category317
tRp699
S'italian'
p700
sg2
(Vhttp://www.okkam.org/oaie/restaurant2-Category640
tRp701
S'american'
p702
sg2
(Vhttp://www.okkam.org/oaie/restaurant2-Category643
tRp703
S'japanese'
p704
sg2
(Vhttp://www.okkam.org/oaie/restaurant2-Category642
tRp705
S'bbq'
p706
sg2
(Vhttp://www.okkam.org/oaie/restaurant2-Restaurant693
tRp707
S"greenwood's"
p708
sg2
(Vhttp://www.okkam.org/oaie/restaurant2-Restaurant692
tRp709
S'frijoleros'
p710
sg2
(Vhttp://www.okkam.org/oaie/restaurant1-City26
tRp711
S'new york'
p712
sg2
(Vhttp://www.okkam.org/oaie/restaurant1-City27
tRp713
S'new york'
p714
sg2
(Vhttp://www.okkam.org/oaie/restaurant1-City20
tRp715
S'los angeles'
p716
sg2
(Vhttp://www.okkam.org/oaie/restaurant1-City21
tRp717
S'santa monica'
p718
sg2
(Vhttp://www.okkam.org/oaie/restaurant2-Restaurant695
tRp719
S'havana sandwich shop'
p720
sg2
(Vhttp://www.okkam.org/oaie/restaurant2-Restaurant694
tRp721
S"harold's barbecue"
p722
sg2
(Vhttp://www.okkam.org/oaie/restaurant2-restaurant219
tRp723
S"ca'del sol"
p724
sg2
(Vhttp://www.okkam.org/oaie/restaurant2-restaurant218
tRp725
S"ca'brea"
p726
sg2
(Vhttp://www.okkam.org/oaie/restaurant2-restaurant217
tRp727
S'broadway deli'
p728
sg2
(Vhttp://www.okkam.org/oaie/restaurant2-restaurant216
tRp729
S'border grill'
p730
sg2
(Vhttp://www.okkam.org/oaie/restaurant2-restaurant215
tRp731
S'bistro garden'
p732
sg2
(Vhttp://www.okkam.org/oaie/restaurant2-restaurant214
tRp733
S'beaurivage'
p734
sg2
(Vhttp://www.okkam.org/oaie/restaurant2-restaurant213
tRp735
S'barney greengrass'
p736
sg2
(Vhttp://www.okkam.org/oaie/restaurant2-restaurant212
tRp737
S"adriano's ristorante"
p738
sg2
(Vhttp://www.okkam.org/oaie/restaurant2-restaurant211
tRp739
S'rose pistola'
p740
sg2
(Vhttp://www.okkam.org/oaie/restaurant2-restaurant210
tRp741
S'ritz-carlton dining room (san francisco)'
p742
sg2
(Vhttp://www.okkam.org/oaie/restaurant2-Restaurant451
tRp743
S"viva mercado's"
p744
sg2
(Vhttp://www.okkam.org/oaie/restaurant2-Restaurant450
tRp745
S'venetian'
p746
sg2
(Vhttp://www.okkam.org/oaie/restaurant2-Restaurant321
tRp747
S'pamir'
p748
sg2
(Vhttp://www.okkam.org/oaie/restaurant2-Restaurant320
tRp749
S'palio'
p750
sg2
(Vhttp://www.okkam.org/oaie/restaurant2-Restaurant327
tRp751
S'persepolis'
p752
sg2
(Vhttp://www.okkam.org/oaie/restaurant2-Restaurant454
tRp753
S'acquarello'
p754
sg2
(Vhttp://www.okkam.org/oaie/restaurant2-Restaurant457
tRp755
S'bistro roti'
p756
sg2
(Vhttp://www.okkam.org/oaie/restaurant2-Restaurant456
tRp757
S'betelnut'
p758
sg2
(Vhttp://www.okkam.org/oaie/restaurant2-Restaurant639
tRp759
S"sam's noodle shop"
p760
sg2
(Vhttp://www.okkam.org/oaie/restaurant2-Restaurant638
tRp761
S'rose of india'
p762
sg2
(Vhttp://www.okkam.org/oaie/restaurant2-Restaurant635
tRp763
S'palm too'
p764
sg2
(Vhttp://www.okkam.org/oaie/restaurant2-Restaurant634
tRp765
S'palm'
p766
sg2
(Vhttp://www.okkam.org/oaie/restaurant2-Restaurant637
tRp767
S'peter luger steak house'
p768
sg2
(Vhttp://www.okkam.org/oaie/restaurant2-Restaurant636
tRp769
S"patsy's pizza"
p770
sg2
(Vhttp://www.okkam.org/oaie/restaurant2-Restaurant631
tRp771
S'nobu'
p772
sg2
(Vhttp://www.okkam.org/oaie/restaurant2-Restaurant630
tRp773
S'moustache'
p774
sg2
(Vhttp://www.okkam.org/oaie/restaurant2-Restaurant633
tRp775
S'oyster bar'
p776
sg2
(Vhttp://www.okkam.org/oaie/restaurant2-Restaurant632
tRp777
S'one if by land  tibs'
p778
sg2
(Vhttp://www.okkam.org/oaie/restaurant2-Restaurant389
tRp779
S'cassis'
p780
sg2
(Vhttp://www.okkam.org/oaie/restaurant2-Restaurant388
tRp781
S"camille's"
p782
sg2
(Vhttp://www.okkam.org/oaie/restaurant2-Restaurant385
tRp783
S"bertolini's"
p784
sg2
(Vhttp://www.okkam.org/oaie/restaurant2-Restaurant384
tRp785
S"beesley's of buckhead"
p786
sg2
(Vhttp://www.okkam.org/oaie/restaurant2-Restaurant387
tRp787
S'cafe renaissance'
p788
sg2
(Vhttp://www.okkam.org/oaie/restaurant2-Restaurant386
tRp789
S'bistango'
p790
sg2
(Vhttp://www.okkam.org/oaie/restaurant2-Restaurant381
tRp791
S"annie's thai castle"
p792
sg2
(Vhttp://www.okkam.org/oaie/restaurant2-Restaurant380
tRp793
S"aleck's barbecue heaven"
p794
sg2
(Vhttp://www.okkam.org/oaie/restaurant2-Restaurant383
tRp795
S'atlanta fish market'
p796
sg2
(Vhttp://www.okkam.org/oaie/restaurant2-Restaurant382
tRp797
S'anthonys'
p798
sg2
(Vhttp://www.okkam.org/oaie/restaurant2-Restaurant717
tRp799
S"van gogh's restaurant & bar"
p800
sg2
(Vhttp://www.okkam.org/oaie/restaurant2-Category549
tRp801
S'russian'
p802
sg2
(Vhttp://www.okkam.org/oaie/restaurant2-Restaurant253
tRp803
S"gabriela's"
p804
sg2
(Vhttp://www.okkam.org/oaie/restaurant2-Category94
tRp805
S'french (new)'
p806
sg2
(Vhttp://www.okkam.org/oaie/restaurant2-Category97
tRp807
S'french bistro'
p808
sg2
(Vhttp://www.okkam.org/oaie/restaurant2-Category96
tRp809
S'american (new)'
p810
sg2
(Vhttp://www.okkam.org/oaie/restaurant2-Restaurant705
tRp811
S'my thai'
p812
sg2
(Vhttp://www.okkam.org/oaie/restaurant2-Category90
tRp813
S'american (new)'
p814
sg2
(Vhttp://www.okkam.org/oaie/restaurant2-Category93
tRp815
S'italian'
p816
sg2
(Vhttp://www.okkam.org/oaie/restaurant2-Category92
tRp817
S'french (new)'
p818
sg2
(Vhttp://www.okkam.org/oaie/restaurant2-Restaurant709
tRp819
S'palm  the (atlanta)'
p820
sg2
(Vhttp://www.okkam.org/oaie/restaurant2-Restaurant708
tRp821
S'original pancake house (at)'
p822
sg2
(Vhttp://www.okkam.org/oaie/restaurant2-Restaurant259
tRp823
S'grand ticino'
p824
sg2
(Vhttp://www.okkam.org/oaie/restaurant2-Restaurant258
tRp825
S'golden unicorn'
p826
sg2
(Vhttp://www.okkam.org/oaie/restaurant2-Category99
tRp827
S'californian'
p828
sg2
(Vhttp://www.okkam.org/oaie/restaurant2-Category98
tRp829
S'american (new)'
p830
sg2
(Vhttp://www.okkam.org/oaie/restaurant2-Category691
tRp831
S'eclectic'
p832
sg2
(Vhttp://www.okkam.org/oaie/restaurant2-Restaurant415
tRp833
S'sa tsu ki'
p834
sg2
(Vhttp://www.okkam.org/oaie/restaurant2-Restaurant414
tRp835
S'rib ranch'
p836
sg2
(Vhttp://www.okkam.org/oaie/restaurant2-Restaurant417
tRp837
S'south city kitchen'
p838
sg2
(Vhttp://www.okkam.org/oaie/restaurant2-Restaurant416
tRp839
S'sato sushi and thai'
p840
sg2
(Vhttp://www.okkam.org/oaie/restaurant2-Restaurant411
tRp841
S'pleasant peasant'
p842
sg2
(Vhttp://www.okkam.org/oaie/restaurant2-Restaurant410
tRp843
S'palisades'
p844
sg2
(Vhttp://www.okkam.org/oaie/restaurant2-Restaurant413
tRp845
S"r.j.'s uptown kitchen & wine bar"
p846
sg2
(Vhttp://www.okkam.org/oaie/restaurant2-Restaurant412
tRp847
S'pricci'
p848
sg2
(Vhttp://www.okkam.org/oaie/restaurant2-Restaurant419
tRp849
S"stringer's fish camp and oyster bar"
p850
sg2
(Vhttp://www.okkam.org/oaie/restaurant2-Restaurant418
tRp851
S'south of france'
p852
sg2
(Vhttp://www.okkam.org/oaie/restaurant2-Restaurant52
tRp853
S'petrossian'
p854
sg2
(Vhttp://www.okkam.org/oaie/restaurant1-Restaurant27
tRp855
S'cafe des artistes'
p856
sg2
(Vhttp://www.okkam.org/oaie/restaurant2-Restaurant50
tRp857
S'oceana'
p858
sg2
(Vhttp://www.okkam.org/oaie/restaurant1-Restaurant25
tRp859
S'aureole'
p860
sg2
(Vhttp://www.okkam.org/oaie/restaurant1-Restaurant22
tRp861
S"yujean kang's gourmet chinese cuisine"
p862
sg2
(Vhttp://www.okkam.org/oaie/restaurant2-Restaurant57
tRp863
S'san domenico'
p864
sg2
(Vhttp://www.okkam.org/oaie/restaurant1-Restaurant20
tRp865
S'spago'
p866
sg2
(Vhttp://www.okkam.org/oaie/restaurant2-Restaurant55
tRp867
S'rainbow room'
p868
sg2
(Vhttp://www.okkam.org/oaie/restaurant2-Restaurant58
tRp869
S'second avenue deli'
p870
sg2
(Vhttp://www.okkam.org/oaie/restaurant2-Restaurant59
tRp871
S'seryna'
p872
sg2
(Vhttp://www.okkam.org/oaie/restaurant1-Restaurant28
tRp873
S"carmine's"
p874
sg2
(Vhttp://www.okkam.org/oaie/restaurant1-Restaurant29
tRp875
S'carnegie deli'
p876
sg2
(Vhttp://www.okkam.org/oaie/restaurant2-Category159
tRp877
S'italian'
p878
sg2
(Vhttp://www.okkam.org/oaie/restaurant2-Category158
tRp879
S'american'
p880
sg2
(Vhttp://www.okkam.org/oaie/restaurant2-Category409
tRp881
S'fusion'
p882
sg2
(Vhttp://www.okkam.org/oaie/restaurant2-Category408
tRp883
S'italian'
p884
sg2
(Vhttp://www.okkam.org/oaie/restaurant2-Category151
tRp885
S'american'
p886
sg2
(Vhttp://www.okkam.org/oaie/restaurant2-Category402
tRp887
S'italian'
p888
sg2
(Vhttp://www.okkam.org/oaie/restaurant2-Category153
tRp889
S'american'
p890
sg2
(Vhttp://www.okkam.org/oaie/restaurant2-Category152
tRp891
S'cajun'
p892
sg2
(Vhttp://www.okkam.org/oaie/restaurant2-Category407
tRp893
S'southern'
p894
sg2
(Vhttp://www.okkam.org/oaie/restaurant2-Category154
tRp895
S'american'
p896
sg2
(Vhttp://www.okkam.org/oaie/restaurant2-Category157
tRp897
S'italian'
p898
sg2
(Vhttp://www.okkam.org/oaie/restaurant2-Category404
tRp899
S'barbecue'
p900
sg2
(Vhttp://www.okkam.org/oaie/restaurant2-Category399
tRp901
S'asian'
p902
sg2
(Vhttp://www.okkam.org/oaie/restaurant2-Category398
tRp903
S'southern'
p904
sg2
(Vhttp://www.okkam.org/oaie/restaurant2-Category393
tRp905
S'continental'
p906
sg2
(Vhttp://www.okkam.org/oaie/restaurant2-Category392
tRp907
S'southern'
p908
sg2
(Vhttp://www.okkam.org/oaie/restaurant2-Category391
tRp909
S'caribbean'
p910
sg2
(Vhttp://www.okkam.org/oaie/restaurant2-Category390
tRp911
S'international'
p912
sg2
(Vhttp://www.okkam.org/oaie/restaurant2-Category397
tRp913
S'barbecue'
p914
sg2
(Vhttp://www.okkam.org/oaie/restaurant2-Category396
tRp915
S'southern'
p916
sg2
(Vhttp://www.okkam.org/oaie/restaurant2-Category395
tRp917
S'barbecue'
p918
sg2
(Vhttp://www.okkam.org/oaie/restaurant2-Category394
tRp919
S'continental'
p920
sg2
(Vhttp://www.okkam.org/oaie/restaurant2-Category719
tRp921
S'diners'
p922
sg2
(Vhttp://www.okkam.org/oaie/restaurant2-Category718
tRp923
S'vegetarian'
p924
sg2
(Vhttp://www.okkam.org/oaie/restaurant2-Category717
tRp925
S'american (new)'
p926
sg2
(Vhttp://www.okkam.org/oaie/restaurant2-Category716
tRp927
S'tex-mex'
p928
sg2
(Vhttp://www.okkam.org/oaie/restaurant2-Category715
tRp929
S'cafeterias'
p930
sg2
(Vhttp://www.okkam.org/oaie/restaurant2-Category714
tRp931
S'japanese'
p932
sg2
(Vhttp://www.okkam.org/oaie/restaurant2-Category713
tRp933
S'coffee shops'
p934
sg2
(Vhttp://www.okkam.org/oaie/restaurant2-Category712
tRp935
S'mediterranean'
p936
sg2
(Vhttp://www.okkam.org/oaie/restaurant2-Category711
tRp937
S'american (new)'
p938
sg2
(Vhttp://www.okkam.org/oaie/restaurant2-Category710
tRp939
S'vegetarian'
p940
sg2
(Vhttp://www.okkam.org/oaie/restaurant2-Restaurant520
tRp941
S'the heights'
p942
sg2
(Vhttp://www.okkam.org/oaie/restaurant2-Category371
tRp943
S'latin american'
p944
sg2
(Vhttp://www.okkam.org/oaie/restaurant2-Category370
tRp945
S'american'
p946
sg2
(Vhttp://www.okkam.org/oaie/restaurant2-Category373
tRp947
S'american'
p948
sg2
(Vhttp://www.okkam.org/oaie/restaurant2-Category372
tRp949
S'american'
p950
sg2
(Vhttp://www.okkam.org/oaie/restaurant2-Category375
tRp951
S'american'
p952
sg2
(Vhttp://www.okkam.org/oaie/restaurant2-Category374
tRp953
S'american'
p954
sg2
(Vhttp://www.okkam.org/oaie/restaurant2-Category377
tRp955
S'and 212/614-9345 asian'
p956
sg2
(Vhttp://www.okkam.org/oaie/restaurant2-Category376
tRp957
S'mediterranean'
p958
sg2
(Vhttp://www.okkam.org/oaie/restaurant2-Category379
tRp959
S'international'
p960
sg2
(Vhttp://www.okkam.org/oaie/restaurant2-Category378
tRp961
S'american'
p962
sg2
(Vhttp://www.okkam.org/oaie/restaurant2-Category573
tRp963
S'american'
p964
sg2
(Vhttp://www.okkam.org/oaie/restaurant2-Category572
tRp965
S'health food'
p966
sg2
(Vhttp://www.okkam.org/oaie/restaurant2-Category571
tRp967
S'delis'
p968
sg2
(Vhttp://www.okkam.org/oaie/restaurant2-Category570
tRp969
S'mexican/tex-mex'
p970
sg2
(Vhttp://www.okkam.org/oaie/restaurant2-Category577
tRp971
S'californian'
p972
sg2
(Vhttp://www.okkam.org/oaie/restaurant2-Category576
tRp973
S'american'
p974
sg2
(Vhttp://www.okkam.org/oaie/restaurant2-Category575
tRp975
S'american'
p976
sg2
(Vhttp://www.okkam.org/oaie/restaurant2-Category574
tRp977
S'desserts'
p978
sg2
(Vhttp://www.okkam.org/oaie/restaurant2-Category579
tRp979
S'hamburgers'
p980
sg2
(Vhttp://www.okkam.org/oaie/restaurant2-Category578
tRp981
S'noodle shops'
p982
sg2
(Vhttp://www.okkam.org/oaie/restaurant2-restaurant208
tRp983
S'plumpjack cafe'
p984
sg2
(Vhttp://www.okkam.org/oaie/restaurant2-restaurant209
tRp985
S'postrio'
p986
sg2
(Vhttp://www.okkam.org/oaie/restaurant2-restaurant204
tRp987
S'la folie'
p988
sg2
(Vhttp://www.okkam.org/oaie/restaurant2-restaurant205
tRp989
S'lulu restaurant-bis-cafe'
p990
sg2
(Vhttp://www.okkam.org/oaie/restaurant2-restaurant206
tRp991
S"masa's"
p992
sg2
(Vhttp://www.okkam.org/oaie/restaurant2-restaurant207
tRp993
S'mifune'
p994
sg2
(Vhttp://www.okkam.org/oaie/restaurant2-restaurant200
tRp995
S'fleur de lys'
p996
sg2
(Vhttp://www.okkam.org/oaie/restaurant2-restaurant201
tRp997
S'fringale'
p998
sg2
(Vhttp://www.okkam.org/oaie/restaurant2-restaurant202
tRp999
S'hawthorne lane'
p1000
sg2
(Vhttp://www.okkam.org/oaie/restaurant2-restaurant203
tRp1001
S'khan toke thai house'
p1002
sg2
(Vhttp://www.okkam.org/oaie/restaurant1-City94
tRp1003
S'san francisco'
p1004
sg2
(Vhttp://www.okkam.org/oaie/restaurant2-Restaurant240
tRp1005
S'film center cafe'
p1006
sg2
(Vhttp://www.okkam.org/oaie/restaurant1-Restaurant9
tRp1007
S'grill on the alley'
p1008
sg2
(Vhttp://www.okkam.org/oaie/restaurant1-Restaurant8
tRp1009
S'granita'
p1010
sg2
(Vhttp://www.okkam.org/oaie/restaurant1-Restaurant7
tRp1011
S'fenix'
p1012
sg2
(Vhttp://www.okkam.org/oaie/restaurant1-Restaurant6
tRp1013
S'citrus'
p1014
sg2
(Vhttp://www.okkam.org/oaie/restaurant1-Restaurant5
tRp1015
S'chinois on main'
p1016
sg2
(Vhttp://www.okkam.org/oaie/restaurant1-Restaurant4
tRp1017
S'campanile'
p1018
sg2
(Vhttp://www.okkam.org/oaie/restaurant1-Restaurant3
tRp1019
S'cafe bizou'
p1020
sg2
(Vhttp://www.okkam.org/oaie/restaurant1-Restaurant2
tRp1021
S'hotel bel-air'
p1022
sg2
(Vhttp://www.okkam.org/oaie/restaurant1-Restaurant1
tRp1023
S"art's delicatessen"
p1024
sg2
(Vhttp://www.okkam.org/oaie/restaurant1-Restaurant0
tRp1025
S"arnie morton's of chicago"
p1026
sg2
(Vhttp://www.okkam.org/oaie/restaurant1-Restaurant111
tRp1027
S'rose pistola'
p1028
sg2
(Vhttp://www.okkam.org/oaie/restaurant2-Restaurant650
tRp1029
S'veselka'
p1030
sg2
(Vhttp://www.okkam.org/oaie/restaurant2-Restaurant622
tRp1031
S'la caridad'
p1032
sg2
(Vhttp://www.okkam.org/oaie/restaurant2-Restaurant623
tRp1033
S'la grenouille'
p1034
sg2
(Vhttp://www.okkam.org/oaie/restaurant2-Restaurant620
tRp1035
S'kiev'
p1036
sg2
(Vhttp://www.okkam.org/oaie/restaurant2-Restaurant621
tRp1037
S'kuruma zushi'
p1038
sg2
(Vhttp://www.okkam.org/oaie/restaurant2-Restaurant626
tRp1039
S"marnie's noodle shop"
p1040
sg2
(Vhttp://www.okkam.org/oaie/restaurant2-Restaurant627
tRp1041
S'menchanko-tei'
p1042
sg2
(Vhttp://www.okkam.org/oaie/restaurant2-Restaurant624
tRp1043
S'lemongrass grill'
p1044
sg2
(Vhttp://www.okkam.org/oaie/restaurant2-Restaurant625
tRp1045
S"lombardi's"
p1046
sg2
(Vhttp://www.okkam.org/oaie/restaurant2-Restaurant628
tRp1047
S'mitali east-west'
p1048
sg2
(Vhttp://www.okkam.org/oaie/restaurant2-Restaurant629
tRp1049
S'monsoon (ny)'
p1050
sg2
(Vhttp://www.okkam.org/oaie/restaurant2-Restaurant392
tRp1051
S'colonnade restaurant'
p1052
sg2
(Vhttp://www.okkam.org/oaie/restaurant2-Restaurant393
tRp1053
S"dante's down the hatch  buckhead"
p1054
sg2
(Vhttp://www.okkam.org/oaie/restaurant2-Restaurant390
tRp1055
S'city grill'
p1056
sg2
(Vhttp://www.okkam.org/oaie/restaurant2-Restaurant391
tRp1057
S'coco loco'
p1058
sg2
(Vhttp://www.okkam.org/oaie/restaurant2-Restaurant396
tRp1059
S'french quarter food shop'
p1060
sg2
(Vhttp://www.okkam.org/oaie/restaurant2-Restaurant397
tRp1061
S'holt bros. bar-b-q'
p1062
sg2
(Vhttp://www.okkam.org/oaie/restaurant2-Restaurant394
tRp1063
S"dante's down the hatch"
p1064
sg2
(Vhttp://www.okkam.org/oaie/restaurant2-Restaurant395
tRp1065
S"fat matt's rib shack"
p1066
sg2
(Vhttp://www.okkam.org/oaie/restaurant2-Restaurant398
tRp1067
S'horseradish grill'
p1068
sg2
(Vhttp://www.okkam.org/oaie/restaurant2-Restaurant399
tRp1069
S"hsu's gourmet"
p1070
sg2
(Vhttp://www.okkam.org/oaie/restaurant1-City91
tRp1071
S'atlanta'
p1072
sg2
(Vhttp://www.okkam.org/oaie/restaurant2-Category68
tRp1073
S'southwestern'
p1074
sg2
(Vhttp://www.okkam.org/oaie/restaurant2-Restaurant241
tRp1075
S"fiorello's roman cafe"
p1076
sg2
(Vhttp://www.okkam.org/oaie/restaurant2-Restaurant714
tRp1077
S'soto'
p1078
sg2
(Vhttp://www.okkam.org/oaie/restaurant2-Restaurant243
tRp1079
S'first'
p1080
sg2
(Vhttp://www.okkam.org/oaie/restaurant2-Restaurant244
tRp1081
S'fishin eddie'
p1082
sg2
(Vhttp://www.okkam.org/oaie/restaurant2-Restaurant245
tRp1083
S'fleur de jour'
p1084
sg2
(Vhttp://www.okkam.org/oaie/restaurant2-Restaurant246
tRp1085
S'flowers'
p1086
sg2
(Vhttp://www.okkam.org/oaie/restaurant2-Restaurant711
tRp1087
S'ritz-carlton cafe (atlanta)'
p1088
sg2
(Vhttp://www.okkam.org/oaie/restaurant2-Category60
tRp1089
S'chinese'
p1090
sg2
(Vhttp://www.okkam.org/oaie/restaurant2-Restaurant249
tRp1091
S'french roast'
p1092
sg2
(Vhttp://www.okkam.org/oaie/restaurant2-Category62
tRp1093
S'steakhouses'
p1094
sg2
(Vhttp://www.okkam.org/oaie/restaurant2-Category63
tRp1095
S'american (new)'
p1096
sg2
(Vhttp://www.okkam.org/oaie/restaurant2-Category64
tRp1097
S'greek'
p1098
sg2
(Vhttp://www.okkam.org/oaie/restaurant2-Category65
tRp1099
S'american (new)'
p1100
sg2
(Vhttp://www.okkam.org/oaie/restaurant2-Category66
tRp1101
S'bbq'
p1102
sg2
(Vhttp://www.okkam.org/oaie/restaurant2-Restaurant719
tRp1103
S'white house restaurant'
p1104
sg2
(Vhttp://www.okkam.org/oaie/restaurant1-City93
tRp1105
S'atlanta'
p1106
sg2
(Vhttp://www.okkam.org/oaie/restaurant2-Restaurant408
tRp1107
S'mi spia dunwoody rd.'
p1108
sg2
(Vhttp://www.okkam.org/oaie/restaurant2-Restaurant409
tRp1109
S"nickiemoto's: a sushi bar"
p1110
sg2
(Vhttp://www.okkam.org/oaie/restaurant2-Restaurant402
tRp1111
S'la grotta at ravinia dunwoody rd.'
p1112
sg2
(Vhttp://www.okkam.org/oaie/restaurant2-Restaurant403
tRp1113
S'little szechuan'
p1114
sg2
(Vhttp://www.okkam.org/oaie/restaurant2-Restaurant400
tRp1115
S'imperial fez'
p1116
sg2
(Vhttp://www.okkam.org/oaie/restaurant2-Restaurant401
tRp1117
S'kamogawa'
p1118
sg2
(Vhttp://www.okkam.org/oaie/restaurant2-Restaurant406
tRp1119
S'mambo restaurante cubano'
p1120
sg2
(Vhttp://www.okkam.org/oaie/restaurant2-Restaurant407
tRp1121
S"mckinnon's louisiane"
p1122
sg2
(Vhttp://www.okkam.org/oaie/restaurant2-Restaurant404
tRp1123
S'lowcountry barbecue'
p1124
sg2
(Vhttp://www.okkam.org/oaie/restaurant2-Restaurant405
tRp1125
S'luna si'
p1126
sg2
(Vhttp://www.okkam.org/oaie/restaurant1-City92
tRp1127
S'atlanta'
p1128
sg2
(Vhttp://www.okkam.org/oaie/restaurant2-Restaurant41
tRp1129
S'le bernardin'
p1130
sg2
(Vhttp://www.okkam.org/oaie/restaurant2-Restaurant40
tRp1131
S'la cote basque'
p1132
sg2
(Vhttp://www.okkam.org/oaie/restaurant1-Restaurant37
tRp1133
S'island spice'
p1134
sg2
(Vhttp://www.okkam.org/oaie/restaurant2-Restaurant42
tRp1135
S'les celebrites'
p1136
sg2
(Vhttp://www.okkam.org/oaie/restaurant2-Restaurant45
tRp1137
S'manhattan ocean club'
p1138
sg2
(Vhttp://www.okkam.org/oaie/restaurant2-Restaurant44
tRp1139
S'lutece'
p1140
sg2
(Vhttp://www.okkam.org/oaie/restaurant1-Restaurant33
tRp1141
S'felidia'
p1142
sg2
(Vhttp://www.okkam.org/oaie/restaurant1-Restaurant32
tRp1143
S'dawat'
p1144
sg2
(Vhttp://www.okkam.org/oaie/restaurant2-Restaurant49
tRp1145
S'montrachet'
p1146
sg2
(Vhttp://www.okkam.org/oaie/restaurant2-Restaurant48
tRp1147
S'mi cocina'
p1148
sg2
(Vhttp://www.okkam.org/oaie/restaurant1-Restaurant39
tRp1149
S'la caravelle'
p1150
sg2
(Vhttp://www.okkam.org/oaie/restaurant1-Restaurant38
tRp1151
S'jo jo'
p1152
sg2
(Vhttp://www.okkam.org/oaie/restaurant2-Category148
tRp1153
S'american'
p1154
sg2
(Vhttp://www.okkam.org/oaie/restaurant2-Category149
tRp1155
S'american'
p1156
sg2
(Vhttp://www.okkam.org/oaie/restaurant2-Category418
tRp1157
S'french'
p1158
sg2
(Vhttp://www.okkam.org/oaie/restaurant2-Category419
tRp1159
S'southern'
p1160
sg2
(Vhttp://www.okkam.org/oaie/restaurant2-Category142
tRp1161
S'continental'
p1162
sg2
(Vhttp://www.okkam.org/oaie/restaurant2-Category143
tRp1163
S'asian'
p1164
sg2
(Vhttp://www.okkam.org/oaie/restaurant2-Category416
tRp1165
S'asian'
p1166
sg2
(Vhttp://www.okkam.org/oaie/restaurant2-Category417
tRp1167
S'southern'
p1168
sg2
(Vhttp://www.okkam.org/oaie/restaurant2-Category410
tRp1169
S'continental'
p1170
sg2
(Vhttp://www.okkam.org/oaie/restaurant2-Category147
tRp1171
S'asian'
p1172
sg2
(Vhttp://www.okkam.org/oaie/restaurant2-Category144
tRp1173
S'asian'
p1174
sg2
(Vhttp://www.okkam.org/oaie/restaurant2-Category413
tRp1175
S'american'
p1176
sg2
(Vhttp://www.okkam.org/oaie/restaurant2-Category388
tRp1177
S'italian'
p1178
sg2
(Vhttp://www.okkam.org/oaie/restaurant2-Category389
tRp1179
S'mediterranean'
p1180
sg2
(Vhttp://www.okkam.org/oaie/restaurant2-Category384
tRp1181
S'continental'
p1182
sg2
(Vhttp://www.okkam.org/oaie/restaurant2-Category385
tRp1183
S'italian'
p1184
sg2
(Vhttp://www.okkam.org/oaie/restaurant2-Category386
tRp1185
S'mediterranean'
p1186
sg2
(Vhttp://www.okkam.org/oaie/restaurant2-Category387
tRp1187
S'american'
p1188
sg2
(Vhttp://www.okkam.org/oaie/restaurant2-Category380
tRp1189
S'barbecue'
p1190
sg2
(Vhttp://www.okkam.org/oaie/restaurant2-Category381
tRp1191
S'asian'
p1192
sg2
(Vhttp://www.okkam.org/oaie/restaurant2-Category382
tRp1193
S'american'
p1194
sg2
(Vhttp://www.okkam.org/oaie/restaurant2-Category383
tRp1195
S'american'
p1196
sg2
(Vhttp://www.okkam.org/oaie/restaurant2-Category700
tRp1197
S'coffeehouses'
p1198
sg2
(Vhttp://www.okkam.org/oaie/restaurant2-Category701
tRp1199
S'spanish'
p1200
sg2
(Vhttp://www.okkam.org/oaie/restaurant2-Category702
tRp1201
S'cafeterias'
p1202
sg2
(Vhttp://www.okkam.org/oaie/restaurant2-Category703
tRp1203
S'diners'
p1204
sg2
(Vhttp://www.okkam.org/oaie/restaurant2-Category704
tRp1205
S'steakhouses'
p1206
sg2
(Vhttp://www.okkam.org/oaie/restaurant2-Category705
tRp1207
S'thai'
p1208
sg2
(Vhttp://www.okkam.org/oaie/restaurant2-Category706
tRp1209
S'southwestern'
p1210
sg2
(Vhttp://www.okkam.org/oaie/restaurant2-Category707
tRp1211
S'mexican'
p1212
sg2
(Vhttp://www.okkam.org/oaie/restaurant2-Category708
tRp1213
S'american'
p1214
sg2
(Vhttp://www.okkam.org/oaie/restaurant2-Category709
tRp1215
S'steakhouses'
p1216
sg2
(Vhttp://www.okkam.org/oaie/restaurant2-Restaurant277
tRp1217
S"l'absinthe"
p1218
sg2
(Vhttp://www.okkam.org/oaie/restaurant2-Category78
tRp1219
S'american (new)'
p1220
sg2
(Vhttp://www.okkam.org/oaie/restaurant2-Category362
tRp1221
S'italian'
p1222
sg2
(Vhttp://www.okkam.org/oaie/restaurant2-Category363
tRp1223
S'italian'
p1224
sg2
(Vhttp://www.okkam.org/oaie/restaurant2-Category360
tRp1225
S'coffee bar'
p1226
sg2
(Vhttp://www.okkam.org/oaie/restaurant2-Category361
tRp1227
S'american'
p1228
sg2
(Vhttp://www.okkam.org/oaie/restaurant2-Category366
tRp1229
S'asian'
p1230
sg2
(Vhttp://www.okkam.org/oaie/restaurant2-Category367
tRp1231
S'middle eastern'
p1232
sg2
(Vhttp://www.okkam.org/oaie/restaurant2-Category364
tRp1233
S'american'
p1234
sg2
(Vhttp://www.okkam.org/oaie/restaurant2-Category365
tRp1235
S'coffee bar'
p1236
sg2
(Vhttp://www.okkam.org/oaie/restaurant2-Category368
tRp1237
S'american'
p1238
sg2
(Vhttp://www.okkam.org/oaie/restaurant2-Category369
tRp1239
S'coffee bar'
p1240
sg2
(Vhttp://www.okkam.org/oaie/restaurant2-Category564
tRp1241
S'american'
p1242
sg2
(Vhttp://www.okkam.org/oaie/restaurant2-Category565
tRp1243
S'seafood'
p1244
sg2
(Vhttp://www.okkam.org/oaie/restaurant2-Category566
tRp1245
S'american'
p1246
sg2
(Vhttp://www.okkam.org/oaie/restaurant2-Category567
tRp1247
S'chicken'
p1248
sg2
(Vhttp://www.okkam.org/oaie/restaurant2-Category560
tRp1249
S'american (new)'
p1250
sg2
(Vhttp://www.okkam.org/oaie/restaurant2-Category561
tRp1251
S'coffee shops'
p1252
sg2
(Vhttp://www.okkam.org/oaie/restaurant2-Category562
tRp1253
S'delis'
p1254
sg2
(Vhttp://www.okkam.org/oaie/restaurant2-Category563
tRp1255
S'southern/soul'
p1256
sg2
(Vhttp://www.okkam.org/oaie/restaurant2-Category568
tRp1257
S'french (new)'
p1258
sg2
(Vhttp://www.okkam.org/oaie/restaurant2-Category569
tRp1259
S'mexican'
p1260
sg2
(Vhttp://www.okkam.org/oaie/restaurant2-Restaurant279
tRp1261
S"l'auberge du midi"
p1262
sg2
(Vhttp://www.okkam.org/oaie/restaurant2-Category76
tRp1263
S'steakhouses'
p1264
sg2
(Vhttp://www.okkam.org/oaie/restaurant2-Category627
tRp1265
S'japanese'
p1266
sg2
(Vhttp://www.okkam.org/oaie/restaurant2-Category626
tRp1267
S'asian'
p1268
sg2
(Vhttp://www.okkam.org/oaie/restaurant2-Category337
tRp1269
S'mexican'
p1270
sg2
(Vhttp://www.okkam.org/oaie/restaurant2-Category624
tRp1271
S'thai'
p1272
sg2
(Vhttp://www.okkam.org/oaie/restaurant2-Category623
tRp1273
S'french (classic)'
p1274
sg2
(Vhttp://www.okkam.org/oaie/restaurant2-Category622
tRp1275
S'cuban'
p1276
sg2
(Vhttp://www.okkam.org/oaie/restaurant2-Category333
tRp1277
S'eastern european'
p1278
sg2
(Vhttp://www.okkam.org/oaie/restaurant2-Category332
tRp1279
S'asian'
p1280
sg2
(Vhttp://www.okkam.org/oaie/restaurant2-Category190
tRp1281
S'latin american'
p1282
sg2
(Vhttp://www.okkam.org/oaie/restaurant2-Category193
tRp1283
S'french'
p1284
sg2
(Vhttp://www.okkam.org/oaie/restaurant2-restaurant231
tRp1285
S'dynasty room'
p1286
sg2
(Vhttp://www.okkam.org/oaie/restaurant2-restaurant230
tRp1287
S"drai's"
p1288
sg2
(Vhttp://www.okkam.org/oaie/restaurant2-restaurant233
tRp1289
S"ed debevic's"
p1290
sg2
(Vhttp://www.okkam.org/oaie/restaurant2-restaurant232
tRp1291
S'eclipse'
p1292
sg2
(Vhttp://www.okkam.org/oaie/restaurant2-restaurant235
tRp1293
S"gilliland's"
p1294
sg2
(Vhttp://www.okkam.org/oaie/restaurant2-restaurant234
tRp1295
S'el cholo'
p1296
sg2
(Vhttp://www.okkam.org/oaie/restaurant2-restaurant237
tRp1297
S'hard rock cafe'
p1298
sg2
(Vhttp://www.okkam.org/oaie/restaurant2-restaurant236
tRp1299
S"gladstone's"
p1300
sg2
(Vhttp://www.okkam.org/oaie/restaurant2-restaurant239
tRp1301
S'il fornaio cucina italiana'
p1302
sg2
(Vhttp://www.okkam.org/oaie/restaurant2-restaurant238
tRp1303
S"harry's bar & american grill"
p1304
sg2
(Vhttp://www.okkam.org/oaie/restaurant2-Restaurant657
tRp1305
S'buccaneer bay club'
p1306
sg2
(Vhttp://www.okkam.org/oaie/restaurant2-Restaurant656
tRp1307
S"andre's french restaurant"
p1308
sg2
(Vhttp://www.okkam.org/oaie/restaurant2-Restaurant655
tRp1309
S'zarela'
p1310
sg2
(Vhttp://www.okkam.org/oaie/restaurant2-Restaurant654
tRp1311
S'yama'
p1312
sg2
(Vhttp://www.okkam.org/oaie/restaurant2-Restaurant653
tRp1313
S"wollensky's grill"
p1314
sg2
(Vhttp://www.okkam.org/oaie/restaurant1-Restaurant112
tRp1315
S"adriano's ristorante"
p1316
sg2
(Vhttp://www.okkam.org/oaie/restaurant2-Restaurant651
tRp1317
S'westside cottage'
p1318
sg2
(Vhttp://www.okkam.org/oaie/restaurant1-Restaurant110
tRp1319
S'ritz-carlton restaurant and dining room'
p1320
sg2
(Vhttp://www.okkam.org/oaie/restaurant2-Restaurant659
tRp1321
S"emeril's new orleans fish house"
p1322
sg2
(Vhttp://www.okkam.org/oaie/restaurant2-Restaurant658
tRp1323
S"buzio's in the rio"
p1324
sg2
(Vhttp://www.okkam.org/oaie/restaurant2-Restaurant252
tRp1325
S'fujiyama mama'
p1326
sg2
(Vhttp://www.okkam.org/oaie/restaurant2-Restaurant275
tRp1327
S'joe allen'
p1328
sg2
(Vhttp://www.okkam.org/oaie/restaurant2-Restaurant274
tRp1329
S"jimmy sung's"
p1330
sg2
(Vhttp://www.okkam.org/oaie/restaurant2-Category79
tRp1331
S'french (new)'
p1332
sg2
(Vhttp://www.okkam.org/oaie/restaurant2-Restaurant276
tRp1333
S'judson grill'
p1334
sg2
(Vhttp://www.okkam.org/oaie/restaurant2-Restaurant271
tRp1335
S'ipanema'
p1336
sg2
(Vhttp://www.okkam.org/oaie/restaurant2-Restaurant270
tRp1337
S'internet cafe'
p1338
sg2
(Vhttp://www.okkam.org/oaie/restaurant2-Restaurant273
tRp1339
S'jewel of india'
p1340
sg2
(Vhttp://www.okkam.org/oaie/restaurant2-Restaurant272
tRp1341
S'jean lafitte'
p1342
sg2
(Vhttp://www.okkam.org/oaie/restaurant2-Category73
tRp1343
S'steakhouses'
p1344
sg2
(Vhttp://www.okkam.org/oaie/restaurant2-Category72
tRp1345
S'steakhouses'
p1346
sg2
(Vhttp://www.okkam.org/oaie/restaurant2-Category71
tRp1347
S'pacific rim'
p1348
sg2
(Vhttp://www.okkam.org/oaie/restaurant2-Category70
tRp1349
S'french (new)'
p1350
sg2
(Vhttp://www.okkam.org/oaie/restaurant2-Category77
tRp1351
S'french bistro'
p1352
sg2
(Vhttp://www.okkam.org/oaie/restaurant2-Restaurant278
tRp1353
S"l'auberge"
p1354
sg2
(Vhttp://www.okkam.org/oaie/restaurant2-Category75
tRp1355
S'californian'
p1356
sg2
(Vhttp://www.okkam.org/oaie/restaurant2-Category74
tRp1357
S'italian'
p1358
sg2
(Vhttp://www.okkam.org/oaie/restaurant2-Restaurant479
tRp1359
S'helmand'
p1360
sg2
(Vhttp://www.okkam.org/oaie/restaurant2-Restaurant478
tRp1361
S'hayes street grill'
p1362
sg2
(Vhttp://www.okkam.org/oaie/restaurant2-Restaurant477
tRp1363
S"harry denton's"
p1364
sg2
(Vhttp://www.okkam.org/oaie/restaurant2-Restaurant476
tRp1365
S"harris'"
p1366
sg2
(Vhttp://www.okkam.org/oaie/restaurant2-Restaurant475
tRp1367
S'harbor village'
p1368
sg2
(Vhttp://www.okkam.org/oaie/restaurant2-Restaurant474
tRp1369
S'greens'
p1370
sg2
(Vhttp://www.okkam.org/oaie/restaurant2-Restaurant473
tRp1371
S'grand cafe hotel monaco'
p1372
sg2
(Vhttp://www.okkam.org/oaie/restaurant2-Restaurant472
tRp1373
S"gaylord's"
p1374
sg2
(Vhttp://www.okkam.org/oaie/restaurant2-Restaurant471
tRp1375
S'garden court'
p1376
sg2
(Vhttp://www.okkam.org/oaie/restaurant2-Restaurant470
tRp1377
S'fog city diner'
p1378
sg2
(Vhttp://www.okkam.org/oaie/restaurant2-Restaurant256
tRp1379
S'girafe'
p1380
sg2
(Vhttp://www.okkam.org/oaie/restaurant2-Restaurant74
tRp1381
S'abruzzi'
p1382
sg2
(Vhttp://www.okkam.org/oaie/restaurant2-Restaurant75
tRp1383
S'bacchanalia'
p1384
sg2
(Vhttp://www.okkam.org/oaie/restaurant2-Restaurant76
tRp1385
S"bone's restaurant"
p1386
sg2
(Vhttp://www.okkam.org/oaie/restaurant2-Restaurant77
tRp1387
S'brasserie le coze'
p1388
sg2
(Vhttp://www.okkam.org/oaie/restaurant2-Restaurant70
tRp1389
S'palace court'
p1390
sg2
(Vhttp://www.okkam.org/oaie/restaurant2-Restaurant71
tRp1391
S'second street grill'
p1392
sg2
(Vhttp://www.okkam.org/oaie/restaurant2-Restaurant72
tRp1393
S'steak house  the'
p1394
sg2
(Vhttp://www.okkam.org/oaie/restaurant2-Restaurant73
tRp1395
S'tillerman  the'
p1396
sg2
(Vhttp://www.okkam.org/oaie/restaurant2-Restaurant78
tRp1397
S'buckhead diner'
p1398
sg2
(Vhttp://www.okkam.org/oaie/restaurant2-Restaurant79
tRp1399
S'ciboulette restaurant'
p1400
sg2
(Vhttp://www.okkam.org/oaie/restaurant2-Restaurant503
tRp1401
S"palio d'asti"
p1402
sg2
(Vhttp://www.okkam.org/oaie/restaurant2-Restaurant502
tRp1403
S'pacific pan pacific hotel'
p1404
sg2
(Vhttp://www.okkam.org/oaie/restaurant2-Restaurant501
tRp1405
S'oritalia'
p1406
sg2
(Vhttp://www.okkam.org/oaie/restaurant2-Restaurant500
tRp1407
S'one market'
p1408
sg2
(Vhttp://www.okkam.org/oaie/restaurant2-Restaurant507
tRp1409
S'r&g lounge'
p1410
sg2
(Vhttp://www.okkam.org/oaie/restaurant2-Restaurant506
tRp1411
S"perry's"
p1412
sg2
(Vhttp://www.okkam.org/oaie/restaurant2-Restaurant505
tRp1413
S'pastis'
p1414
sg2
(Vhttp://www.okkam.org/oaie/restaurant2-Category178
tRp1415
S'american'
p1416
sg2
(Vhttp://www.okkam.org/oaie/restaurant2-Category177
tRp1417
S'mexican'
p1418
sg2
(Vhttp://www.okkam.org/oaie/restaurant2-Category176
tRp1419
S'american'
p1420
sg2
(Vhttp://www.okkam.org/oaie/restaurant2-Restaurant255
tRp1421
S"gianni's"
p1422
sg2
(Vhttp://www.okkam.org/oaie/restaurant2-Category174
tRp1423
S'french'
p1424
sg2
(Vhttp://www.okkam.org/oaie/restaurant2-Category173
tRp1425
S'american'
p1426
sg2
(Vhttp://www.okkam.org/oaie/restaurant2-Category172
tRp1427
S'asian'
p1428
sg2
(Vhttp://www.okkam.org/oaie/restaurant2-Category171
tRp1429
S'american'
p1430
sg2
(Vhttp://www.okkam.org/oaie/restaurant2-Category170
tRp1431
S'american'
p1432
sg2
(Vhttp://www.okkam.org/oaie/restaurant2-Category285
tRp1433
S'french'
p1434
sg2
(Vhttp://www.okkam.org/oaie/restaurant2-Category284
tRp1435
S'middle eastern'
p1436
sg2
(Vhttp://www.okkam.org/oaie/restaurant2-Category287
tRp1437
S'coffee bar'
p1438
sg2
(Vhttp://www.okkam.org/oaie/restaurant2-Category286
tRp1439
S'asian'
p1440
sg2
(Vhttp://www.okkam.org/oaie/restaurant2-Category281
tRp1441
S'french'
p1442
sg2
(Vhttp://www.okkam.org/oaie/restaurant2-Category280
tRp1443
S'french'
p1444
sg2
(Vhttp://www.okkam.org/oaie/restaurant2-Category283
tRp1445
S'italian'
p1446
sg2
(Vhttp://www.okkam.org/oaie/restaurant2-Category282
tRp1447
S'italian'
p1448
sg2
(Vhttp://www.okkam.org/oaie/restaurant2-Category289
tRp1449
S'italian'
p1450
sg2
(Vhttp://www.okkam.org/oaie/restaurant2-Category288
tRp1451
S'french'
p1452
sg2
(Vhttp://www.okkam.org/oaie/restaurant2-Restaurant652
tRp1453
S'windows on the world'
p1454
sg2
(Vhttp://www.okkam.org/oaie/restaurant2-Category609
tRp1455
S'indian'
p1456
sg2
(Vhttp://www.okkam.org/oaie/restaurant2-Category356
tRp1457
S'asian'
p1458
sg2
(Vhttp://www.okkam.org/oaie/restaurant2-Category355
tRp1459
S'coffee bar'
p1460
sg2
(Vhttp://www.okkam.org/oaie/restaurant2-Category354
tRp1461
S'asian'
p1462
sg2
(Vhttp://www.okkam.org/oaie/restaurant2-Category353
tRp1463
S'seafood'
p1464
sg2
(Vhttp://www.okkam.org/oaie/restaurant2-Category352
tRp1465
S'delicatessen'
p1466
sg2
(Vhttp://www.okkam.org/oaie/restaurant2-Category351
tRp1467
S'american'
p1468
sg2
(Vhttp://www.okkam.org/oaie/restaurant2-Category350
tRp1469
S'italian'
p1470
sg2
(Vhttp://www.okkam.org/oaie/restaurant2-Category601
tRp1471
S'middle eastern'
p1472
sg2
(Vhttp://www.okkam.org/oaie/restaurant2-Category600
tRp1473
S'seafood'
p1474
sg2
(Vhttp://www.okkam.org/oaie/restaurant2-Category603
tRp1475
S'american (new)'
p1476
sg2
(Vhttp://www.okkam.org/oaie/restaurant2-Category602
tRp1477
S'afghan'
p1478
sg2
(Vhttp://www.okkam.org/oaie/restaurant2-Category605
tRp1479
S'cuban'
p1480
sg2
(Vhttp://www.okkam.org/oaie/restaurant2-Category604
tRp1481
S'mexican'
p1482
sg2
(Vhttp://www.okkam.org/oaie/restaurant2-Category359
tRp1483
S'continental'
p1484
sg2
(Vhttp://www.okkam.org/oaie/restaurant2-Category358
tRp1485
S'east european'
p1486
sg2
(Vhttp://www.okkam.org/oaie/restaurant2-Category599
tRp1487
S'diners'
p1488
sg2
(Vhttp://www.okkam.org/oaie/restaurant2-Category598
tRp1489
S'hamburgers'
p1490
sg2
(Vhttp://www.okkam.org/oaie/restaurant2-Category591
tRp1491
S'diners'
p1492
sg2
(Vhttp://www.okkam.org/oaie/restaurant2-Category590
tRp1493
S'hot dogs'
p1494
sg2
(Vhttp://www.okkam.org/oaie/restaurant2-Category593
tRp1495
S'steakhouses'
p1496
sg2
(Vhttp://www.okkam.org/oaie/restaurant2-Category592
tRp1497
S'hamburgers'
p1498
sg2
(Vhttp://www.okkam.org/oaie/restaurant2-Category595
tRp1499
S'japanese'
p1500
sg2
(Vhttp://www.okkam.org/oaie/restaurant2-Category594
tRp1501
S'pacific new wave'
p1502
sg2
(Vhttp://www.okkam.org/oaie/restaurant2-Category597
tRp1503
S'noodle shops'
p1504
sg2
(Vhttp://www.okkam.org/oaie/restaurant2-Category596
tRp1505
S'desserts'
p1506
sg2
(Vhttp://www.okkam.org/oaie/restaurant2-Category179
tRp1507
S'american'
p1508
sg2
(Vhttp://www.okkam.org/oaie/restaurant2-Restaurant504
tRp1509
S'pane e vino'
p1510
sg2
(Vhttp://www.okkam.org/oaie/restaurant2-Category175
tRp1511
S'mediterranean'
p1512
sg2
(Vhttp://www.okkam.org/oaie/restaurant2-Restaurant508
tRp1513
S'rubicon'
p1514
sg2
(Vhttp://www.okkam.org/oaie/restaurant2-Category46
tRp1515
S'american (new)'
p1516
sg2
(Vhttp://www.okkam.org/oaie/restaurant2-Category47
tRp1517
S'southwestern'
p1518
sg2
(Vhttp://www.okkam.org/oaie/restaurant2-restaurant226
tRp1519
S'clearwater cafe'
p1520
sg2
(Vhttp://www.okkam.org/oaie/restaurant2-restaurant227
tRp1521
S'dining room'
p1522
sg2
(Vhttp://www.okkam.org/oaie/restaurant2-restaurant224
tRp1523
S'cha cha cha'
p1524
sg2
(Vhttp://www.okkam.org/oaie/restaurant2-restaurant225
tRp1525
S'chan dara'
p1526
sg2
(Vhttp://www.okkam.org/oaie/restaurant2-restaurant222
tRp1527
S"canter's"
p1528
sg2
(Vhttp://www.okkam.org/oaie/restaurant2-restaurant223
tRp1529
S'cava'
p1530
sg2
(Vhttp://www.okkam.org/oaie/restaurant2-restaurant220
tRp1531
S'cafe pinot'
p1532
sg2
(Vhttp://www.okkam.org/oaie/restaurant2-restaurant221
tRp1533
S'california pizza kitchen'
p1534
sg2
(Vhttp://www.okkam.org/oaie/restaurant2-restaurant228
tRp1535
S'dive!'
p1536
sg2
(Vhttp://www.okkam.org/oaie/restaurant2-restaurant229
tRp1537
S'drago'
p1538
sg2
(Vhttp://www.okkam.org/oaie/restaurant1-Restaurant104
tRp1539
S'la folie'
p1540
sg2
(Vhttp://www.okkam.org/oaie/restaurant2-Restaurant645
tRp1541
S'szechuan hunan cottage'
p1542
sg2
(Vhttp://www.okkam.org/oaie/restaurant1-Restaurant106
tRp1543
S"masa's"
p1544
sg2
(Vhttp://www.okkam.org/oaie/restaurant1-Restaurant107
tRp1545
S'mifune japan center  kintetsu building'
p1546
sg2
(Vhttp://www.okkam.org/oaie/restaurant1-Restaurant100
tRp1547
S'fleur de lys'
p1548
sg2
(Vhttp://www.okkam.org/oaie/restaurant1-Restaurant101
tRp1549
S'fringale'
p1550
sg2
(Vhttp://www.okkam.org/oaie/restaurant2-Restaurant642
tRp1551
S'stick to your ribs'
p1552
sg2
(Vhttp://www.okkam.org/oaie/restaurant1-Restaurant103
tRp1553
S'khan toke thai house'
p1554
sg2
(Vhttp://www.okkam.org/oaie/restaurant2-Restaurant648
tRp1555
S'thai house cafe'
p1556
sg2
(Vhttp://www.okkam.org/oaie/restaurant1-Restaurant109
tRp1557
S'postrio'
p1558
sg2
(Vhttp://www.okkam.org/oaie/restaurant2-Restaurant268
tRp1559
S'inca grill'
p1560
sg2
(Vhttp://www.okkam.org/oaie/restaurant2-Restaurant269
tRp1561
S'indochine'
p1562
sg2
(Vhttp://www.okkam.org/oaie/restaurant2-Category48
tRp1563
S'mexican'
p1564
sg2
(Vhttp://www.okkam.org/oaie/restaurant2-Category49
tRp1565
S'french bistro'
p1566
sg2
(Vhttp://www.okkam.org/oaie/restaurant2-Restaurant262
tRp1567
S'hi-life restaurant and lounge'
p1568
sg2
(Vhttp://www.okkam.org/oaie/restaurant2-Restaurant263
tRp1569
S'home'
p1570
sg2
(Vhttp://www.okkam.org/oaie/restaurant2-Category44
tRp1571
S'french (classic)'
p1572
sg2
(Vhttp://www.okkam.org/oaie/restaurant2-Category45
tRp1573
S'seafood'
p1574
sg2
(Vhttp://www.okkam.org/oaie/restaurant2-Category42
tRp1575
S'french (classic)'
p1576
sg2
(Vhttp://www.okkam.org/oaie/restaurant2-Category43
tRp1577
S'asian'
p1578
sg2
(Vhttp://www.okkam.org/oaie/restaurant2-Category40
tRp1579
S'french (classic)'
p1580
sg2
(Vhttp://www.okkam.org/oaie/restaurant2-Restaurant265
tRp1581
S'i trulli'
p1582
sg2
(Vhttp://www.okkam.org/oaie/restaurant2-Category652
tRp1583
S'eclectic'
p1584
sg2
(Vhttp://www.okkam.org/oaie/restaurant2-Restaurant468
tRp1585
S'des alpes'
p1586
sg2
(Vhttp://www.okkam.org/oaie/restaurant2-Restaurant469
tRp1587
S'faz'
p1588
sg2
(Vhttp://www.okkam.org/oaie/restaurant2-Restaurant464
tRp1589
S"capp's corner"
p1590
sg2
(Vhttp://www.okkam.org/oaie/restaurant2-Restaurant465
tRp1591
S'carta'
p1592
sg2
(Vhttp://www.okkam.org/oaie/restaurant2-Restaurant466
tRp1593
S'chevys'
p1594
sg2
(Vhttp://www.okkam.org/oaie/restaurant2-Restaurant467
tRp1595
S'cypress club'
p1596
sg2
(Vhttp://www.okkam.org/oaie/restaurant2-Restaurant493
tRp1597
S'macarthur park'
p1598
sg2
(Vhttp://www.okkam.org/oaie/restaurant2-Restaurant461
tRp1599
S'cafe adriano'
p1600
sg2
(Vhttp://www.okkam.org/oaie/restaurant2-Restaurant462
tRp1601
S'cafe marimba'
p1602
sg2
(Vhttp://www.okkam.org/oaie/restaurant2-Restaurant463
tRp1603
S'california culinary academy'
p1604
sg2
(Vhttp://www.okkam.org/oaie/restaurant2-Restaurant492
tRp1605
S'le soleil'
p1606
sg2
(Vhttp://www.okkam.org/oaie/restaurant2-Restaurant69
tRp1607
S'le montrachet bistro'
p1608
sg2
(Vhttp://www.okkam.org/oaie/restaurant2-Restaurant68
tRp1609
S'coyote cafe (las vegas)'
p1610
sg2
(Vhttp://www.okkam.org/oaie/restaurant1-Restaurant19
tRp1611
S'rex il ristorante'
p1612
sg2
(Vhttp://www.okkam.org/oaie/restaurant1-Restaurant18
tRp1613
S'pinot bistro'
p1614
sg2
(Vhttp://www.okkam.org/oaie/restaurant1-Restaurant17
tRp1615
S"philippe's the original"
p1616
sg2
(Vhttp://www.okkam.org/oaie/restaurant1-Restaurant16
tRp1617
S'patina'
p1618
sg2
(Vhttp://www.okkam.org/oaie/restaurant2-Restaurant61
tRp1619
S'sign of the dove'
p1620
sg2
(Vhttp://www.okkam.org/oaie/restaurant2-Restaurant60
tRp1621
S'shun lee palace'
p1622
sg2
(Vhttp://www.okkam.org/oaie/restaurant2-Restaurant67
tRp1623
S"chin's"
p1624
sg2
(Vhttp://www.okkam.org/oaie/restaurant2-Restaurant66
tRp1625
S"virgil's real bbq"
p1626
sg2
(Vhttp://www.okkam.org/oaie/restaurant2-Restaurant65
tRp1627
S'union square cafe'
p1628
sg2
(Vhttp://www.okkam.org/oaie/restaurant1-Restaurant10
tRp1629
S'restaurant katsu'
p1630
sg2
(Vhttp://www.okkam.org/oaie/restaurant2-Restaurant510
tRp1631
S'sanppo'
p1632
sg2
(Vhttp://www.okkam.org/oaie/restaurant2-Restaurant511
tRp1633
S"scala's bistro"
p1634
sg2
(Vhttp://www.okkam.org/oaie/restaurant2-Restaurant512
tRp1635
S'south park cafe'
p1636
sg2
(Vhttp://www.okkam.org/oaie/restaurant2-Restaurant513
tRp1637
S'splendido embarcadero'
p1638
sg2
(Vhttp://www.okkam.org/oaie/restaurant2-Restaurant514
tRp1639
S'stars'
p1640
sg2
(Vhttp://www.okkam.org/oaie/restaurant2-Restaurant515
tRp1641
S'stars cafe'
p1642
sg2
(Vhttp://www.okkam.org/oaie/restaurant2-Restaurant516
tRp1643
S"stoyanof's cafe"
p1644
sg2
(Vhttp://www.okkam.org/oaie/restaurant2-Restaurant517
tRp1645
S'straits cafe'
p1646
sg2
(Vhttp://www.okkam.org/oaie/restaurant2-Restaurant518
tRp1647
S'suppenkuche'
p1648
sg2
(Vhttp://www.okkam.org/oaie/restaurant2-Restaurant519
tRp1649
S'tadich grill'
p1650
sg2
(Vhttp://www.okkam.org/oaie/restaurant2-Category160
tRp1651
S'asian'
p1652
sg2
(Vhttp://www.okkam.org/oaie/restaurant2-Category161
tRp1653
S'american'
p1654
sg2
(Vhttp://www.okkam.org/oaie/restaurant2-Category162
tRp1655
S'continental'
p1656
sg2
(Vhttp://www.okkam.org/oaie/restaurant2-Category163
tRp1657
S'mediterranean'
p1658
sg2
(Vhttp://www.okkam.org/oaie/restaurant2-Category164
tRp1659
S'american'
p1660
sg2
(Vhttp://www.okkam.org/oaie/restaurant2-Category165
tRp1661
S'italian'
p1662
sg2
(Vhttp://www.okkam.org/oaie/restaurant2-Category166
tRp1663
S'asian'
p1664
sg2
(Vhttp://www.okkam.org/oaie/restaurant2-Category167
tRp1665
S'asian'
p1666
sg2
(Vhttp://www.okkam.org/oaie/restaurant2-Category168
tRp1667
S'italian'
p1668
sg2
(Vhttp://www.okkam.org/oaie/restaurant2-Category169
tRp1669
S'asian'
p1670
sg2
(Vhttp://www.okkam.org/oaie/restaurant2-Category296
tRp1671
S'or 212/941-0772 american'
p1672
sg2
(Vhttp://www.okkam.org/oaie/restaurant2-Category297
tRp1673
S'seafood'
p1674
sg2
(Vhttp://www.okkam.org/oaie/restaurant2-Category294
tRp1675
S'american'
p1676
sg2
(Vhttp://www.okkam.org/oaie/restaurant2-Category295
tRp1677
S'american'
p1678
sg2
(Vhttp://www.okkam.org/oaie/restaurant2-Category292
tRp1679
S'american'
p1680
sg2
(Vhttp://www.okkam.org/oaie/restaurant2-Category293
tRp1681
S'french'
p1682
sg2
(Vhttp://www.okkam.org/oaie/restaurant2-Category290
tRp1683
S'american'
p1684
sg2
(Vhttp://www.okkam.org/oaie/restaurant2-Category291
tRp1685
S'french'
p1686
sg2
(Vhttp://www.okkam.org/oaie/restaurant2-Category298
tRp1687
S'american'
p1688
sg2
(Vhttp://www.okkam.org/oaie/restaurant2-Category299
tRp1689
S'italian'
p1690
sg2
(Vhttp://www.okkam.org/oaie/restaurant2-Category348
tRp1691
S'american'
p1692
sg2
(Vhttp://www.okkam.org/oaie/restaurant2-Category349
tRp1693
S'asian'
p1694
sg2
(Vhttp://www.okkam.org/oaie/restaurant2-Category618
tRp1695
S'pizza'
p1696
sg2
(Vhttp://www.okkam.org/oaie/restaurant2-Category619
tRp1697
S'pan-asian'
p1698
sg2
(Vhttp://www.okkam.org/oaie/restaurant2-Category340
tRp1699
S'italian'
p1700
sg2
(Vhttp://www.okkam.org/oaie/restaurant2-Category613
tRp1701
S'american'
p1702
sg2
(Vhttp://www.okkam.org/oaie/restaurant2-Category342
tRp1703
S'italian'
p1704
sg2
(Vhttp://www.okkam.org/oaie/restaurant2-Category343
tRp1705
S'coffee bar'
p1706
sg2
(Vhttp://www.okkam.org/oaie/restaurant2-Category344
tRp1707
S'american'
p1708
sg2
(Vhttp://www.okkam.org/oaie/restaurant2-Category345
tRp1709
S'seafood'
p1710
sg2
(Vhttp://www.okkam.org/oaie/restaurant2-Category614
tRp1711
S'hot dogs'
p1712
sg2
(Vhttp://www.okkam.org/oaie/restaurant2-Category347
tRp1713
S'american'
p1714
sg2
(Vhttp://www.okkam.org/oaie/restaurant2-Category588
tRp1715
S'japanese'
p1716
sg2
(Vhttp://www.okkam.org/oaie/restaurant2-Category589
tRp1717
S'diners'
p1718
sg2
(Vhttp://www.okkam.org/oaie/restaurant2-Category582
tRp1719
S'seafood'
p1720
sg2
(Vhttp://www.okkam.org/oaie/restaurant2-Category583
tRp1721
S'diners'
p1722
sg2
(Vhttp://www.okkam.org/oaie/restaurant2-Category580
tRp1723
S'pizza'
p1724
sg2
(Vhttp://www.okkam.org/oaie/restaurant2-Category581
tRp1725
S'american'
p1726
sg2
(Vhttp://www.okkam.org/oaie/restaurant2-Category586
tRp1727
S'hot dogs'
p1728
sg2
(Vhttp://www.okkam.org/oaie/restaurant2-Category587
tRp1729
S'mexican'
p1730
sg2
(Vhttp://www.okkam.org/oaie/restaurant2-Category584
tRp1731
S'californian'
p1732
sg2
(Vhttp://www.okkam.org/oaie/restaurant2-Category585
tRp1733
S'vietnamese'
p1734
sg2
(Vhttp://www.okkam.org/oaie/restaurant2-Restaurant701
tRp1735
S'la fonda latina'
p1736
sg2
(Vhttp://www.okkam.org/oaie/restaurant2-Restaurant700
tRp1737
S"kalo's coffee house"
p1738
sg2
(Vhttp://www.okkam.org/oaie/restaurant2-Restaurant251
tRp1739
S'frico bar'
p1740
sg2
(Vhttp://www.okkam.org/oaie/restaurant2-Restaurant250
tRp1741
S'french roast cafe'
p1742
sg2
(Vhttp://www.okkam.org/oaie/restaurant2-Restaurant257
tRp1743
S'global'
p1744
sg2
(Vhttp://www.okkam.org/oaie/restaurant2-Restaurant704
tRp1745
S"morton's of chicago (atlanta)"
p1746
sg2
(Vhttp://www.okkam.org/oaie/restaurant2-Restaurant707
tRp1747
S'nuevo laredo cantina'
p1748
sg2
(Vhttp://www.okkam.org/oaie/restaurant2-Restaurant254
tRp1749
S"gallagher's"
p1750
sg2
(Vhttp://www.okkam.org/oaie/restaurant2-Category357
tRp1751
S'american'
p1752
sg2
(Vhttp://www.okkam.org/oaie/restaurant2-Category608
tRp1753
S'seafood'
p1754
sg2
(Vhttp://www.okkam.org/oaie/restaurant2-Category607
tRp1755
S'italian'
p1756
sg2
(Vhttp://www.okkam.org/oaie/restaurant2-Category606
tRp1757
S'hamburgers'
p1758
sg2
(Vhttp://www.okkam.org/oaie/restaurant2-Restaurant679
tRp1759
S'bistro  the'
p1760
sg2
(Vhttp://www.okkam.org/oaie/restaurant2-Restaurant678
tRp1761
S'barbecue kitchen'
p1762
sg2
(Vhttp://www.okkam.org/oaie/restaurant2-Restaurant671
tRp1763
S'steakhouse  the'
p1764
sg2
(Vhttp://www.okkam.org/oaie/restaurant2-Restaurant670
tRp1765
S'spago (las vegas)'
p1766
sg2
(Vhttp://www.okkam.org/oaie/restaurant2-Restaurant673
tRp1767
S'sterling brunch'
p1768
sg2
(Vhttp://www.okkam.org/oaie/restaurant2-Restaurant672
tRp1769
S"stefano's"
p1770
sg2
(Vhttp://www.okkam.org/oaie/restaurant2-Restaurant675
tRp1771
S'103 west'
p1772
sg2
(Vhttp://www.okkam.org/oaie/restaurant2-Restaurant674
tRp1773
S'tre visi'
p1774
sg2
(Vhttp://www.okkam.org/oaie/restaurant2-Restaurant677
tRp1775
S"baker's cajun cafe"
p1776
sg2
(Vhttp://www.okkam.org/oaie/restaurant2-Restaurant676
tRp1777
S"alon's at the terrace"
p1778
sg2
(Vhttp://www.okkam.org/oaie/restaurant2-restaurant2
tRp1779
S"art's deli"
p1780
sg2
(Vhttp://www.okkam.org/oaie/restaurant2-Restaurant219
tRp1781
S'china grill'
p1782
sg2
(Vhttp://www.okkam.org/oaie/restaurant2-Restaurant218
tRp1783
S'chiam'
p1784
sg2
(Vhttp://www.okkam.org/oaie/restaurant2-Restaurant217
tRp1785
S'chez jacqueline'
p1786
sg2
(Vhttp://www.okkam.org/oaie/restaurant2-Restaurant216
tRp1787
S'cendrillon asian grill & marimba bar'
p1788
sg2
(Vhttp://www.okkam.org/oaie/restaurant2-Restaurant215
tRp1789
S'casa la femme'
p1790
sg2
(Vhttp://www.okkam.org/oaie/restaurant2-Restaurant214
tRp1791
S"captain's table"
p1792
sg2
(Vhttp://www.okkam.org/oaie/restaurant2-Restaurant213
tRp1793
S'capsouto freres'
p1794
sg2
(Vhttp://www.okkam.org/oaie/restaurant2-Restaurant212
tRp1795
S'caffe bondi ristorante'
p1796
sg2
(Vhttp://www.okkam.org/oaie/restaurant2-Restaurant211
tRp1797
S'caffe vivaldi'
p1798
sg2
(Vhttp://www.okkam.org/oaie/restaurant2-Restaurant210
tRp1799
S'caffe roma'
p1800
sg2
(Vhttp://www.okkam.org/oaie/restaurant2-Category51
tRp1801
S'american (new)'
p1802
sg2
(Vhttp://www.okkam.org/oaie/restaurant2-Category50
tRp1803
S'seafood'
p1804
sg2
(Vhttp://www.okkam.org/oaie/restaurant2-Category53
tRp1805
S'mediterranean'
p1806
sg2
(Vhttp://www.okkam.org/oaie/restaurant2-Category52
tRp1807
S'russian'
p1808
sg2
(Vhttp://www.okkam.org/oaie/restaurant2-Category55
tRp1809
S'american (new)'
p1810
sg2
(Vhttp://www.okkam.org/oaie/restaurant2-Category647
tRp1811
S'polish'
p1812
sg2
(Vhttp://www.okkam.org/oaie/restaurant2-Category57
tRp1813
S'italian'
p1814
sg2
(Vhttp://www.okkam.org/oaie/restaurant2-Category56
tRp1815
S'american (new)'
p1816
sg2
(Vhttp://www.okkam.org/oaie/restaurant2-Category59
tRp1817
S'japanese'
p1818
sg2
(Vhttp://www.okkam.org/oaie/restaurant2-Category58
tRp1819
S'delis'
p1820
sg2
(Vhttp://www.okkam.org/oaie/restaurant1-City24
tRp1821
S'new york'
p1822
sg2
(Vhttp://www.okkam.org/oaie/restaurant1-City25
tRp1823
S'new york'
p1824
sg2
(Vhttp://www.okkam.org/oaie/restaurant2-Restaurant691
tRp1825
S'flying biscuit  the'
p1826
sg2
(Vhttp://www.okkam.org/oaie/restaurant2-Restaurant690
tRp1827
S'eats'
p1828
sg2
(Vhttp://www.okkam.org/oaie/restaurant2-Restaurant697
tRp1829
S'indian delights'
p1830
sg2
(Vhttp://www.okkam.org/oaie/restaurant2-Restaurant696
tRp1831
S'house of chan'
p1832
sg2
(Vhttp://www.okkam.org/oaie/restaurant1-City22
tRp1833
S'los angeles'
p1834
sg2
(Vhttp://www.okkam.org/oaie/restaurant1-City23
tRp1835
S'new york'
p1836
sg2
(Vhttp://www.okkam.org/oaie/restaurant2-Restaurant23
tRp1837
S'21 club'
p1838
sg2
(Vhttp://www.okkam.org/oaie/restaurant2-Restaurant699
tRp1839
S'johnny rockets (at)'
p1840
sg2
(Vhttp://www.okkam.org/oaie/restaurant2-Restaurant698
tRp1841
S'java jive'
p1842
sg2
(Vhttp://www.okkam.org/oaie/restaurant1-City28
tRp1843
S'new york'
p1844
sg2
(Vhttp://www.okkam.org/oaie/restaurant1-City29
tRp1845
S'new york'
p1846
sg2
(Vhttp://www.okkam.org/oaie/restaurant2-Restaurant22
tRp1847
S"yujean kang's"
p1848
sg2
(Vhttp://www.okkam.org/oaie/restaurant2-Restaurant323
tRp1849
S'patria'
p1850
sg2
(Vhttp://www.okkam.org/oaie/restaurant2-Restaurant322
tRp1851
S'parioli romanissimo'
p1852
sg2
(Vhttp://www.okkam.org/oaie/restaurant2-Restaurant453
tRp1853
S'2223'
p1854
sg2
(Vhttp://www.okkam.org/oaie/restaurant2-Restaurant452
tRp1855
S"yolie's"
p1856
sg2
(Vhttp://www.okkam.org/oaie/restaurant2-Restaurant455
tRp1857
S"bardelli's"
p1858
sg2
(Vhttp://www.okkam.org/oaie/restaurant2-Restaurant326
tRp1859
S'penang soho'
p1860
sg2
(Vhttp://www.okkam.org/oaie/restaurant2-Restaurant325
tRp1861
S'pen & pencil'
p1862
sg2
(Vhttp://www.okkam.org/oaie/restaurant2-Restaurant324
tRp1863
S'peacock alley'
p1864
sg2
(Vhttp://www.okkam.org/oaie/restaurant2-Restaurant459
tRp1865
S'bizou'
p1866
sg2
(Vhttp://www.okkam.org/oaie/restaurant2-Restaurant458
tRp1867
S'bix'
p1868
sg2
(Vhttp://www.okkam.org/oaie/restaurant2-Restaurant329
tRp1869
S'pomaire'
p1870
sg2
(Vhttp://www.okkam.org/oaie/restaurant2-Restaurant328
tRp1871
S'planet hollywood'
p1872
sg2
(Vhttp://www.okkam.org/oaie/restaurant2-Restaurant702
tRp1873
S'lettuce souprise you (at)'
p1874
sg2
(Vhttp://www.okkam.org/oaie/restaurant2-Restaurant525
tRp1875
S'vivande ristorante'
p1876
sg2
(Vhttp://www.okkam.org/oaie/restaurant2-Restaurant524
tRp1877
S'vivande porta via'
p1878
sg2
(Vhttp://www.okkam.org/oaie/restaurant2-Restaurant527
tRp1879
S'wu kong'
p1880
sg2
(Vhttp://www.okkam.org/oaie/restaurant2-Restaurant526
tRp1881
S'world wrapps'
p1882
sg2
(Vhttp://www.okkam.org/oaie/restaurant2-Restaurant521
tRp1883
S'thepin'
p1884
sg2
(Vhttp://www.okkam.org/oaie/restaurant2-Restaurant552
tRp1885
S'falafel king'
p1886
sg2
(Vhttp://www.okkam.org/oaie/restaurant2-Restaurant523
tRp1887
S'vertigo'
p1888
sg2
(Vhttp://www.okkam.org/oaie/restaurant2-Restaurant522
tRp1889
S'ton kiang'
p1890
sg2
(Vhttp://www.okkam.org/oaie/restaurant2-Restaurant553
tRp1891
S'feast from the east'
p1892
sg2
(Vhttp://www.okkam.org/oaie/restaurant2-Restaurant529
tRp1893
S'yaya cuisine'
p1894
sg2
(Vhttp://www.okkam.org/oaie/restaurant2-Restaurant528
tRp1895
S'yank sing'
p1896
sg2
(Vhttp://www.okkam.org/oaie/restaurant2-Category115
tRp1897
S'californian'
p1898
sg2
(Vhttp://www.okkam.org/oaie/restaurant2-Category114
tRp1899
S'french'
p1900
sg2
(Vhttp://www.okkam.org/oaie/restaurant2-Category117
tRp1901
S'american'
p1902
sg2
(Vhttp://www.okkam.org/oaie/restaurant2-Category116
tRp1903
S'mexican'
p1904
sg2
(Vhttp://www.okkam.org/oaie/restaurant2-Category111
tRp1905
S'italian'
p1906
sg2
(Vhttp://www.okkam.org/oaie/restaurant2-Category110
tRp1907
S'french (new)'
p1908
sg2
(Vhttp://www.okkam.org/oaie/restaurant2-Category113
tRp1909
S'american'
p1910
sg2
(Vhttp://www.okkam.org/oaie/restaurant2-Category112
tRp1911
S'italian'
p1912
sg2
(Vhttp://www.okkam.org/oaie/restaurant2-Category119
tRp1913
S'italian'
p1914
sg2
(Vhttp://www.okkam.org/oaie/restaurant2-Category118
tRp1915
S'italian'
p1916
sg2
(Vhttp://www.okkam.org/oaie/restaurant2-Category752
tRp1917
S'mexican'
p1918
sg2
(Vhttp://www.okkam.org/oaie/restaurant2-Category751
tRp1919
S'pizza'
p1920
sg2
(Vhttp://www.okkam.org/oaie/restaurant2-Category750
tRp1921
S'vietnamese'
p1922
sg2
(Vhttp://www.okkam.org/oaie/restaurant2-Restaurant47
tRp1923
S'mesa grill'
p1924
sg2
(Vhttp://www.okkam.org/oaie/restaurant2-Category339
tRp1925
S'italian'
p1926
sg2
(Vhttp://www.okkam.org/oaie/restaurant2-Category338
tRp1927
S'american'
p1928
sg2
(Vhttp://www.okkam.org/oaie/restaurant2-Category629
tRp1929
S'thai'
p1930
sg2
(Vhttp://www.okkam.org/oaie/restaurant2-Category628
tRp1931
S'indian'
p1932
sg2
(Vhttp://www.okkam.org/oaie/restaurant2-Category335
tRp1933
S'asian'
p1934
sg2
(Vhttp://www.okkam.org/oaie/restaurant2-Category334
tRp1935
S'italian'
p1936
sg2
(Vhttp://www.okkam.org/oaie/restaurant2-Category625
tRp1937
S'pizza'
p1938
sg2
(Vhttp://www.okkam.org/oaie/restaurant2-Category336
tRp1939
S'continental'
p1940
sg2
(Vhttp://www.okkam.org/oaie/restaurant2-Category331
tRp1941
S'american'
p1942
sg2
(Vhttp://www.okkam.org/oaie/restaurant2-Category330
tRp1943
S'american'
p1944
sg2
(Vhttp://www.okkam.org/oaie/restaurant2-Category621
tRp1945
S'japanese'
p1946
sg2
(Vhttp://www.okkam.org/oaie/restaurant2-Category620
tRp1947
S'ukrainian'
p1948
sg2
(Vhttp://www.okkam.org/oaie/restaurant2-Category509
tRp1949
S'american'
p1950
sg2
(Vhttp://www.okkam.org/oaie/restaurant2-restaurant27
tRp1951
S'philippe the original'
p1952
sg2
(Vhttp://www.okkam.org/oaie/restaurant2-restaurant26
tRp1953
S'patina'
p1954
sg2
(Vhttp://www.okkam.org/oaie/restaurant2-restaurant25
tRp1955
S'palm  the (los angeles)'
p1956
sg2
(Vhttp://www.okkam.org/oaie/restaurant2-restaurant24
tRp1957
S'matsuhisa'
p1958
sg2
(Vhttp://www.okkam.org/oaie/restaurant2-restaurant23
tRp1959
S'locanda veneta'
p1960
sg2
(Vhttp://www.okkam.org/oaie/restaurant2-restaurant22
tRp1961
S'le chardonnay (los angeles)'
p1962
sg2
(Vhttp://www.okkam.org/oaie/restaurant2-restaurant21
tRp1963
S"l'orangerie"
p1964
sg2
(Vhttp://www.okkam.org/oaie/restaurant2-restaurant20
tRp1965
S'katsu'
p1966
sg2
(Vhttp://www.okkam.org/oaie/restaurant2-restaurant29
tRp1967
S'rex il ristorante'
p1968
sg2
(Vhttp://www.okkam.org/oaie/restaurant2-restaurant28
tRp1969
S'pinot bistro'
p1970
sg2
(Vhttp://www.okkam.org/oaie/restaurant2-Category241
tRp1971
S'italian'
p1972
sg2
(Vhttp://www.okkam.org/oaie/restaurant2-Category240
tRp1973
S'american'
p1974
sg2
(Vhttp://www.okkam.org/oaie/restaurant2-Category243
tRp1975
S'american'
p1976
sg2
(Vhttp://www.okkam.org/oaie/restaurant2-Category242
tRp1977
S'american'
p1978
sg2
(Vhttp://www.okkam.org/oaie/restaurant2-Category245
tRp1979
S'coffee bar'
p1980
sg2
(Vhttp://www.okkam.org/oaie/restaurant2-Category244
tRp1981
S'seafood'
p1982
sg2
(Vhttp://www.okkam.org/oaie/restaurant2-Category247
tRp1983
S'italian'
p1984
sg2
(Vhttp://www.okkam.org/oaie/restaurant2-Category246
tRp1985
S'american'
p1986
sg2
(Vhttp://www.okkam.org/oaie/restaurant2-Category249
tRp1987
S'french'
p1988
sg2
(Vhttp://www.okkam.org/oaie/restaurant2-Category248
tRp1989
S'american'
p1990
sg2
(Vhttp://www.okkam.org/oaie/restaurant1-Restaurant26
tRp1991
S'cafe lalo'
p1992
sg2
(Vhttp://www.okkam.org/oaie/restaurant2-Restaurant53
tRp1993
S'picholine'
p1994
sg2
(Vhttp://www.okkam.org/oaie/restaurant1-Restaurant24
tRp1995
S'aquavit'
p1996
sg2
(Vhttp://www.okkam.org/oaie/restaurant2-Restaurant51
tRp1997
S'park avenue cafe (new york city)'
p1998
sg2
(Vhttp://www.okkam.org/oaie/restaurant2-Restaurant56
tRp1999
S'river cafe'
p2000
sg2
(Vhttp://www.okkam.org/oaie/restaurant1-Restaurant23
tRp2001
S'21 club'
p2002
sg2
(Vhttp://www.okkam.org/oaie/restaurant2-Restaurant54
tRp2003
S'pisces'
p2004
sg2
(Vhttp://www.okkam.org/oaie/restaurant1-Restaurant21
tRp2005
S'valentino'
p2006
sg2
(Vhttp://www.okkam.org/oaie/restaurant2-Category403
tRp2007
S'asian'
p2008
sg2
(Vhttp://www.okkam.org/oaie/restaurant2-Category150
tRp2009
S'american'
p2010
sg2
(Vhttp://www.okkam.org/oaie/restaurant2-Category401
tRp2011
S'asian'
p2012
sg2
(Vhttp://www.okkam.org/oaie/restaurant2-Category400
tRp2013
S'mediterranean'
p2014
sg2
(Vhttp://www.okkam.org/oaie/restaurant2-Category61
tRp2015
S'american (new)'
p2016
sg2
(Vhttp://www.okkam.org/oaie/restaurant2-Category155
tRp2017
S'californian'
p2018
sg2
(Vhttp://www.okkam.org/oaie/restaurant2-Category406
tRp2019
S'caribbean'
p2020
sg2
(Vhttp://www.okkam.org/oaie/restaurant2-Category405
tRp2021
S'continental'
p2022
sg2
(Vhttp://www.okkam.org/oaie/restaurant2-Category156
tRp2023
S'italian'
p2024
sg2
(Vhttp://www.okkam.org/oaie/restaurant2-Restaurant668
tRp2025
S"nicky blair's"
p2026
sg2
(Vhttp://www.okkam.org/oaie/restaurant2-Restaurant669
tRp2027
S"piero's restaurant"
p2028
sg2
(Vhttp://www.okkam.org/oaie/restaurant2-Restaurant666
tRp2029
S'moongate'
p2030
sg2
(Vhttp://www.okkam.org/oaie/restaurant2-Restaurant667
tRp2031
S"morton's of chicago (las vegas)"
p2032
sg2
(Vhttp://www.okkam.org/oaie/restaurant2-Restaurant664
tRp2033
S"michael's (las vegas)"
p2034
sg2
(Vhttp://www.okkam.org/oaie/restaurant2-Restaurant665
tRp2035
S'monte carlo'
p2036
sg2
(Vhttp://www.okkam.org/oaie/restaurant2-Restaurant662
tRp2037
S"madame ching's"
p2038
sg2
(Vhttp://www.okkam.org/oaie/restaurant2-Restaurant663
tRp2039
S'mayflower cuisinier'
p2040
sg2
(Vhttp://www.okkam.org/oaie/restaurant2-Restaurant660
tRp2041
S'fiore rotisserie & grille'
p2042
sg2
(Vhttp://www.okkam.org/oaie/restaurant2-Restaurant661
tRp2043
S"hugo's cellar"
p2044
sg2
(Vhttp://www.okkam.org/oaie/restaurant2-Restaurant208
tRp2045
S'caffe lure'
p2046
sg2
(Vhttp://www.okkam.org/oaie/restaurant2-Restaurant209
tRp2047
S'caffe reggio'
p2048
sg2
(Vhttp://www.okkam.org/oaie/restaurant2-Restaurant204
tRp2049
S'cafe centro'
p2050
sg2
(Vhttp://www.okkam.org/oaie/restaurant2-Restaurant205
tRp2051
S'cafe fes'
p2052
sg2
(Vhttp://www.okkam.org/oaie/restaurant2-Restaurant206
tRp2053
S'caffe dante'
p2054
sg2
(Vhttp://www.okkam.org/oaie/restaurant2-Restaurant207
tRp2055
S"caffe dell'artista"
p2056
sg2
(Vhttp://www.okkam.org/oaie/restaurant2-Restaurant200
tRp2057
S'cafe botanica'
p2058
sg2
(Vhttp://www.okkam.org/oaie/restaurant2-Restaurant201
tRp2059
S'cafe la fortuna'
p2060
sg2
(Vhttp://www.okkam.org/oaie/restaurant2-Restaurant202
tRp2061
S'cafe luxembourg'
p2062
sg2
(Vhttp://www.okkam.org/oaie/restaurant2-Restaurant203
tRp2063
S'cafe pierre'
p2064
sg2
(Vhttp://www.okkam.org/oaie/restaurant2-Category24
tRp2065
S'scandinavian'
p2066
sg2
(Vhttp://www.okkam.org/oaie/restaurant2-Category25
tRp2067
S'american (new)'
p2068
sg2
(Vhttp://www.okkam.org/oaie/restaurant2-Category26
tRp2069
S'coffeehouses'
p2070
sg2
(Vhttp://www.okkam.org/oaie/restaurant2-Category27
tRp2071
S'french (classic)'
p2072
sg2
(Vhttp://www.okkam.org/oaie/restaurant2-Category20
tRp2073
S'californian'
p2074
sg2
(Vhttp://www.okkam.org/oaie/restaurant2-Category21
tRp2075
S'italian'
p2076
sg2
(Vhttp://www.okkam.org/oaie/restaurant2-Category22
tRp2077
S'chinese'
p2078
sg2
(Vhttp://www.okkam.org/oaie/restaurant2-Category23
tRp2079
S'american (new)'
p2080
sg2
(Vhttp://www.okkam.org/oaie/restaurant2-Category28
tRp2081
S'italian'
p2082
sg2
(Vhttp://www.okkam.org/oaie/restaurant2-Category29
tRp2083
S'delis'
p2084
sg2
(Vhttp://www.okkam.org/oaie/restaurant1-City37
tRp2085
S'new york'
p2086
sg2
(Vhttp://www.okkam.org/oaie/restaurant1-City36
tRp2087
S'new york'
p2088
sg2
(Vhttp://www.okkam.org/oaie/restaurant2-Restaurant682
tRp2089
S'brookhaven cafe'
p2090
sg2
(Vhttp://www.okkam.org/oaie/restaurant1-City34
tRp2091
S'new york'
p2092
sg2
(Vhttp://www.okkam.org/oaie/restaurant1-City33
tRp2093
S'new york'
p2094
sg2
(Vhttp://www.okkam.org/oaie/restaurant1-City32
tRp2095
S'new york'
p2096
sg2
(Vhttp://www.okkam.org/oaie/restaurant2-Restaurant686
tRp2097
S"carey's corner"
p2098
sg2
(Vhttp://www.okkam.org/oaie/restaurant1-City30
tRp2099
S'new york'
p2100
sg2
(Vhttp://www.okkam.org/oaie/restaurant2-Restaurant688
tRp2101
S'chopstix'
p2102
sg2
(Vhttp://www.okkam.org/oaie/restaurant2-Restaurant689
tRp2103
S"deacon burton's soulfood restaurant"
p2104
sg2
(Vhttp://www.okkam.org/oaie/restaurant1-City39
tRp2105
S'new york'
p2106
sg2
(Vhttp://www.okkam.org/oaie/restaurant1-City38
tRp2107
S'new york'
p2108
sg2
(Vhttp://www.okkam.org/oaie/restaurant2-Restaurant446
tRp2109
S'mikado'
p2110
sg2
(Vhttp://www.okkam.org/oaie/restaurant2-Restaurant331
tRp2111
S'post house'
p2112
sg2
(Vhttp://www.okkam.org/oaie/restaurant2-Restaurant332
tRp2113
S'rain'
p2114
sg2
(Vhttp://www.okkam.org/oaie/restaurant2-Restaurant333
tRp2115
S'red tulip'
p2116
sg2
(Vhttp://www.okkam.org/oaie/restaurant2-Restaurant442
tRp2117
S"lillie langtry's"
p2118
sg2
(Vhttp://www.okkam.org/oaie/restaurant2-Restaurant443
tRp2119
S'mandarin court'
p2120
sg2
(Vhttp://www.okkam.org/oaie/restaurant2-Restaurant336
tRp2121
S'roettelle a. g'
p2122
sg2
(Vhttp://www.okkam.org/oaie/restaurant2-Restaurant337
tRp2123
S'rosa mexicano'
p2124
sg2
(Vhttp://www.okkam.org/oaie/restaurant2-Restaurant338
tRp2125
S"ruth's chris"
p2126
sg2
(Vhttp://www.okkam.org/oaie/restaurant2-Restaurant339
tRp2127
S's.p.q.r'
p2128
sg2
(Vhttp://www.okkam.org/oaie/restaurant2-Restaurant448
tRp2129
S"ralph's diner"
p2130
sg2
(Vhttp://www.okkam.org/oaie/restaurant2-Restaurant449
tRp2131
S'the bacchanal'
p2132
sg2
(Vhttp://www.okkam.org/oaie/restaurant2-Restaurant538
tRp2133
S"benita's frites"
p2134
sg2
(Vhttp://www.okkam.org/oaie/restaurant2-Restaurant539
tRp2135
S"bernard's"
p2136
sg2
(Vhttp://www.okkam.org/oaie/restaurant2-Restaurant532
tRp2137
S'zuni cafe & grill'
p2138
sg2
(Vhttp://www.okkam.org/oaie/restaurant2-Restaurant530
tRp2139
S'yoyo tsumami bistro'
p2140
sg2
(Vhttp://www.okkam.org/oaie/restaurant2-Restaurant531
tRp2141
S'zarzuela'
p2142
sg2
(Vhttp://www.okkam.org/oaie/restaurant2-Restaurant536
tRp2143
S'baja fresh'
p2144
sg2
(Vhttp://www.okkam.org/oaie/restaurant2-Restaurant537
tRp2145
S'belvedere  the'
p2146
sg2
(Vhttp://www.okkam.org/oaie/restaurant2-Restaurant534
tRp2147
S'apple pan  the'
p2148
sg2
(Vhttp://www.okkam.org/oaie/restaurant2-Restaurant535
tRp2149
S'asahi ramen'
p2150
sg2
(Vhttp://www.okkam.org/oaie/restaurant2-Category106
tRp2151
S'french (new)'
p2152
sg2
(Vhttp://www.okkam.org/oaie/restaurant2-Category107
tRp2153
S'japanese'
p2154
sg2
(Vhttp://www.okkam.org/oaie/restaurant2-Category104
tRp2155
S'french (new)'
p2156
sg2
(Vhttp://www.okkam.org/oaie/restaurant2-Category105
tRp2157
S'mediterranean'
p2158
sg2
(Vhttp://www.okkam.org/oaie/restaurant2-Category102
tRp2159
S'californian'
p2160
sg2
(Vhttp://www.okkam.org/oaie/restaurant2-Category103
tRp2161
S'thai'
p2162
sg2
(Vhttp://www.okkam.org/oaie/restaurant2-Category100
tRp2163
S'french (new)'
p2164
sg2
(Vhttp://www.okkam.org/oaie/restaurant2-Category101
tRp2165
S'french bistro'
p2166
sg2
(Vhttp://www.okkam.org/oaie/restaurant2-Category108
tRp2167
S'american (new)'
p2168
sg2
(Vhttp://www.okkam.org/oaie/restaurant2-Category109
tRp2169
S'californian'
p2170
sg2
(Vhttp://www.okkam.org/oaie/restaurant2-Category748
tRp2171
S'french'
p2172
sg2
(Vhttp://www.okkam.org/oaie/restaurant2-Category749
tRp2173
S'american'
p2174
sg2
(Vhttp://www.okkam.org/oaie/restaurant2-Category744
tRp2175
S'thai'
p2176
sg2
(Vhttp://www.okkam.org/oaie/restaurant2-Category745
tRp2177
S'vietnamese'
p2178
sg2
(Vhttp://www.okkam.org/oaie/restaurant2-Category746
tRp2179
S'seafood'
p2180
sg2
(Vhttp://www.okkam.org/oaie/restaurant2-Category747
tRp2181
S'thai'
p2182
sg2
(Vhttp://www.okkam.org/oaie/restaurant2-Category740
tRp2183
S'hamburgers'
p2184
sg2
(Vhttp://www.okkam.org/oaie/restaurant2-Category741
tRp2185
S'cambodian'
p2186
sg2
(Vhttp://www.okkam.org/oaie/restaurant2-Category742
tRp2187
S'mexican'
p2188
sg2
(Vhttp://www.okkam.org/oaie/restaurant2-Category743
tRp2189
S'american'
p2190
sg2
(Vhttp://www.okkam.org/oaie/restaurant2-Category304
tRp2191
S'american'
p2192
sg2
(Vhttp://www.okkam.org/oaie/restaurant2-Category328
tRp2193
S'american'
p2194
sg2
(Vhttp://www.okkam.org/oaie/restaurant2-Category657
tRp2195
S'continental'
p2196
sg2
(Vhttp://www.okkam.org/oaie/restaurant2-Category326
tRp2197
S'asian'
p2198
sg2
(Vhttp://www.okkam.org/oaie/restaurant2-Category327
tRp2199
S'middle eastern'
p2200
sg2
(Vhttp://www.okkam.org/oaie/restaurant2-Category324
tRp2201
S'french'
p2202
sg2
(Vhttp://www.okkam.org/oaie/restaurant2-Category325
tRp2203
S'american'
p2204
sg2
(Vhttp://www.okkam.org/oaie/restaurant2-Category322
tRp2205
S'italian'
p2206
sg2
(Vhttp://www.okkam.org/oaie/restaurant2-Category654
tRp2207
S'japanese'
p2208
sg2
(Vhttp://www.okkam.org/oaie/restaurant2-Category320
tRp2209
S'italian'
p2210
sg2
(Vhttp://www.okkam.org/oaie/restaurant2-Category321
tRp2211
S'middle eastern'
p2212
sg2
(Vhttp://www.okkam.org/oaie/restaurant2-Category630
tRp2213
S'middle eastern'
p2214
sg2
(Vhttp://www.okkam.org/oaie/restaurant2-Category631
tRp2215
S'japanese'
p2216
sg2
(Vhttp://www.okkam.org/oaie/restaurant2-Category632
tRp2217
S'continental'
p2218
sg2
(Vhttp://www.okkam.org/oaie/restaurant2-Category655
tRp2219
S'mexican'
p2220
sg2
(Vhttp://www.okkam.org/oaie/restaurant2-Category634
tRp2221
S'steakhouses'
p2222
sg2
(Vhttp://www.okkam.org/oaie/restaurant2-Category635
tRp2223
S'steakhouses'
p2224
sg2
(Vhttp://www.okkam.org/oaie/restaurant2-Category636
tRp2225
S'pizza'
p2226
sg2
(Vhttp://www.okkam.org/oaie/restaurant2-Category637
tRp2227
S'steakhouses'
p2228
sg2
(Vhttp://www.okkam.org/oaie/restaurant2-Category638
tRp2229
S'indian'
p2230
sg2
(Vhttp://www.okkam.org/oaie/restaurant2-Category639
tRp2231
S'chinese'
p2232
sg2
(Vhttp://www.okkam.org/oaie/restaurant2-Category653
tRp2233
S'steakhouses'
p2234
sg2
(Vhttp://www.okkam.org/oaie/restaurant2-Category302
tRp2235
S'french'
p2236
sg2
(Vhttp://www.okkam.org/oaie/restaurant2-Category95
tRp2237
S'american (new)'
p2238
sg2
(Vhttp://www.okkam.org/oaie/restaurant2-Category651
tRp2239
S'chinese'
p2240
sg2
(Vhttp://www.okkam.org/oaie/restaurant2-Category252
tRp2241
S'asian'
p2242
sg2
(Vhttp://www.okkam.org/oaie/restaurant2-Category253
tRp2243
S'mexican'
p2244
sg2
(Vhttp://www.okkam.org/oaie/restaurant2-Category250
tRp2245
S'coffee bar'
p2246
sg2
(Vhttp://www.okkam.org/oaie/restaurant2-Category251
tRp2247
S'italian'
p2248
sg2
(Vhttp://www.okkam.org/oaie/restaurant2-Category256
tRp2249
S'italian'
p2250
sg2
(Vhttp://www.okkam.org/oaie/restaurant2-Category257
tRp2251
S'american'
p2252
sg2
(Vhttp://www.okkam.org/oaie/restaurant2-Category254
tRp2253
S'american'
p2254
sg2
(Vhttp://www.okkam.org/oaie/restaurant2-Category255
tRp2255
S'seafood'
p2256
sg2
(Vhttp://www.okkam.org/oaie/restaurant2-Category258
tRp2257
S'asian'
p2258
sg2
(Vhttp://www.okkam.org/oaie/restaurant2-Category259
tRp2259
S'italian'
p2260
sg2
(Vhttp://www.okkam.org/oaie/restaurant2-Restaurant680
tRp2261
S"bobby & june's kountry kitchen"
p2262
sg2
(Vhttp://www.okkam.org/oaie/restaurant2-Restaurant681
tRp2263
S"bradshaw's restaurant"
p2264
sg2
(Vhttp://www.okkam.org/oaie/restaurant1-City35
tRp2265
S'new york'
p2266
sg2
(Vhttp://www.okkam.org/oaie/restaurant2-Restaurant683
tRp2267
S'cafe sunflower'
p2268
sg2
(Vhttp://www.okkam.org/oaie/restaurant2-Restaurant684
tRp2269
S'canoe'
p2270
sg2
(Vhttp://www.okkam.org/oaie/restaurant2-Category91
tRp2271
S'french (classic)'
p2272
sg2
(Vhttp://www.okkam.org/oaie/restaurant2-Restaurant685
tRp2273
S"carey's"
p2274
sg2
(Vhttp://www.okkam.org/oaie/restaurant1-City31
tRp2275
S'new york'
p2276
sg2
(Vhttp://www.okkam.org/oaie/restaurant2-Restaurant687
tRp2277
S'chops'
p2278
sg2
(Vhttp://www.okkam.org/oaie/restaurant2-Restaurant444
tRp2279
S"margarita's mexican cantina"
p2280
sg2
(Vhttp://www.okkam.org/oaie/restaurant2-Restaurant330
tRp2281
S'popover cafe'
p2282
sg2
(Vhttp://www.okkam.org/oaie/restaurant2-Restaurant447
tRp2283
S'pamplemousse'
p2284
sg2
(Vhttp://www.okkam.org/oaie/restaurant1-City88
tRp2285
S'atlanta'
p2286
sg2
(Vhttp://www.okkam.org/oaie/restaurant2-Restaurant445
tRp2287
S"mary's diner"
p2288
sg2
(Vhttp://www.okkam.org/oaie/restaurant2-Restaurant334
tRp2289
S'remi'
p2290
sg2
(Vhttp://www.okkam.org/oaie/restaurant2-Restaurant335
tRp2291
S'republic'
p2292
sg2
(Vhttp://www.okkam.org/oaie/restaurant2-Restaurant440
tRp2293
S'golden nugget hotel'
p2294
sg2
(Vhttp://www.okkam.org/oaie/restaurant2-Restaurant441
tRp2295
S'golden steer'
p2296
sg2
(Vhttp://www.okkam.org/oaie/restaurant2-Restaurant98
tRp2297
S'campton place'
p2298
sg2
(Vhttp://www.okkam.org/oaie/restaurant2-Restaurant99
tRp2299
S'chez michel'
p2300
sg2
(Vhttp://www.okkam.org/oaie/restaurant2-Category37
tRp2301
S'caribbean'
p2302
sg2
(Vhttp://www.okkam.org/oaie/restaurant2-Category36
tRp2303
S'american (new)'
p2304
sg2
(Vhttp://www.okkam.org/oaie/restaurant2-Restaurant233
tRp2305
S'empire korea'
p2306
sg2
(Vhttp://www.okkam.org/oaie/restaurant2-Category34
tRp2307
S'american (new)'
p2308
sg2
(Vhttp://www.okkam.org/oaie/restaurant2-Restaurant235
tRp2309
S'evergreen cafe'
p2310
sg2
(Vhttp://www.okkam.org/oaie/restaurant2-Restaurant234
tRp2311
S"ernie's"
p2312
sg2
(Vhttp://www.okkam.org/oaie/restaurant2-Restaurant237
tRp2313
S'felix'
p2314
sg2
(Vhttp://www.okkam.org/oaie/restaurant2-Category30
tRp2315
S'french (new)'
p2316
sg2
(Vhttp://www.okkam.org/oaie/restaurant2-Restaurant239
tRp2317
S'fifty seven fifty seven'
p2318
sg2
(Vhttp://www.okkam.org/oaie/restaurant2-Restaurant238
tRp2319
S'ferrier'
p2320
sg2
(Vhttp://www.okkam.org/oaie/restaurant2-Category39
tRp2321
S'french (classic)'
p2322
sg2
(Vhttp://www.okkam.org/oaie/restaurant2-Category38
tRp2323
S'french bistro'
p2324
sg2
(Vhttp://www.okkam.org/oaie/restaurant2-Restaurant305
tRp2325
S"matthew's"
p2326
sg2
(Vhttp://www.okkam.org/oaie/restaurant2-Restaurant304
tRp2327
S'match'
p2328
sg2
(Vhttp://www.okkam.org/oaie/restaurant2-Restaurant307
tRp2329
S'milan cafe and coffee bar'
p2330
sg2
(Vhttp://www.okkam.org/oaie/restaurant2-Restaurant306
tRp2331
S'mavalli palace'
p2332
sg2
(Vhttp://www.okkam.org/oaie/restaurant2-Restaurant301
tRp2333
S'manila garden'
p2334
sg2
(Vhttp://www.okkam.org/oaie/restaurant2-Restaurant300
tRp2335
S'manhattan cafe'
p2336
sg2
(Vhttp://www.okkam.org/oaie/restaurant2-Restaurant303
tRp2337
S'marquet patisserie'
p2338
sg2
(Vhttp://www.okkam.org/oaie/restaurant2-Restaurant302
tRp2339
S'marichu'
p2340
sg2
(Vhttp://www.okkam.org/oaie/restaurant2-Restaurant309
tRp2341
S'montien'
p2342
sg2
(Vhttp://www.okkam.org/oaie/restaurant2-Restaurant308
tRp2343
S'monkey bar'
p2344
sg2
(Vhttp://www.okkam.org/oaie/restaurant2-Restaurant30
tRp2345
S'chanterelle'
p2346
sg2
(Vhttp://www.okkam.org/oaie/restaurant2-Restaurant31
tRp2347
S'daniel'
p2348
sg2
(Vhttp://www.okkam.org/oaie/restaurant2-Restaurant32
tRp2349
S'dawat'
p2350
sg2
(Vhttp://www.okkam.org/oaie/restaurant2-Restaurant33
tRp2351
S'felidia'
p2352
sg2
(Vhttp://www.okkam.org/oaie/restaurant2-Restaurant34
tRp2353
S'four seasons'
p2354
sg2
(Vhttp://www.okkam.org/oaie/restaurant2-Restaurant35
tRp2355
S'gotham bar & grill'
p2356
sg2
(Vhttp://www.okkam.org/oaie/restaurant2-Restaurant36
tRp2357
S'gramercy tavern'
p2358
sg2
(Vhttp://www.okkam.org/oaie/restaurant2-Restaurant548
tRp2359
S'chez melange'
p2360
sg2
(Vhttp://www.okkam.org/oaie/restaurant2-Restaurant547
tRp2361
S"cassell's"
p2362
sg2
(Vhttp://www.okkam.org/oaie/restaurant2-Restaurant39
tRp2363
S'la caravelle'
p2364
sg2
(Vhttp://www.okkam.org/oaie/restaurant2-Restaurant545
tRp2365
S"cafe '50s"
p2366
sg2
(Vhttp://www.okkam.org/oaie/restaurant2-Restaurant544
tRp2367
S"bruno's"
p2368
sg2
(Vhttp://www.okkam.org/oaie/restaurant2-Restaurant543
tRp2369
S'bristol farms market cafe'
p2370
sg2
(Vhttp://www.okkam.org/oaie/restaurant2-Restaurant542
tRp2371
S'brighton coffee shop'
p2372
sg2
(Vhttp://www.okkam.org/oaie/restaurant2-Restaurant541
tRp2373
S"brent's deli"
p2374
sg2
(Vhttp://www.okkam.org/oaie/restaurant2-Restaurant540
tRp2375
S'bistro 45'
p2376
sg2
(Vhttp://www.okkam.org/oaie/restaurant2-Category139
tRp2377
S'italian'
p2378
sg2
(Vhttp://www.okkam.org/oaie/restaurant2-Category138
tRp2379
S'italian'
p2380
sg2
(Vhttp://www.okkam.org/oaie/restaurant2-Category133
tRp2381
S'american'
p2382
sg2
(Vhttp://www.okkam.org/oaie/restaurant2-Category132
tRp2383
S'californian'
p2384
sg2
(Vhttp://www.okkam.org/oaie/restaurant2-Category131
tRp2385
S'continental'
p2386
sg2
(Vhttp://www.okkam.org/oaie/restaurant2-Category130
tRp2387
S'french'
p2388
sg2
(Vhttp://www.okkam.org/oaie/restaurant2-Category137
tRp2389
S'american'
p2390
sg2
(Vhttp://www.okkam.org/oaie/restaurant2-Category136
tRp2391
S'american'
p2392
sg2
(Vhttp://www.okkam.org/oaie/restaurant2-Category135
tRp2393
S'american'
p2394
sg2
(Vhttp://www.okkam.org/oaie/restaurant2-Category134
tRp2395
S'mexican'
p2396
sg2
(Vhttp://www.okkam.org/oaie/restaurant2-Category483
tRp2397
S'italian'
p2398
sg2
(Vhttp://www.okkam.org/oaie/restaurant2-Category482
tRp2399
S'italian'
p2400
sg2
(Vhttp://www.okkam.org/oaie/restaurant2-Category481
tRp2401
S'asian'
p2402
sg2
(Vhttp://www.okkam.org/oaie/restaurant2-Category480
tRp2403
S'asian'
p2404
sg2
(Vhttp://www.okkam.org/oaie/restaurant2-Category487
tRp2405
S''
sg2
(Vhttp://www.okkam.org/oaie/restaurant2-Category486
tRp2406
S'asian'
p2407
sg2
(Vhttp://www.okkam.org/oaie/restaurant2-Category485
tRp2408
S'old san francisco'
p2409
sg2
(Vhttp://www.okkam.org/oaie/restaurant2-Category484
tRp2410
S'steak houses'
p2411
sg2
(Vhttp://www.okkam.org/oaie/restaurant2-Category489
tRp2412
S'asian'
p2413
sg2
(Vhttp://www.okkam.org/oaie/restaurant2-Category488
tRp2414
S'italian'
p2415
sg2
(Vhttp://www.okkam.org/oaie/restaurant2-Category313
tRp2416
S'asian'
p2417
sg2
(Vhttp://www.okkam.org/oaie/restaurant2-Category312
tRp2418
S'asian'
p2419
sg2
(Vhttp://www.okkam.org/oaie/restaurant2-Category311
tRp2420
S'american'
p2421
sg2
(Vhttp://www.okkam.org/oaie/restaurant2-Category310
tRp2422
S'american'
p2423
sg2
(Vhttp://www.okkam.org/oaie/restaurant2-Category641
tRp2424
S'steakhouses'
p2425
sg2
(Vhttp://www.okkam.org/oaie/restaurant2-Category316
tRp2426
S'italian'
p2427
sg2
(Vhttp://www.okkam.org/oaie/restaurant2-Category315
tRp2428
S'american'
p2429
sg2
(Vhttp://www.okkam.org/oaie/restaurant2-Category314
tRp2430
S'coffee bar'
p2431
sg2
(Vhttp://www.okkam.org/oaie/restaurant2-Category319
tRp2432
S'asian'
p2433
sg2
(Vhttp://www.okkam.org/oaie/restaurant2-Category318
tRp2434
S'asian'
p2435
sg2
(Vhttp://www.okkam.org/oaie/restaurant2-Category649
tRp2436
S'thai'
p2437
sg2
(Vhttp://www.okkam.org/oaie/restaurant2-Category648
tRp2438
S'thai'
p2439
sg2
(Vhttp://www.okkam.org/oaie/restaurant2-Restaurant710
tRp2440
S'rainbow restaurant'
p2441
sg2
(Vhttp://www.okkam.org/oaie/restaurant2-Category267
tRp2442
S'italian'
p2443
sg2
(Vhttp://www.okkam.org/oaie/restaurant2-Category266
tRp2444
S'italian'
p2445
sg2
(Vhttp://www.okkam.org/oaie/restaurant2-Category265
tRp2446
S'italian'
p2447
sg2
(Vhttp://www.okkam.org/oaie/restaurant2-Category264
tRp2448
S'american'
p2449
sg2
(Vhttp://www.okkam.org/oaie/restaurant2-Category263
tRp2450
S'american'
p2451
sg2
(Vhttp://www.okkam.org/oaie/restaurant2-Category262
tRp2452
S'american'
p2453
sg2
(Vhttp://www.okkam.org/oaie/restaurant2-Category261
tRp2454
S'american'
p2455
sg2
(Vhttp://www.okkam.org/oaie/restaurant2-Category260
tRp2456
S'american'
p2457
sg2
(Vhttp://www.okkam.org/oaie/restaurant2-Category269
tRp2458
S'asian'
p2459
sg2
(Vhttp://www.okkam.org/oaie/restaurant2-Category268
tRp2460
S'latin american'
p2461
sg2
(Vhttp://www.okkam.org/oaie/restaurant2-Category82
tRp2462
S'continental'
p2463
sg2
(Vhttp://www.okkam.org/oaie/restaurant2-Category80
tRp2464
S'cafeterias'
p2465
sg2
(Vhttp://www.okkam.org/oaie/restaurant2-Category81
tRp2466
S'southwestern'
p2467
sg2
(Vhttp://www.okkam.org/oaie/restaurant2-Category87
tRp2468
S'continental'
p2469
sg2
(Vhttp://www.okkam.org/oaie/restaurant1-City111
tRp2470
S'san francisco'
p2471
sg2
(Vhttp://www.okkam.org/oaie/restaurant1-City110
tRp2472
S'san francisco'
p2473
sg2
(Vhttp://www.okkam.org/oaie/restaurant1-City112
tRp2474
S'los angeles'
p2475
sg2
(Vhttp://www.okkam.org/oaie/restaurant2-Restaurant644
tRp2476
S"sylvia's"
p2477
sg2
(Vhttp://www.okkam.org/oaie/restaurant1-Restaurant105
tRp2478
S'lulu'
p2479
sg2
(Vhttp://www.okkam.org/oaie/restaurant2-Restaurant646
tRp2480
S'szechuan kitchen'
p2481
sg2
(Vhttp://www.okkam.org/oaie/restaurant2-Restaurant647
tRp2482
S"teresa's"
p2483
sg2
(Vhttp://www.okkam.org/oaie/restaurant2-Restaurant640
tRp2484
S"sarabeth's"
p2485
sg2
(Vhttp://www.okkam.org/oaie/restaurant2-Restaurant641
tRp2486
S'sparks steak house'
p2487
sg2
(Vhttp://www.okkam.org/oaie/restaurant1-Restaurant102
tRp2488
S'hawthorne lane'
p2489
sg2
(Vhttp://www.okkam.org/oaie/restaurant2-Restaurant643
tRp2490
S'sushisay'
p2491
sg2
(Vhttp://www.okkam.org/oaie/restaurant1-Restaurant108
tRp2492
S'plumpjack cafe'
p2493
sg2
(Vhttp://www.okkam.org/oaie/restaurant2-Restaurant649
tRp2494
S'thailand restaurant'
p2495
sg2
(Vhttp://www.okkam.org/oaie/restaurant2-Restaurant226
tRp2496
S'dean & deluca'
p2497
sg2
(Vhttp://www.okkam.org/oaie/restaurant2-Restaurant227
tRp2498
S'diva'
p2499
sg2
(Vhttp://www.okkam.org/oaie/restaurant2-Restaurant224
tRp2500
S'cupcake cafe'
p2501
sg2
(Vhttp://www.okkam.org/oaie/restaurant2-Restaurant225
tRp2502
S'da nico'
p2503
sg2
(Vhttp://www.okkam.org/oaie/restaurant2-Restaurant222
tRp2504
S'columbus bakery'
p2505
sg2
(Vhttp://www.okkam.org/oaie/restaurant2-Restaurant223
tRp2506
S'corrado cafe'
p2507
sg2
(Vhttp://www.okkam.org/oaie/restaurant2-Restaurant220
tRp2508
S'cite'
p2509
sg2
(Vhttp://www.okkam.org/oaie/restaurant2-Restaurant221
tRp2510
S'coco pazzo'
p2511
sg2
(Vhttp://www.okkam.org/oaie/restaurant2-Restaurant228
tRp2512
S'dix et sept'
p2513
sg2
(Vhttp://www.okkam.org/oaie/restaurant2-Restaurant229
tRp2514
S'docks'
p2515
sg2
(Vhttp://www.okkam.org/oaie/restaurant1-City19
tRp2516
S'los angeles'
p2517
sg2
(Vhttp://www.okkam.org/oaie/restaurant1-City18
tRp2518
S'los angeles'
p2519
sg2
(Vhttp://www.okkam.org/oaie/restaurant1-City15
tRp2520
S'los angeles'
p2521
sg2
(Vhttp://www.okkam.org/oaie/restaurant1-City14
tRp2522
S'beverly hills'
p2523
sg2
(Vhttp://www.okkam.org/oaie/restaurant1-City17
tRp2524
S'los angeles'
p2525
sg2
(Vhttp://www.okkam.org/oaie/restaurant1-City16
tRp2526
S'los angeles'
p2527
sg2
(Vhttp://www.okkam.org/oaie/restaurant1-City11
tRp2528
S'los angeles'
p2529
sg2
(Vhttp://www.okkam.org/oaie/restaurant1-City10
tRp2530
S'los angeles'
p2531
sg2
(Vhttp://www.okkam.org/oaie/restaurant1-City13
tRp2532
S'los angeles'
p2533
sg2
(Vhttp://www.okkam.org/oaie/restaurant1-City12
tRp2534
S'los angeles'
p2535
sg2
(Vhttp://www.okkam.org/oaie/restaurant2-Restaurant318
tRp2536
S'otabe'
p2537
sg2
(Vhttp://www.okkam.org/oaie/restaurant2-Restaurant319
tRp2538
S'pacifica'
p2539
sg2
(Vhttp://www.okkam.org/oaie/restaurant2-Restaurant312
tRp2540
S'new york kom tang soot bul house'
p2541
sg2
(Vhttp://www.okkam.org/oaie/restaurant2-Restaurant313
tRp2542
S'new york noodletown'
p2543
sg2
(Vhttp://www.okkam.org/oaie/restaurant2-Restaurant310
tRp2544
S"morton's"
p2545
sg2
(Vhttp://www.okkam.org/oaie/restaurant2-Restaurant311
tRp2546
S'motown cafe'
p2547
sg2
(Vhttp://www.okkam.org/oaie/restaurant2-Restaurant316
tRp2548
S'orso'
p2549
sg2
(Vhttp://www.okkam.org/oaie/restaurant2-Restaurant317
tRp2550
S'osteria al droge'
p2551
sg2
(Vhttp://www.okkam.org/oaie/restaurant2-Restaurant314
tRp2552
S'newsbar'
p2553
sg2
(Vhttp://www.okkam.org/oaie/restaurant2-Restaurant315
tRp2554
S'odeon'
p2555
sg2
(Vhttp://www.okkam.org/oaie/restaurant2-Restaurant27
tRp2556
S'cafe des artistes'
p2557
sg2
(Vhttp://www.okkam.org/oaie/restaurant2-Restaurant26
tRp2558
S'cafe lalo'
p2559
sg2
(Vhttp://www.okkam.org/oaie/restaurant2-Restaurant25
tRp2560
S'aureole'
p2561
sg2
(Vhttp://www.okkam.org/oaie/restaurant2-Restaurant24
tRp2562
S'aquavit'
p2563
sg2
(Vhttp://www.okkam.org/oaie/restaurant2-Restaurant558
tRp2564
S'jiraffe'
p2565
sg2
(Vhttp://www.okkam.org/oaie/restaurant2-Restaurant559
tRp2566
S"jody maroni's sausage kingdom"
p2567
sg2
(Vhttp://www.okkam.org/oaie/restaurant2-Restaurant21
tRp2568
S'valentino'
p2569
sg2
(Vhttp://www.okkam.org/oaie/restaurant2-Restaurant20
tRp2570
S'spago (los angeles)'
p2571
sg2
(Vhttp://www.okkam.org/oaie/restaurant2-Restaurant554
tRp2572
S'gumbo pot  the'
p2573
sg2
(Vhttp://www.okkam.org/oaie/restaurant2-Restaurant555
tRp2574
S'hollywood hills coffee shop'
p2575
sg2
(Vhttp://www.okkam.org/oaie/restaurant2-Restaurant556
tRp2576
S'indo cafe'
p2577
sg2
(Vhttp://www.okkam.org/oaie/restaurant2-Restaurant557
tRp2578
S"jan's family restaurant"
p2579
sg2
(Vhttp://www.okkam.org/oaie/restaurant2-Restaurant550
tRp2580
S"don antonio's"
p2581
sg2
(Vhttp://www.okkam.org/oaie/restaurant2-Restaurant551
tRp2582
S"duke's"
p2583
sg2
(Vhttp://www.okkam.org/oaie/restaurant2-Restaurant29
tRp2584
S'carnegie deli'
p2585
sg2
(Vhttp://www.okkam.org/oaie/restaurant2-Restaurant28
tRp2586
S"carmine's"
p2587
sg2
(Vhttp://www.okkam.org/oaie/restaurant2-Category128
tRp2588
S'dive american'
p2589
sg2
(Vhttp://www.okkam.org/oaie/restaurant2-Category129
tRp2590
S'italian'
p2591
sg2
(Vhttp://www.okkam.org/oaie/restaurant2-Category124
tRp2592
S'caribbean'
p2593
sg2
(Vhttp://www.okkam.org/oaie/restaurant2-Category125
tRp2594
S'asian'
p2595
sg2
(Vhttp://www.okkam.org/oaie/restaurant2-Category126
tRp2596
S'health food'
p2597
sg2
(Vhttp://www.okkam.org/oaie/restaurant2-Category127
tRp2598
S'californian'
p2599
sg2
(Vhttp://www.okkam.org/oaie/restaurant2-Category120
tRp2600
S'californian'
p2601
sg2
(Vhttp://www.okkam.org/oaie/restaurant2-Category121
tRp2602
S'californian'
p2603
sg2
(Vhttp://www.okkam.org/oaie/restaurant2-Category122
tRp2604
S'american'
p2605
sg2
(Vhttp://www.okkam.org/oaie/restaurant2-Category123
tRp2606
S'mediterranean'
p2607
sg2
(Vhttp://www.okkam.org/oaie/restaurant2-Restaurant703
tRp2608
S'majestic'
p2609
sg2
(Vhttp://www.okkam.org/oaie/restaurant2-Category494
tRp2610
S'asian'
p2611
sg2
(Vhttp://www.okkam.org/oaie/restaurant2-Category495
tRp2612
S'greek and middle eastern'
p2613
sg2
(Vhttp://www.okkam.org/oaie/restaurant2-Category496
tRp2614
S'seafood'
p2615
sg2
(Vhttp://www.okkam.org/oaie/restaurant2-Category497
tRp2616
S'vegetarian'
p2617
sg2
(Vhttp://www.okkam.org/oaie/restaurant2-Category490
tRp2618
S'italian'
p2619
sg2
(Vhttp://www.okkam.org/oaie/restaurant2-Category491
tRp2620
S'french'
p2621
sg2
(Vhttp://www.okkam.org/oaie/restaurant2-Category492
tRp2622
S'asian'
p2623
sg2
(Vhttp://www.okkam.org/oaie/restaurant2-Category493
tRp2624
S'american'
p2625
sg2
(Vhttp://www.okkam.org/oaie/restaurant2-Category498
tRp2626
S'mediterranean'
p2627
sg2
(Vhttp://www.okkam.org/oaie/restaurant2-Category499
tRp2628
S'asian'
p2629
sg2
(Vhttp://www.okkam.org/oaie/restaurant2-Category656
tRp2630
S'french (classic)'
p2631
sg2
(Vhttp://www.okkam.org/oaie/restaurant2-Category305
tRp2632
S'american'
p2633
sg2
(Vhttp://www.okkam.org/oaie/restaurant2-Category306
tRp2634
S'asian'
p2635
sg2
(Vhttp://www.okkam.org/oaie/restaurant2-Category307
tRp2636
S'coffee bar'
p2637
sg2
(Vhttp://www.okkam.org/oaie/restaurant2-Category300
tRp2638
S'american'
p2639
sg2
(Vhttp://www.okkam.org/oaie/restaurant2-Category301
tRp2640
S'asian'
p2641
sg2
(Vhttp://www.okkam.org/oaie/restaurant2-Category650
tRp2642
S'ukrainian'
p2643
sg2
(Vhttp://www.okkam.org/oaie/restaurant2-Category303
tRp2644
S'coffee bar'
p2645
sg2
(Vhttp://www.okkam.org/oaie/restaurant2-Category308
tRp2646
S'american'
p2647
sg2
(Vhttp://www.okkam.org/oaie/restaurant2-Category309
tRp2648
S'asian'
p2649
sg2
(Vhttp://www.okkam.org/oaie/restaurant2-Category658
tRp2650
S'seafood'
p2651
sg2
(Vhttp://www.okkam.org/oaie/restaurant2-Category659
tRp2652
S'seafood'
p2653
sg2
(Vhttp://www.okkam.org/oaie/restaurant2-Restaurant261
tRp2654
S'hard rock cafe'
p2655
sg2
(Vhttp://www.okkam.org/oaie/restaurant2-Restaurant266
tRp2656
S'il cortile'
p2657
sg2
(Vhttp://www.okkam.org/oaie/restaurant2-Restaurant267
tRp2658
S'il nido'
p2659
sg2
(Vhttp://www.okkam.org/oaie/restaurant2-Restaurant264
tRp2660
S'hudson river club'
p2661
sg2
(Vhttp://www.okkam.org/oaie/restaurant2-Category41
tRp2662
S'seafood'
p2663
sg2
(Vhttp://www.okkam.org/oaie/restaurant2-Category278
tRp2664
S'middle eastern'
p2665
sg2
(Vhttp://www.okkam.org/oaie/restaurant2-Category279
tRp2666
S'french'
p2667
sg2
(Vhttp://www.okkam.org/oaie/restaurant2-Category270
tRp2668
S'coffee bar'
p2669
sg2
(Vhttp://www.okkam.org/oaie/restaurant2-Category271
tRp2670
S'latin american'
p2671
sg2
(Vhttp://www.okkam.org/oaie/restaurant2-Category272
tRp2672
S'french'
p2673
sg2
(Vhttp://www.okkam.org/oaie/restaurant2-Category273
tRp2674
S'asian'
p2675
sg2
(Vhttp://www.okkam.org/oaie/restaurant2-Category274
tRp2676
S'asian'
p2677
sg2
(Vhttp://www.okkam.org/oaie/restaurant2-Category275
tRp2678
S'american'
p2679
sg2
(Vhttp://www.okkam.org/oaie/restaurant2-Category276
tRp2680
S'american'
p2681
sg2
(Vhttp://www.okkam.org/oaie/restaurant2-Category277
tRp2682
S'french'
p2683
sg2
(Vhttp://www.okkam.org/oaie/restaurant2-Category323
tRp2684
S'latin american'
p2685
sg2
(Vhttp://www.okkam.org/oaie/restaurant2-Restaurant706
tRp2686
S'nava'
p2687
sg2
(Vhttp://www.okkam.org/oaie/restaurant2-Category633
tRp2688
S'seafood'
p2689
sg2
(Vhttp://www.okkam.org/oaie/restaurant2-restaurant297
tRp2690
S'c3'
p2691
sg2
(Vhttp://www.okkam.org/oaie/restaurant2-restaurant296
tRp2692
S'bryant park grill  roof restaurant and bp cafe'
p2693
sg2
(Vhttp://www.okkam.org/oaie/restaurant2-restaurant295
tRp2694
S'bruno'
p2695
sg2
(Vhttp://www.okkam.org/oaie/restaurant2-restaurant294
tRp2696
S'brothers bar-b-q'
p2697
sg2
(Vhttp://www.okkam.org/oaie/restaurant2-restaurant293
tRp2698
S'bouterin'
p2699
sg2
(Vhttp://www.okkam.org/oaie/restaurant2-restaurant292
tRp2700
S'boonthai'
p2701
sg2
(Vhttp://www.okkam.org/oaie/restaurant2-restaurant291
tRp2702
S'bolo'
p2703
sg2
(Vhttp://www.okkam.org/oaie/restaurant2-restaurant290
tRp2704
S'boca chica'
p2705
sg2
(Vhttp://www.okkam.org/oaie/restaurant2-restaurant299
tRp2706
S'cafe bianco'
p2707
sg2
(Vhttp://www.okkam.org/oaie/restaurant2-restaurant298
tRp2708
S'ct'
p2709
sg2
(Vhttp://www.okkam.org/oaie/restaurant1-City108
tRp2710
S'san francisco'
p2711
sg2
(Vhttp://www.okkam.org/oaie/restaurant1-City109
tRp2712
S'san francisco'
p2713
sg2
(Vhttp://www.okkam.org/oaie/restaurant1-City106
tRp2714
S'san francisco'
p2715
sg2
(Vhttp://www.okkam.org/oaie/restaurant1-City107
tRp2716
S'san francisco'
p2717
sg2
(Vhttp://www.okkam.org/oaie/restaurant1-City104
tRp2718
S'san francisco'
p2719
sg2
(Vhttp://www.okkam.org/oaie/restaurant1-City105
tRp2720
S'san francisco'
p2721
sg2
(Vhttp://www.okkam.org/oaie/restaurant1-City102
tRp2722
S'san francisco'
p2723
sg2
(Vhttp://www.okkam.org/oaie/restaurant1-City103
tRp2724
S'san francisco'
p2725
sg2
(Vhttp://www.okkam.org/oaie/restaurant1-City100
tRp2726
S'san francisco'
p2727
sg2
(Vhttp://www.okkam.org/oaie/restaurant1-City101
tRp2728
S'san francisco'
p2729
sg2
(Vhttp://www.okkam.org/oaie/restaurant2-Restaurant460
tRp2730
S'buca giovanni'
p2731
sg2
(Vhttp://www.okkam.org/oaie/restaurant2-Category19
tRp2732
S'nuova cucina italian'
p2733
sg2
(Vhttp://www.okkam.org/oaie/restaurant2-Category18
tRp2734
S'french bistro'
p2735
sg2
(Vhttp://www.okkam.org/oaie/restaurant2-Category15
tRp2736
S'steakhouses'
p2737
sg2
(Vhttp://www.okkam.org/oaie/restaurant2-Category14
tRp2738
S'seafood'
p2739
sg2
(Vhttp://www.okkam.org/oaie/restaurant2-Category17
tRp2740
S'cafeterias'
p2741
sg2
(Vhttp://www.okkam.org/oaie/restaurant2-Category16
tRp2742
S'californian'
p2743
sg2
(Vhttp://www.okkam.org/oaie/restaurant2-Category11
tRp2744
S'french (classic)'
p2745
sg2
(Vhttp://www.okkam.org/oaie/restaurant2-Category10
tRp2746
S'japanese'
p2747
sg2
(Vhttp://www.okkam.org/oaie/restaurant2-Category13
tRp2748
S'italian'
p2749
sg2
(Vhttp://www.okkam.org/oaie/restaurant2-Category12
tRp2750
S'french bistro'
p2751
sg2
(Vhttp://www.okkam.org/oaie/restaurant1-City68
tRp2752
S'las vegas'
p2753
sg2
(Vhttp://www.okkam.org/oaie/restaurant1-City69
tRp2754
S'las vegas'
p2755
sg2
(Vhttp://www.okkam.org/oaie/restaurant1-City60
tRp2756
S'new york'
p2757
sg2
(Vhttp://www.okkam.org/oaie/restaurant1-City61
tRp2758
S'new york'
p2759
sg2
(Vhttp://www.okkam.org/oaie/restaurant1-City62
tRp2760
S'new york'
p2761
sg2
(Vhttp://www.okkam.org/oaie/restaurant1-City63
tRp2762
S'new york'
p2763
sg2
(Vhttp://www.okkam.org/oaie/restaurant1-City64
tRp2764
S'new york'
p2765
sg2
(Vhttp://www.okkam.org/oaie/restaurant1-City65
tRp2766
S'new york'
p2767
sg2
(Vhttp://www.okkam.org/oaie/restaurant1-City66
tRp2768
S'new york'
p2769
sg2
(Vhttp://www.okkam.org/oaie/restaurant1-City67
tRp2770
S'las vegas'
p2771
sg2
(Vhttp://www.okkam.org/oaie/restaurant2-Restaurant499
tRp2772
S'north india'
p2773
sg2
(Vhttp://www.okkam.org/oaie/restaurant2-Restaurant498
tRp2774
S"moose's"
p2775
sg2
(Vhttp://www.okkam.org/oaie/restaurant2-Restaurant369
tRp2776
S"veniero's pasticceria"
p2777
sg2
(Vhttp://www.okkam.org/oaie/restaurant2-Restaurant368
tRp2778
S'two two two'
p2779
sg2
(Vhttp://www.okkam.org/oaie/restaurant2-Restaurant495
tRp2780
S'maykadeh'
p2781
sg2
(Vhttp://www.okkam.org/oaie/restaurant2-Restaurant494
tRp2782
S'manora'
p2783
sg2
(Vhttp://www.okkam.org/oaie/restaurant2-Restaurant365
tRp2784
S'trois jean'
p2785
sg2
(Vhttp://www.okkam.org/oaie/restaurant2-Restaurant496
tRp2786
S"mccormick & kuleto's"
p2787
sg2
(Vhttp://www.okkam.org/oaie/restaurant2-Restaurant491
tRp2788
S'le central'
p2789
sg2
(Vhttp://www.okkam.org/oaie/restaurant2-Restaurant362
tRp2790
S"trattoria dell'arte"
p2791
sg2
(Vhttp://www.okkam.org/oaie/restaurant2-Restaurant361
tRp2792
S'the savannah club'
p2793
sg2
(Vhttp://www.okkam.org/oaie/restaurant2-Restaurant360
tRp2794
S'the coffee pot'
p2795
sg2
(Vhttp://www.okkam.org/oaie/restaurant2-Category440
tRp2796
S'buffets'
p2797
sg2
(Vhttp://www.okkam.org/oaie/restaurant2-Restaurant95
tRp2798
S'aqua'
p2799
sg2
(Vhttp://www.okkam.org/oaie/restaurant2-Restaurant561
tRp2800
S"john o'groats"
p2801
sg2
(Vhttp://www.okkam.org/oaie/restaurant2-Restaurant560
tRp2802
S"joe's"
p2803
sg2
(Vhttp://www.okkam.org/oaie/restaurant2-Restaurant563
tRp2804
S"johnny reb's southern smokehouse"
p2805
sg2
(Vhttp://www.okkam.org/oaie/restaurant2-Restaurant562
tRp2806
S"johnnie's pastrami"
p2807
sg2
(Vhttp://www.okkam.org/oaie/restaurant2-Restaurant565
tRp2808
S'killer shrimp'
p2809
sg2
(Vhttp://www.okkam.org/oaie/restaurant2-Restaurant564
tRp2810
S'johnny rockets (la)'
p2811
sg2
(Vhttp://www.okkam.org/oaie/restaurant2-Restaurant567
tRp2812
S'koo koo roo'
p2813
sg2
(Vhttp://www.okkam.org/oaie/restaurant2-Restaurant566
tRp2814
S'kokomo cafe'
p2815
sg2
(Vhttp://www.okkam.org/oaie/restaurant2-Restaurant569
tRp2816
S'la salsa (la)'
p2817
sg2
(Vhttp://www.okkam.org/oaie/restaurant2-Restaurant568
tRp2818
S'la cachette'
p2819
sg2
(Vhttp://www.okkam.org/oaie/restaurant1-Restaurant80
tRp2820
S'delectables'
p2821
sg2
(Vhttp://www.okkam.org/oaie/restaurant1-Restaurant81
tRp2822
S'georgia grille'
p2823
sg2
(Vhttp://www.okkam.org/oaie/restaurant1-Restaurant82
tRp2824
S'hedgerose heights inn'
p2825
sg2
(Vhttp://www.okkam.org/oaie/restaurant1-Restaurant83
tRp2826
S'heera of india'
p2827
sg2
(Vhttp://www.okkam.org/oaie/restaurant1-Restaurant84
tRp2828
S'indigo coastal grill'
p2829
sg2
(Vhttp://www.okkam.org/oaie/restaurant1-Restaurant85
tRp2830
S'la grotta'
p2831
sg2
(Vhttp://www.okkam.org/oaie/restaurant1-Restaurant86
tRp2832
S"mary mac's tea room"
p2833
sg2
(Vhttp://www.okkam.org/oaie/restaurant1-Restaurant87
tRp2834
S"nikolai's roof"
p2835
sg2
(Vhttp://www.okkam.org/oaie/restaurant1-Restaurant88
tRp2836
S"pano's and paul's"
p2837
sg2
(Vhttp://www.okkam.org/oaie/restaurant1-Restaurant89
tRp2838
S'cafe  ritz-carlton  buckhead'
p2839
sg2
(Vhttp://www.okkam.org/oaie/restaurant2-Category469
tRp2840
S'greek and middle eastern'
p2841
sg2
(Vhttp://www.okkam.org/oaie/restaurant2-Category468
tRp2842
S'french'
p2843
sg2
(Vhttp://www.okkam.org/oaie/restaurant2-Category461
tRp2844
S'italian'
p2845
sg2
(Vhttp://www.okkam.org/oaie/restaurant2-Category460
tRp2846
S'italian'
p2847
sg2
(Vhttp://www.okkam.org/oaie/restaurant2-Category463
tRp2848
S'french'
p2849
sg2
(Vhttp://www.okkam.org/oaie/restaurant2-Category462
tRp2850
S'mexican/latin american/spanish'
p2851
sg2
(Vhttp://www.okkam.org/oaie/restaurant2-Category465
tRp2852
S'american'
p2853
sg2
(Vhttp://www.okkam.org/oaie/restaurant2-Category464
tRp2854
S'italian'
p2855
sg2
(Vhttp://www.okkam.org/oaie/restaurant2-Category467
tRp2856
S'american'
p2857
sg2
(Vhttp://www.okkam.org/oaie/restaurant2-Category466
tRp2858
S'mexican/latin american/spanish'
p2859
sg2
(Vhttp://www.okkam.org/oaie/restaurant2-Restaurant63
tRp2860
S'tavern on the green'
p2861
sg2
(Vhttp://www.okkam.org/oaie/restaurant2-Category669
tRp2862
S'italian'
p2863
sg2
(Vhttp://www.okkam.org/oaie/restaurant2-Category668
tRp2864
S'italian'
p2865
sg2
(Vhttp://www.okkam.org/oaie/restaurant2-Restaurant62
tRp2866
S'smith & wollensky'
p2867
sg2
(Vhttp://www.okkam.org/oaie/restaurant2-Category663
tRp2868
S'chinese'
p2869
sg2
(Vhttp://www.okkam.org/oaie/restaurant2-Category662
tRp2870
S'asian'
p2871
sg2
(Vhttp://www.okkam.org/oaie/restaurant2-Category661
tRp2872
S'continental'
p2873
sg2
(Vhttp://www.okkam.org/oaie/restaurant2-Category660
tRp2874
S'italian'
p2875
sg2
(Vhttp://www.okkam.org/oaie/restaurant2-Category667
tRp2876
S'steakhouses'
p2877
sg2
(Vhttp://www.okkam.org/oaie/restaurant1-Restaurant15
tRp2878
S'the palm'
p2879
sg2
(Vhttp://www.okkam.org/oaie/restaurant2-Category665
tRp2880
S'french (new)'
p2881
sg2
(Vhttp://www.okkam.org/oaie/restaurant2-Category664
tRp2882
S'continental'
p2883
sg2
(Vhttp://www.okkam.org/oaie/restaurant1-Restaurant14
tRp2884
S'matsuhisa'
p2885
sg2
(Vhttp://www.okkam.org/oaie/restaurant1-Restaurant13
tRp2886
S'locanda veneta'
p2887
sg2
(Vhttp://www.okkam.org/oaie/restaurant1-Restaurant12
tRp2888
S'le chardonnay'
p2889
sg2
(Vhttp://www.okkam.org/oaie/restaurant1-Restaurant11
tRp2890
S"l'orangerie"
p2891
sg2
(Vhttp://www.okkam.org/oaie/restaurant2-Restaurant64
tRp2892
S"uncle nick's"
p2893
sg2
(Vhttp://www.okkam.org/oaie/restaurant2-Category209
tRp2894
S'coffee bar'
p2895
sg2
(Vhttp://www.okkam.org/oaie/restaurant2-Category208
tRp2896
S'french'
p2897
sg2
(Vhttp://www.okkam.org/oaie/restaurant2-Category205
tRp2898
S'mediterranean'
p2899
sg2
(Vhttp://www.okkam.org/oaie/restaurant2-Category204
tRp2900
S'french'
p2901
sg2
(Vhttp://www.okkam.org/oaie/restaurant2-Category207
tRp2902
S'coffee bar'
p2903
sg2
(Vhttp://www.okkam.org/oaie/restaurant2-Category206
tRp2904
S'coffee bar'
p2905
sg2
(Vhttp://www.okkam.org/oaie/restaurant2-Category201
tRp2906
S'coffee bar'
p2907
sg2
(Vhttp://www.okkam.org/oaie/restaurant2-Category200
tRp2908
S'french'
p2909
sg2
(Vhttp://www.okkam.org/oaie/restaurant2-Category203
tRp2910
S'french'
p2911
sg2
(Vhttp://www.okkam.org/oaie/restaurant2-Category202
tRp2912
S'french'
p2913
sg2
(Vhttp://www.okkam.org/oaie/restaurant2-Category681
tRp2914
S'southern/soul'
p2915
sg2
(Vhttp://www.okkam.org/oaie/restaurant2-Category680
tRp2916
S'southern/soul'
p2917
sg2
(Vhttp://www.okkam.org/oaie/restaurant2-Category683
tRp2918
S'health food'
p2919
sg2
(Vhttp://www.okkam.org/oaie/restaurant2-Category682
tRp2920
S'vegetarian'
p2921
sg2
(Vhttp://www.okkam.org/oaie/restaurant2-Category685
tRp2922
S'hamburgers'
p2923
sg2
(Vhttp://www.okkam.org/oaie/restaurant2-Category684
tRp2924
S'american (new)'
p2925
sg2
(Vhttp://www.okkam.org/oaie/restaurant2-Category687
tRp2926
S'steakhouses'
p2927
sg2
(Vhttp://www.okkam.org/oaie/restaurant2-Category686
tRp2928
S'hamburgers'
p2929
sg2
(Vhttp://www.okkam.org/oaie/restaurant2-Category689
tRp2930
S'southern/soul'
p2931
sg2
(Vhttp://www.okkam.org/oaie/restaurant2-Category688
tRp2932
S'chinese'
p2933
sg2
(Vhttp://www.okkam.org/oaie/restaurant2-Category511
tRp2934
S'italian'
p2935
sg2
(Vhttp://www.okkam.org/oaie/restaurant2-Category510
tRp2936
S'asian'
p2937
sg2
(Vhttp://www.okkam.org/oaie/restaurant2-Category513
tRp2938
S'mediterranean'
p2939
sg2
(Vhttp://www.okkam.org/oaie/restaurant2-Category512
tRp2940
S'french'
p2941
sg2
(Vhttp://www.okkam.org/oaie/restaurant2-Category515
tRp2942
S'american'
p2943
sg2
(Vhttp://www.okkam.org/oaie/restaurant2-Category514
tRp2944
S'american'
p2945
sg2
(Vhttp://www.okkam.org/oaie/restaurant2-Category517
tRp2946
S'asian'
p2947
sg2
(Vhttp://www.okkam.org/oaie/restaurant2-Category516
tRp2948
S'greek and middle eastern'
p2949
sg2
(Vhttp://www.okkam.org/oaie/restaurant2-Category519
tRp2950
S'seafood'
p2951
sg2
(Vhttp://www.okkam.org/oaie/restaurant2-Category518
tRp2952
S'russian/german'
p2953
sg2
(Vhttp://www.okkam.org/oaie/restaurant1-City1
tRp2954
S'studio city'
p2955
sg2
(Vhttp://www.okkam.org/oaie/restaurant1-City0
tRp2956
S'los angeles'
p2957
sg2
(Vhttp://www.okkam.org/oaie/restaurant1-City3
tRp2958
S'sherman oaks'
p2959
sg2
(Vhttp://www.okkam.org/oaie/restaurant1-City2
tRp2960
S'bel air'
p2961
sg2
(Vhttp://www.okkam.org/oaie/restaurant1-City5
tRp2962
S'santa monica'
p2963
sg2
(Vhttp://www.okkam.org/oaie/restaurant1-City4
tRp2964
S'los angeles'
p2965
sg2
(Vhttp://www.okkam.org/oaie/restaurant1-City7
tRp2966
S'hollywood'
p2967
sg2
(Vhttp://www.okkam.org/oaie/restaurant1-City6
tRp2968
S'los angeles'
p2969
sg2
(Vhttp://www.okkam.org/oaie/restaurant1-City9
tRp2970
S'los angeles'
p2971
sg2
(Vhttp://www.okkam.org/oaie/restaurant1-City8
tRp2972
S'malibu'
p2973
sg2
(Vhttp://www.okkam.org/oaie/restaurant2-restaurant284
tRp2974
S'au mandarin'
p2975
sg2
(Vhttp://www.okkam.org/oaie/restaurant2-restaurant285
tRp2976
S'bar anise'
p2977
sg2
(Vhttp://www.okkam.org/oaie/restaurant2-restaurant286
tRp2978
S'barbetta'
p2979
sg2
(Vhttp://www.okkam.org/oaie/restaurant2-restaurant287
tRp2980
S"ben benson's"
p2981
sg2
(Vhttp://www.okkam.org/oaie/restaurant2-restaurant280
tRp2982
S'american place'
p2983
sg2
(Vhttp://www.okkam.org/oaie/restaurant2-restaurant281
tRp2984
S'anche vivolo'
p2985
sg2
(Vhttp://www.okkam.org/oaie/restaurant2-restaurant282
tRp2986
S'arizona'
p2987
sg2
(Vhttp://www.okkam.org/oaie/restaurant2-restaurant283
tRp2988
S"arturo's"
p2989
sg2
(Vhttp://www.okkam.org/oaie/restaurant2-restaurant288
tRp2990
S'big cup'
p2991
sg2
(Vhttp://www.okkam.org/oaie/restaurant2-restaurant289
tRp2992
S"billy's"
p2993
sg2
(Vhttp://www.okkam.org/oaie/restaurant2-Category1
tRp2994
S'delis'
p2995
sg2
(Vhttp://www.okkam.org/oaie/restaurant2-Category0
tRp2996
S'steakhouses'
p2997
sg2
(Vhttp://www.okkam.org/oaie/restaurant2-Category3
tRp2998
S'french bistro'
p2999
sg2
(Vhttp://www.okkam.org/oaie/restaurant2-Category2
tRp3000
S'californian'
p3001
sg2
(Vhttp://www.okkam.org/oaie/restaurant2-Category5
tRp3002
S'pacific new wave'
p3003
sg2
(Vhttp://www.okkam.org/oaie/restaurant2-Category4
tRp3004
S'californian'
p3005
sg2
(Vhttp://www.okkam.org/oaie/restaurant2-Category7
tRp3006
S'french (new)'
p3007
sg2
(Vhttp://www.okkam.org/oaie/restaurant2-Category6
tRp3008
S'californian'
p3009
sg2
(Vhttp://www.okkam.org/oaie/restaurant2-Category9
tRp3010
S'american (traditional)'
p3011
sg2
(Vhttp://www.okkam.org/oaie/restaurant2-Category8
tRp3012
S'californian'
p3013
sg2
(Vhttp://www.okkam.org/oaie/restaurant1-City79
tRp3014
S'atlanta'
p3015
sg2
(Vhttp://www.okkam.org/oaie/restaurant1-City78
tRp3016
S'atlanta'
p3017
sg2
(Vhttp://www.okkam.org/oaie/restaurant1-City73
tRp3018
S'las vegas'
p3019
sg2
(Vhttp://www.okkam.org/oaie/restaurant1-City72
tRp3020
S'las vegas'
p3021
sg2
(Vhttp://www.okkam.org/oaie/restaurant1-City71
tRp3022
S'las vegas'
p3023
sg2
(Vhttp://www.okkam.org/oaie/restaurant1-City70
tRp3024
S'las vegas'
p3025
sg2
(Vhttp://www.okkam.org/oaie/restaurant1-City77
tRp3026
S'atlanta'
p3027
sg2
(Vhttp://www.okkam.org/oaie/restaurant1-City76
tRp3028
S'atlanta'
p3029
sg2
(Vhttp://www.okkam.org/oaie/restaurant1-City75
tRp3030
S'atlanta'
p3031
sg2
(Vhttp://www.okkam.org/oaie/restaurant1-City74
tRp3032
S'atlanta'
p3033
sg2
(Vhttp://www.okkam.org/oaie/restaurant2-Category447
tRp3034
S'continental'
p3035
sg2
(Vhttp://www.okkam.org/oaie/restaurant2-Category446
tRp3036
S'asian'
p3037
sg2
(Vhttp://www.okkam.org/oaie/restaurant2-Category197
tRp3038
S'american'
p3039
sg2
(Vhttp://www.okkam.org/oaie/restaurant2-Category444
tRp3040
S'mexican'
p3041
sg2
(Vhttp://www.okkam.org/oaie/restaurant2-Restaurant378
tRp3042
S'zoe'
p3043
sg2
(Vhttp://www.okkam.org/oaie/restaurant2-Restaurant379
tRp3044
S'abbey'
p3045
sg2
(Vhttp://www.okkam.org/oaie/restaurant2-Restaurant374
tRp3046
S'water club'
p3047
sg2
(Vhttp://www.okkam.org/oaie/restaurant2-Category191
tRp3048
S'mediterranean'
p3049
sg2
(Vhttp://www.okkam.org/oaie/restaurant2-Restaurant376
tRp3050
S'xunta'
p3051
sg2
(Vhttp://www.okkam.org/oaie/restaurant2-Restaurant377
tRp3052
S'zen palate'
p3053
sg2
(Vhttp://www.okkam.org/oaie/restaurant2-Restaurant370
tRp3054
S'verbena'
p3055
sg2
(Vhttp://www.okkam.org/oaie/restaurant2-Restaurant371
tRp3056
S"victor's cafe"
p3057
sg2
(Vhttp://www.okkam.org/oaie/restaurant2-Restaurant372
tRp3058
S"vince & eddie's"
p3059
sg2
(Vhttp://www.okkam.org/oaie/restaurant2-Restaurant373
tRp3060
S'vong'
p3061
sg2
(Vhttp://www.okkam.org/oaie/restaurant2-Restaurant482
tRp3062
S'hyde street bistro'
p3063
sg2
(Vhttp://www.okkam.org/oaie/restaurant2-Restaurant483
tRp3064
S"il fornaio levi's plaza"
p3065
sg2
(Vhttp://www.okkam.org/oaie/restaurant2-Restaurant480
tRp3066
S'hong kong flower lounge'
p3067
sg2
(Vhttp://www.okkam.org/oaie/restaurant2-Restaurant481
tRp3068
S'hong kong villa'
p3069
sg2
(Vhttp://www.okkam.org/oaie/restaurant2-Restaurant486
tRp3070
S'kabuto sushi'
p3071
sg2
(Vhttp://www.okkam.org/oaie/restaurant2-Restaurant487
tRp3072
S"katia's"
p3073
sg2
(Vhttp://www.okkam.org/oaie/restaurant2-Restaurant484
tRp3074
S"izzy's steak & chop house"
p3075
sg2
(Vhttp://www.okkam.org/oaie/restaurant2-Restaurant485
tRp3076
S"jack's"
p3077
sg2
(Vhttp://www.okkam.org/oaie/restaurant2-Restaurant488
tRp3078
S"kuleto's"
p3079
sg2
(Vhttp://www.okkam.org/oaie/restaurant2-Restaurant489
tRp3080
S'kyo-ya. sheraton palace hotel'
p3081
sg2
(Vhttp://www.okkam.org/oaie/restaurant2-Restaurant576
tRp3082
S"maxwell's cafe"
p3083
sg2
(Vhttp://www.okkam.org/oaie/restaurant2-Restaurant577
tRp3084
S"michael's (los angeles)"
p3085
sg2
(Vhttp://www.okkam.org/oaie/restaurant2-Restaurant574
tRp3086
S"mani's bakery & espresso bar"
p3087
sg2
(Vhttp://www.okkam.org/oaie/restaurant2-Restaurant575
tRp3088
S"martha's"
p3089
sg2
(Vhttp://www.okkam.org/oaie/restaurant2-Restaurant572
tRp3090
S'local nochol'
p3091
sg2
(Vhttp://www.okkam.org/oaie/restaurant2-Restaurant573
tRp3092
S'main course  the'
p3093
sg2
(Vhttp://www.okkam.org/oaie/restaurant2-Restaurant570
tRp3094
S'la serenata de garibaldi'
p3095
sg2
(Vhttp://www.okkam.org/oaie/restaurant2-Restaurant571
tRp3096
S"langer's"
p3097
sg2
(Vhttp://www.okkam.org/oaie/restaurant2-Restaurant578
tRp3098
S'mishima'
p3099
sg2
(Vhttp://www.okkam.org/oaie/restaurant2-Restaurant579
tRp3100
S'mo better meatty meat'
p3101
sg2
(Vhttp://www.okkam.org/oaie/restaurant1-Restaurant97
tRp3102
S'cafe claude'
p3103
sg2
(Vhttp://www.okkam.org/oaie/restaurant1-Restaurant96
tRp3104
S'boulevard'
p3105
sg2
(Vhttp://www.okkam.org/oaie/restaurant1-Restaurant95
tRp3106
S'aqua'
p3107
sg2
(Vhttp://www.okkam.org/oaie/restaurant1-Restaurant94
tRp3108
S'alain rondelli'
p3109
sg2
(Vhttp://www.okkam.org/oaie/restaurant1-Restaurant93
tRp3110
S'veni vidi vici'
p3111
sg2
(Vhttp://www.okkam.org/oaie/restaurant1-Restaurant92
tRp3112
S'toulouse'
p3113
sg2
(Vhttp://www.okkam.org/oaie/restaurant1-Restaurant91
tRp3114
S'restaurant  ritz-carlton  atlanta'
p3115
sg2
(Vhttp://www.okkam.org/oaie/restaurant1-Restaurant90
tRp3116
S'dining room  ritz-carlton  buckhead'
p3117
sg2
(Vhttp://www.okkam.org/oaie/restaurant1-Restaurant99
tRp3118
S'chez michel'
p3119
sg2
(Vhttp://www.okkam.org/oaie/restaurant1-Restaurant98
tRp3120
S'campton place'
p3121
sg2
(Vhttp://www.okkam.org/oaie/restaurant2-Category478
tRp3122
S'seafood'
p3123
sg2
(Vhttp://www.okkam.org/oaie/restaurant2-Category479
tRp3124
S'greek and middle eastern'
p3125
sg2
(Vhttp://www.okkam.org/oaie/restaurant2-Category472
tRp3126
S'asian'
p3127
sg2
(Vhttp://www.okkam.org/oaie/restaurant2-Category473
tRp3128
S'american'
p3129
sg2
(Vhttp://www.okkam.org/oaie/restaurant2-Category470
tRp3130
S'american'
p3131
sg2
(Vhttp://www.okkam.org/oaie/restaurant2-Category471
tRp3132
S'old san francisco'
p3133
sg2
(Vhttp://www.okkam.org/oaie/restaurant2-Category476
tRp3134
S'steak houses'
p3135
sg2
(Vhttp://www.okkam.org/oaie/restaurant2-Category477
tRp3136
S'american'
p3137
sg2
(Vhttp://www.okkam.org/oaie/restaurant2-Category474
tRp3138
S'vegetarian'
p3139
sg2
(Vhttp://www.okkam.org/oaie/restaurant2-Category475
tRp3140
S'asian'
p3141
sg2
(Vhttp://www.okkam.org/oaie/restaurant2-Category678
tRp3142
S'bbq'
p3143
sg2
(Vhttp://www.okkam.org/oaie/restaurant2-Category679
tRp3144
S'french bistro'
p3145
sg2
(Vhttp://www.okkam.org/oaie/restaurant2-Category674
tRp3146
S'italian'
p3147
sg2
(Vhttp://www.okkam.org/oaie/restaurant2-Category675
tRp3148
S'continental'
p3149
sg2
(Vhttp://www.okkam.org/oaie/restaurant2-Category676
tRp3150
S'sandwiches'
p3151
sg2
(Vhttp://www.okkam.org/oaie/restaurant2-Category677
tRp3152
S'cajun/creole'
p3153
sg2
(Vhttp://www.okkam.org/oaie/restaurant2-Category670
tRp3154
S'californian'
p3155
sg2
(Vhttp://www.okkam.org/oaie/restaurant2-Category671
tRp3156
S'steakhouses'
p3157
sg2
(Vhttp://www.okkam.org/oaie/restaurant2-Category672
tRp3158
S'italian'
p3159
sg2
(Vhttp://www.okkam.org/oaie/restaurant2-Category673
tRp3160
S'eclectic'
p3161
sg2
(Vhttp://www.okkam.org/oaie/restaurant2-Category218
tRp3162
S'asian'
p3163
sg2
(Vhttp://www.okkam.org/oaie/restaurant2-Category219
tRp3164
S'american'
p3165
sg2
(Vhttp://www.okkam.org/oaie/restaurant2-Category216
tRp3166
S'asian'
p3167
sg2
(Vhttp://www.okkam.org/oaie/restaurant2-Category217
tRp3168
S'french'
p3169
sg2
(Vhttp://www.okkam.org/oaie/restaurant2-Category214
tRp3170
S'seafood'
p3171
sg2
(Vhttp://www.okkam.org/oaie/restaurant2-Category215
tRp3172
S'middle eastern'
p3173
sg2
(Vhttp://www.okkam.org/oaie/restaurant2-Category212
tRp3174
S'italian'
p3175
sg2
(Vhttp://www.okkam.org/oaie/restaurant2-Category213
tRp3176
S'french'
p3177
sg2
(Vhttp://www.okkam.org/oaie/restaurant2-Category210
tRp3178
S'coffee bar'
p3179
sg2
(Vhttp://www.okkam.org/oaie/restaurant2-Category211
tRp3180
S'coffee bar'
p3181
sg2
(Vhttp://www.okkam.org/oaie/restaurant2-Restaurant716
tRp3182
S'tortillas'
p3183
sg2
(Vhttp://www.okkam.org/oaie/restaurant2-Category69
tRp3184
S'french bistro'
p3185
sg2
(Vhttp://www.okkam.org/oaie/restaurant2-Restaurant242
tRp3186
S'firehouse'
p3187
sg2
(Vhttp://www.okkam.org/oaie/restaurant2-Category692
tRp3188
S'tex-mex'
p3189
sg2
(Vhttp://www.okkam.org/oaie/restaurant2-Category693
tRp3190
S'southern/soul'
p3191
sg2
(Vhttp://www.okkam.org/oaie/restaurant2-Category690
tRp3192
S'italian'
p3193
sg2
(Vhttp://www.okkam.org/oaie/restaurant2-Restaurant715
tRp3194
S"thelma's kitchen"
p3195
sg2
(Vhttp://www.okkam.org/oaie/restaurant2-Category696
tRp3196
S'chinese'
p3197
sg2
(Vhttp://www.okkam.org/oaie/restaurant2-Category697
tRp3198
S'indian'
p3199
sg2
(Vhttp://www.okkam.org/oaie/restaurant2-Category694
tRp3200
S'bbq'
p3201
sg2
(Vhttp://www.okkam.org/oaie/restaurant2-Category695
tRp3202
S'cuban'
p3203
sg2
(Vhttp://www.okkam.org/oaie/restaurant2-Restaurant712
tRp3204
S'riviera'
p3205
sg2
(Vhttp://www.okkam.org/oaie/restaurant2-Category698
tRp3206
S'coffee shops'
p3207
sg2
(Vhttp://www.okkam.org/oaie/restaurant2-Category699
tRp3208
S'american'
p3209
sg2
(Vhttp://www.okkam.org/oaie/restaurant2-Restaurant713
tRp3210
S'silver skillet  the'
p3211
sg2
(Vhttp://www.okkam.org/oaie/restaurant2-Category502
tRp3212
S'french'
p3213
sg2
(Vhttp://www.okkam.org/oaie/restaurant2-Category503
tRp3214
S'italian'
p3215
sg2
(Vhttp://www.okkam.org/oaie/restaurant2-Category500
tRp3216
S'american'
p3217
sg2
(Vhttp://www.okkam.org/oaie/restaurant2-Category501
tRp3218
S'italian'
p3219
sg2
(Vhttp://www.okkam.org/oaie/restaurant2-Category506
tRp3220
S'american'
p3221
sg2
(Vhttp://www.okkam.org/oaie/restaurant2-Category507
tRp3222
S'or 415/982-3811 asian'
p3223
sg2
(Vhttp://www.okkam.org/oaie/restaurant2-Category504
tRp3224
S'italian'
p3225
sg2
(Vhttp://www.okkam.org/oaie/restaurant2-Category505
tRp3226
S'french'
p3227
sg2
(Vhttp://www.okkam.org/oaie/restaurant2-Category508
tRp3228
S'american'
p3229
sg2
(Vhttp://www.okkam.org/oaie/restaurant2-Restaurant247
tRp3230
S'follonico'
p3231
sg2
(Vhttp://www.okkam.org/oaie/restaurant2-Restaurant248
tRp3232
S'fraunces tavern'
p3233
sg2
(Vhttp://www.okkam.org/oaie/restaurant2-Restaurant366
tRp3234
S'tse yang'
p3235
sg2
(Vhttp://www.okkam.org/oaie/restaurant2-Restaurant497
tRp3236
S'millennium'
p3237
sg2
(Vhttp://www.okkam.org/oaie/restaurant2-Restaurant364
tRp3238
S'tribeca grill'
p3239
sg2
(Vhttp://www.okkam.org/oaie/restaurant2-Restaurant363
tRp3240
S'triangolo'
p3241
sg2
(Vhttp://www.okkam.org/oaie/restaurant2-Restaurant490
tRp3242
S"l'osteria del forno"
p3243
sg2
(Vhttp://www.okkam.org/oaie/restaurant2-Restaurant718
tRp3244
S'veggieland'
p3245
sg2
(Vhttp://www.okkam.org/oaie/restaurant2-Category67
tRp3246
S'chinese'
p3247
sg2
(Vhttp://www.okkam.org/oaie/restaurant2-Category612
tRp3248
S'greek'
p3249
sg2
(Vhttp://www.okkam.org/oaie/restaurant2-Category341
tRp3250
S'east european'
p3251
sg2
(Vhttp://www.okkam.org/oaie/restaurant2-Category610
tRp3252
S'diners'
p3253
sg2
(Vhttp://www.okkam.org/oaie/restaurant2-Category611
tRp3254
S'diners'
p3255
sg2
(Vhttp://www.okkam.org/oaie/restaurant2-Category616
tRp3256
S'indian'
p3257
sg2
(Vhttp://www.okkam.org/oaie/restaurant2-Category617
tRp3258
S'chinese'
p3259
sg2
(Vhttp://www.okkam.org/oaie/restaurant2-Category346
tRp3260
S'american'
p3261
sg2
(Vhttp://www.okkam.org/oaie/restaurant2-Category615
tRp3262
S'italian'
p3263
sg2
(Vhttp://www.okkam.org/oaie/restaurant2-restaurant253
tRp3264
S'pacific dining car'
p3265
sg2
(Vhttp://www.okkam.org/oaie/restaurant2-restaurant252
tRp3266
S'orleans'
p3267
sg2
(Vhttp://www.okkam.org/oaie/restaurant2-restaurant251
tRp3268
S'ocean avenue'
p3269
sg2
(Vhttp://www.okkam.org/oaie/restaurant2-restaurant250
tRp3270
S'nicola'
p3271
sg2
(Vhttp://www.okkam.org/oaie/restaurant2-restaurant257
tRp3272
S'prego'
p3273
sg2
(Vhttp://www.okkam.org/oaie/restaurant2-restaurant256
tRp3274
S'posto'
p3275
sg2
(Vhttp://www.okkam.org/oaie/restaurant2-restaurant255
tRp3276
S'pinot hollywood'
p3277
sg2
(Vhttp://www.okkam.org/oaie/restaurant2-restaurant254
tRp3278
S"paty's"
p3279
sg2
(Vhttp://www.okkam.org/oaie/restaurant2-restaurant259
tRp3280
S'remi'
p3281
sg2
(Vhttp://www.okkam.org/oaie/restaurant2-restaurant258
tRp3282
S"rj's the rib joint"
p3283
sg2
(Vhttp://www.okkam.org/oaie/restaurant1-City46
tRp3284
S'new york'
p3285
sg2
(Vhttp://www.okkam.org/oaie/restaurant1-City47
tRp3286
S'new york'
p3287
sg2
(Vhttp://www.okkam.org/oaie/restaurant1-City44
tRp3288
S'new york'
p3289
sg2
(Vhttp://www.okkam.org/oaie/restaurant1-City45
tRp3290
S'new york'
p3291
sg2
(Vhttp://www.okkam.org/oaie/restaurant1-City42
tRp3292
S'new york'
p3293
sg2
(Vhttp://www.okkam.org/oaie/restaurant1-City43
tRp3294
S'new york'
p3295
sg2
(Vhttp://www.okkam.org/oaie/restaurant1-City40
tRp3296
S'new york'
p3297
sg2
(Vhttp://www.okkam.org/oaie/restaurant1-City41
tRp3298
S'new york'
p3299
sg2
(Vhttp://www.okkam.org/oaie/restaurant1-City48
tRp3300
S'new york'
p3301
sg2
(Vhttp://www.okkam.org/oaie/restaurant1-City49
tRp3302
S'new york'
p3303
sg2
(Vhttp://www.okkam.org/oaie/restaurant2-Restaurant341
tRp3304
S"sammy's roumanian steak house"
p3305
sg2
(Vhttp://www.okkam.org/oaie/restaurant2-Restaurant340
tRp3306
S"sal anthony's"
p3307
sg2
(Vhttp://www.okkam.org/oaie/restaurant2-Restaurant343
tRp3308
S'sant ambroeus'
p3309
sg2
(Vhttp://www.okkam.org/oaie/restaurant2-Restaurant342
tRp3310
S'san pietro'
p3311
sg2
(Vhttp://www.okkam.org/oaie/restaurant2-Restaurant345
tRp3312
S'sea grill'
p3313
sg2
(Vhttp://www.okkam.org/oaie/restaurant2-Restaurant344
tRp3314
S"sarabeth's kitchen"
p3315
sg2
(Vhttp://www.okkam.org/oaie/restaurant2-Restaurant347
tRp3316
S'seventh regiment mess and bar'
p3317
sg2
(Vhttp://www.okkam.org/oaie/restaurant2-Restaurant346
tRp3318
S'serendipity'
p3319
sg2
(Vhttp://www.okkam.org/oaie/restaurant2-Restaurant349
tRp3320
S'shaan'
p3321
sg2
(Vhttp://www.okkam.org/oaie/restaurant2-Restaurant348
tRp3322
S'sfuzzi'
p3323
sg2
(Vhttp://www.okkam.org/oaie/restaurant2-Restaurant745
tRp3324
S'slanted door'
p3325
sg2
(Vhttp://www.okkam.org/oaie/restaurant2-Restaurant744
tRp3326
S'san francisco bbq'
p3327
sg2
(Vhttp://www.okkam.org/oaie/restaurant2-Restaurant747
tRp3328
S'thep phanom'
p3329
sg2
(Vhttp://www.okkam.org/oaie/restaurant2-Restaurant746
tRp3330
S'swan oyster depot'
p3331
sg2
(Vhttp://www.okkam.org/oaie/restaurant2-Restaurant741
tRp3332
S'phnom penh cambodian restaurant'
p3333
sg2
(Vhttp://www.okkam.org/oaie/restaurant2-Restaurant740
tRp3334
S"mo's burgers"
p3335
sg2
(Vhttp://www.okkam.org/oaie/restaurant2-Restaurant743
tRp3336
S"sally's cafe & bakery"
p3337
sg2
(Vhttp://www.okkam.org/oaie/restaurant2-Restaurant742
tRp3338
S'roosevelt tamale parlor'
p3339
sg2
(Vhttp://www.okkam.org/oaie/restaurant2-Restaurant749
tRp3340
S'trio cafe'
p3341
sg2
(Vhttp://www.okkam.org/oaie/restaurant2-Restaurant748
tRp3342
S'ti couz'
p3343
sg2
(Vhttp://www.okkam.org/oaie/restaurant2-Restaurant589
tRp3344
S"rae's"
p3345
sg2
(Vhttp://www.okkam.org/oaie/restaurant2-Restaurant588
tRp3346
S'r-23'
p3347
sg2
(Vhttp://www.okkam.org/oaie/restaurant2-Restaurant583
tRp3348
S'original pantry bakery'
p3349
sg2
(Vhttp://www.okkam.org/oaie/restaurant2-Restaurant582
tRp3350
S'ocean star'
p3351
sg2
(Vhttp://www.okkam.org/oaie/restaurant2-Restaurant581
tRp3352
S'ocean park cafe'
p3353
sg2
(Vhttp://www.okkam.org/oaie/restaurant2-Restaurant580
tRp3354
S'mulberry st.'
p3355
sg2
(Vhttp://www.okkam.org/oaie/restaurant2-Restaurant587
tRp3356
S'poquito mas'
p3357
sg2
(Vhttp://www.okkam.org/oaie/restaurant2-Restaurant586
tRp3358
S"pink's famous chili dogs"
p3359
sg2
(Vhttp://www.okkam.org/oaie/restaurant2-Restaurant585
tRp3360
S'pho hoa'
p3361
sg2
(Vhttp://www.okkam.org/oaie/restaurant2-Restaurant584
tRp3362
S'parkway grill'
p3363
sg2
(Vhttp://www.okkam.org/oaie/restaurant1-Restaurant68
tRp3364
S'coyote cafe'
p3365
sg2
(Vhttp://www.okkam.org/oaie/restaurant1-Restaurant69
tRp3366
S'le montrachet'
p3367
sg2
(Vhttp://www.okkam.org/oaie/restaurant1-Restaurant62
tRp3368
S'smith & wollensky'
p3369
sg2
(Vhttp://www.okkam.org/oaie/restaurant1-Restaurant63
tRp3370
S'tavern on the green'
p3371
sg2
(Vhttp://www.okkam.org/oaie/restaurant1-Restaurant60
tRp3372
S'shun lee west'
p3373
sg2
(Vhttp://www.okkam.org/oaie/restaurant1-Restaurant61
tRp3374
S'sign of the dove'
p3375
sg2
(Vhttp://www.okkam.org/oaie/restaurant1-Restaurant66
tRp3376
S"virgil's"
p3377
sg2
(Vhttp://www.okkam.org/oaie/restaurant1-Restaurant67
tRp3378
S"chin's"
p3379
sg2
(Vhttp://www.okkam.org/oaie/restaurant1-Restaurant64
tRp3380
S"uncle nick's"
p3381
sg2
(Vhttp://www.okkam.org/oaie/restaurant1-Restaurant65
tRp3382
S'union square cafe'
p3383
sg2
(Vhttp://www.okkam.org/oaie/restaurant2-Category199
tRp3384
S'coffee bar'
p3385
sg2
(Vhttp://www.okkam.org/oaie/restaurant2-Category198
tRp3386
S'french'
p3387
sg2
(Vhttp://www.okkam.org/oaie/restaurant2-Category449
tRp3388
S'only in las vegas'
p3389
sg2
(Vhttp://www.okkam.org/oaie/restaurant2-Category448
tRp3390
S'coffee shops/diners'
p3391
sg2
(Vhttp://www.okkam.org/oaie/restaurant2-Category195
tRp3392
S'italian'
p3393
sg2
(Vhttp://www.okkam.org/oaie/restaurant2-Category194
tRp3394
S'american'
p3395
sg2
(Vhttp://www.okkam.org/oaie/restaurant2-Category445
tRp3396
S'coffee shops/diners'
p3397
sg2
(Vhttp://www.okkam.org/oaie/restaurant2-Category196
tRp3398
S'american'
p3399
sg2
(Vhttp://www.okkam.org/oaie/restaurant2-Category443
tRp3400
S'asian'
p3401
sg2
(Vhttp://www.okkam.org/oaie/restaurant2-Category442
tRp3402
S'asian'
p3403
sg2
(Vhttp://www.okkam.org/oaie/restaurant2-Category441
tRp3404
S'steak houses'
p3405
sg2
(Vhttp://www.okkam.org/oaie/restaurant2-Category192
tRp3406
S'asian'
p3407
sg2
(Vhttp://www.okkam.org/oaie/restaurant2-Category223
tRp3408
S'coffee bar'
p3409
sg2
(Vhttp://www.okkam.org/oaie/restaurant2-Category222
tRp3410
S'coffee bar'
p3411
sg2
(Vhttp://www.okkam.org/oaie/restaurant2-Category221
tRp3412
S'italian'
p3413
sg2
(Vhttp://www.okkam.org/oaie/restaurant2-Category220
tRp3414
S'french'
p3415
sg2
(Vhttp://www.okkam.org/oaie/restaurant2-Category227
tRp3416
S'italian'
p3417
sg2
(Vhttp://www.okkam.org/oaie/restaurant2-Category226
tRp3418
S'coffee bar'
p3419
sg2
(Vhttp://www.okkam.org/oaie/restaurant2-Category225
tRp3420
S'italian'
p3421
sg2
(Vhttp://www.okkam.org/oaie/restaurant2-Category224
tRp3422
S'coffee bar'
p3423
sg2
(Vhttp://www.okkam.org/oaie/restaurant2-Category229
tRp3424
S'seafood'
p3425
sg2
(Vhttp://www.okkam.org/oaie/restaurant2-Category228
tRp3426
S'french'
p3427
sg2
(Vhttp://www.okkam.org/oaie/restaurant1-Restaurant35
tRp3428
S'gotham bar & grill'
p3429
sg2
(Vhttp://www.okkam.org/oaie/restaurant1-Restaurant34
tRp3430
S'four seasons grill room'
p3431
sg2
(Vhttp://www.okkam.org/oaie/restaurant2-Restaurant43
tRp3432
S'lespinasse (new york city)'
p3433
sg2
(Vhttp://www.okkam.org/oaie/restaurant1-Restaurant36
tRp3434
S'gramercy tavern'
p3435
sg2
(Vhttp://www.okkam.org/oaie/restaurant1-Restaurant31
tRp3436
S'daniel'
p3437
sg2
(Vhttp://www.okkam.org/oaie/restaurant1-Restaurant30
tRp3438
S'chanterelle'
p3439
sg2
(Vhttp://www.okkam.org/oaie/restaurant2-Category537
tRp3440
S'pacific new wave'
p3441
sg2
(Vhttp://www.okkam.org/oaie/restaurant2-Category536
tRp3442
S'mexican'
p3443
sg2
(Vhttp://www.okkam.org/oaie/restaurant2-Category535
tRp3444
S'noodle shops'
p3445
sg2
(Vhttp://www.okkam.org/oaie/restaurant2-Category534
tRp3446
S'american'
p3447
sg2
(Vhttp://www.okkam.org/oaie/restaurant2-Category532
tRp3448
S'mediterranean'
p3449
sg2
(Vhttp://www.okkam.org/oaie/restaurant2-Category531
tRp3450
S'mexican/latin american/spanish'
p3451
sg2
(Vhttp://www.okkam.org/oaie/restaurant2-Category530
tRp3452
S'french'
p3453
sg2
(Vhttp://www.okkam.org/oaie/restaurant2-Restaurant46
tRp3454
S'march'
p3455
sg2
(Vhttp://www.okkam.org/oaie/restaurant2-Category539
tRp3456
S'continental'
p3457
sg2
(Vhttp://www.okkam.org/oaie/restaurant2-Category538
tRp3458
S'fast food'
p3459
sg2
(Vhttp://www.okkam.org/oaie/restaurant2-Restaurant375
tRp3460
S'west'
p3461
s.