(lp1
I11
aI20
aI28
aI43
aI45
aI49
aI66
aI76
aI77
aI84
aI90
aI103
aI131
aI132
aI135
aI150
aI168
aI172
aI181
aI191
aI192
aI200
aI225
aI235
aI253
aI263
aI283
aI284
aI294
aI302
aI334
aI337
aI338
aI339
aI348
aI364
aI368
aI386
aI388
aI391
aI406
aI415
aI444
aI453
aI462
aI469
aI471
aI473
aI487
aI501
aI508
aI515
aI517
aI534
aI545
aI549
aI579
aI598
aI600
aI644
aI648
aI651
aI674
aI686
aI691
aI695
aI697
aI713
aI714
aI741
aI751
aI753
aI764
aI766
aI786
aI802
aI821
aI828
aI862
aI881
aI883
aI888
aI902
aI927
aI939
aI949
aI953
aI992
aI1003
aI1030
aI1033
aI1047
aI1051
aI1062
aI1080
aI1112
aI1113
aI1146
aI1168
aI1194
aI1219
aI1220
aI1225
aI1228
aI1229
aI1231
aI1238
aI1245
aI1254
aI1259
aI1270
aI1286
aI1297
aI1311
aI1322
aI1327
aI1329
aI1365
aI1373
aI1386
aI1394
aI1398
aI1399
aI1401
aI1403
aI1404
aI1407
aI1438
aI1453
aI1455
aI1465
aI1469
aI1471
aI1481
aI1482
aI1489
aI1514
aI1522
aI1551
aI1557
aI1566
aI1601
aI1609
aI1617
aI1637
aI1678
aI1727
aI1728
aI1731
aI1742
aI1759
aI1763
aI1772
aI1781
aI1784
aI1820
aI1827
aI1829
aI1853
aI1865
aI1892
aI1897
aI1900
aI1962
aI1966
aI2041
aI2066
aI2078
aI2081
aI2127
aI2142
aI2166
aI2176
aI2195
aI2201
aI2237
aI2250
aI2258
aI2259
aI2323
aI2370
aI2402
aI2408
aI2411
aI2433
aI2437
aI2447
aI2465
aI2482
aI2497
aI2499
aI2565
aI2583
aI2597
aI2629
aI2636
aI2648
aI2668
aI2686
aI2690
aI2713
aI2780
aI2782
aI2800
aI2804
aI2805
aI2816
aI2829
aI2849
aI2885
aI2921
aI2922
aI2945
aI2950
aI2997
aI3016
aI3035
aI3052
aI3061
aI3064
aI3067
aI3086
aI3133
aI3146
aI3157
aI3158
aI3166
a.