(dp1
S'<pad>'
p2
I0
sV!
I44
sV 
I11
sV'
I40
sV&
I43
sV(
I33
sV-
I15
sV/
I25
sV.
I35
sV1
I14
sV0
I17
sV3
I26
sV2
I24
sV5
I18
sV4
I37
sV7
I27
sV6
I19
sV9
I16
sV8
I13
sVa
I8
sVc
I1
sVb
I20
sVe
I5
sVd
I22
sS'g'
I39
sVf
I32
sVi
I3
sVh
I2
sVk
I31
sVj
I41
sVm
I34
sVl
I7
sVo
I30
sVn
I4
sS'q'
I42
sVp
I28
sVs
I6
sVr
I12
sVu
I36
sVt
I9
sVw
I29
sS'v'
I38
sVy
I21
sVx
I23
sVz
I10
s.