(lp1
crdflib.term
URIRef
p2
(Vhttp://www.okkam.org/oaie/restaurant1-Restaurant89
tRp3
ag2
(Vhttp://www.okkam.org/oaie/restaurant1-Restaurant57
tRp4
ag2
(Vhttp://www.okkam.org/oaie/restaurant1-Address57
tRp5
ag2
(Vhttp://www.okkam.org/oaie/restaurant1-City57
tRp6
acrdflib.term
Literal
p7
(V240 central park s
NNtRp8
ag2
(Vhttp://www.okkam.org/oaie/restaurant1-Address14
tRp9
ag2
(Vhttp://www.okkam.org/oaie/restaurant1-Restaurant87
tRp10
ag2
(Vhttp://www.okkam.org/oaie/restaurant1-Restaurant58
tRp11
ag2
(Vhttp://www.okkam.org/oaie/restaurant1-Restaurant61
tRp12
ag2
(Vhttp://www.okkam.org/oaie/restaurant1-Address61
tRp13
ag7
(V1110 3rd ave. at 65th st.
NNtRp14
ag2
(Vhttp://www.okkam.org/oaie/restaurant1-City61
tRp15
ag2
(Vhttp://www.okkam.org/oaie/restaurant1-Address70
tRp16
ag2
(Vhttp://www.okkam.org/oaie/restaurant1-City70
tRp17
ag2
(Vhttp://www.okkam.org/oaie/restaurant1-City9
tRp18
ag2
(Vhttp://www.okkam.org/oaie/restaurant1-Restaurant103
tRp19
ag2
(Vhttp://www.okkam.org/oaie/restaurant1-Address103
tRp20
ag2
(Vhttp://www.okkam.org/oaie/restaurant1-City103
tRp21
ag7
(V5937 geary blvd.
NNtRp22
ag2
(Vhttp://www.okkam.org/oaie/restaurant1-Restaurant84
tRp23
ag2
(Vhttp://www.okkam.org/oaie/restaurant1-Address84
tRp24
ag2
(Vhttp://www.okkam.org/oaie/restaurant1-City84
tRp25
ag7
(V1397 n. highland ave.
NNtRp26
ag2
(Vhttp://www.okkam.org/oaie/restaurant1-Restaurant74
tRp27
ag2
(Vhttp://www.okkam.org/oaie/restaurant1-Restaurant17
tRp28
ag2
(Vhttp://www.okkam.org/oaie/restaurant1-Restaurant25
tRp29
ag2
(Vhttp://www.okkam.org/oaie/restaurant1-Restaurant64
tRp30
ag2
(Vhttp://www.okkam.org/oaie/restaurant1-Address88
tRp31
ag2
(Vhttp://www.okkam.org/oaie/restaurant1-Address17
tRp32
ag2
(Vhttp://www.okkam.org/oaie/restaurant1-City17
tRp33
ag2
(Vhttp://www.okkam.org/oaie/restaurant1-Address9
tRp34
ag2
(Vhttp://www.okkam.org/oaie/restaurant1-Restaurant19
tRp35
ag2
(Vhttp://www.okkam.org/oaie/restaurant1-Restaurant112
tRp36
ag2
(Vhttp://www.okkam.org/oaie/restaurant1-Restaurant110
tRp37
ag2
(Vhttp://www.okkam.org/oaie/restaurant1-Address24
tRp38
ag2
(Vhttp://www.okkam.org/oaie/restaurant1-City24
tRp39
ag2
(Vhttp://www.okkam.org/oaie/restaurant1-Restaurant15
tRp40
ag2
(Vhttp://www.okkam.org/oaie/restaurant1-City45
tRp41
ag2
(Vhttp://www.okkam.org/oaie/restaurant1-Restaurant68
tRp42
ag2
(Vhttp://www.okkam.org/oaie/restaurant1-Address68
tRp43
ag7
(V3799 las vegas blvd. s
NNtRp44
ag2
(Vhttp://www.okkam.org/oaie/restaurant1-City68
tRp45
ag2
(Vhttp://www.okkam.org/oaie/restaurant1-Restaurant14
tRp46
ag2
(Vhttp://www.okkam.org/oaie/restaurant1-Restaurant109
tRp47
ag2
(Vhttp://www.okkam.org/oaie/restaurant1-Restaurant67
tRp48
ag2
(Vhttp://www.okkam.org/oaie/restaurant1-Restaurant70
tRp49
ag17
ag7
(V3570 las vegas blvd. s
NNtRp50
ag2
(Vhttp://www.okkam.org/oaie/restaurant1-Restaurant78
tRp51
ag2
(Vhttp://www.okkam.org/oaie/restaurant1-Address78
tRp52
ag2
(Vhttp://www.okkam.org/oaie/restaurant1-City78
tRp53
ag7
(V3073 piedmont road
NNtRp54
ag2
(Vhttp://www.okkam.org/oaie/restaurant1-Restaurant5
tRp55
ag2
(Vhttp://www.okkam.org/oaie/restaurant1-Address60
tRp56
ag2
(Vhttp://www.okkam.org/oaie/restaurant1-City60
tRp57
ag2
(Vhttp://www.okkam.org/oaie/restaurant1-Address19
tRp58
ag2
(Vhttp://www.okkam.org/oaie/restaurant1-Restaurant65
tRp59
ag2
(Vhttp://www.okkam.org/oaie/restaurant1-City66
tRp60
ag2
(Vhttp://www.okkam.org/oaie/restaurant1-City88
tRp61
ag2
(Vhttp://www.okkam.org/oaie/restaurant1-Restaurant26
tRp62
ag2
(Vhttp://www.okkam.org/oaie/restaurant1-Restaurant22
tRp63
ag2
(Vhttp://www.okkam.org/oaie/restaurant1-Address51
tRp64
ag2
(Vhttp://www.okkam.org/oaie/restaurant1-Restaurant2
tRp65
ag2
(Vhttp://www.okkam.org/oaie/restaurant1-Restaurant54
tRp66
ag2
(Vhttp://www.okkam.org/oaie/restaurant1-Restaurant36
tRp67
ag2
(Vhttp://www.okkam.org/oaie/restaurant1-Address43
tRp68
ag2
(Vhttp://www.okkam.org/oaie/restaurant1-City43
tRp69
ag2
(Vhttp://www.okkam.org/oaie/restaurant1-Restaurant63
tRp70
ag2
(Vhttp://www.okkam.org/oaie/restaurant1-Restaurant48
tRp71
ag2
(Vhttp://www.okkam.org/oaie/restaurant1-Address58
tRp72
ag2
(Vhttp://www.okkam.org/oaie/restaurant1-City58
tRp73
ag7
(V156 2nd ave. at 10th st.
NNtRp74
ag2
(Vhttp://www.okkam.org/oaie/restaurant1-City96
tRp75
ag2
(Vhttp://www.okkam.org/oaie/restaurant1-Restaurant80
tRp76
ag2
(Vhttp://www.okkam.org/oaie/restaurant1-Address92
tRp77
ag2
(Vhttp://www.okkam.org/oaie/restaurant1-Restaurant40
tRp78
ag2
(Vhttp://www.okkam.org/oaie/restaurant1-City52
tRp79
ag2
(Vhttp://www.okkam.org/oaie/restaurant1-Address4
tRp80
ag2
(Vhttp://www.okkam.org/oaie/restaurant1-Restaurant94
tRp81
ag2
(Vhttp://www.okkam.org/oaie/restaurant1-Address94
tRp82
ag2
(Vhttp://www.okkam.org/oaie/restaurant1-City94
tRp83
ag7
(V126 clement st.
NNtRp84
ag2
(Vhttp://www.okkam.org/oaie/restaurant1-Address107
tRp85
ag2
(Vhttp://www.okkam.org/oaie/restaurant1-Restaurant4
tRp86
ag2
(Vhttp://www.okkam.org/oaie/restaurant1-Address96
tRp87
ag2
(Vhttp://www.okkam.org/oaie/restaurant1-Address35
tRp88
ag2
(Vhttp://www.okkam.org/oaie/restaurant1-Address100
tRp89
ag2
(Vhttp://www.okkam.org/oaie/restaurant1-City100
tRp90
ag2
(Vhttp://www.okkam.org/oaie/restaurant1-Restaurant27
tRp91
ag2
(Vhttp://www.okkam.org/oaie/restaurant1-Address63
tRp92
ag2
(Vhttp://www.okkam.org/oaie/restaurant1-Restaurant56
tRp93
ag2
(Vhttp://www.okkam.org/oaie/restaurant1-Restaurant34
tRp94
ag2
(Vhttp://www.okkam.org/oaie/restaurant1-Address67
tRp95
ag2
(Vhttp://www.okkam.org/oaie/restaurant1-City110
tRp96
ag2
(Vhttp://www.okkam.org/oaie/restaurant1-Address54
tRp97
ag2
(Vhttp://www.okkam.org/oaie/restaurant1-Address110
tRp98
ag96
ag7
(V600 stockton st.
NNtRp99
ag2
(Vhttp://www.okkam.org/oaie/restaurant1-Address7
tRp100
ag2
(Vhttp://www.okkam.org/oaie/restaurant1-Address101
tRp101
ag2
(Vhttp://www.okkam.org/oaie/restaurant1-Restaurant98
tRp102
ag2
(Vhttp://www.okkam.org/oaie/restaurant1-Address83
tRp103
ag2
(Vhttp://www.okkam.org/oaie/restaurant1-Restaurant41
tRp104
ag2
(Vhttp://www.okkam.org/oaie/restaurant1-Restaurant107
tRp105
ag2
(Vhttp://www.okkam.org/oaie/restaurant1-Address39
tRp106
ag2
(Vhttp://www.okkam.org/oaie/restaurant1-City39
tRp107
ag2
(Vhttp://www.okkam.org/oaie/restaurant1-Restaurant28
tRp108
ag2
(Vhttp://www.okkam.org/oaie/restaurant1-Restaurant95
tRp109
ag2
(Vhttp://www.okkam.org/oaie/restaurant1-Restaurant106
tRp110
ag2
(Vhttp://www.okkam.org/oaie/restaurant1-Address44
tRp111
ag2
(Vhttp://www.okkam.org/oaie/restaurant1-City44
tRp112
ag2
(Vhttp://www.okkam.org/oaie/restaurant1-Address21
tRp113
ag2
(Vhttp://www.okkam.org/oaie/restaurant1-City21
tRp114
ag2
(Vhttp://www.okkam.org/oaie/restaurant1-Restaurant18
tRp115
ag2
(Vhttp://www.okkam.org/oaie/restaurant1-Address55
tRp116
ag2
(Vhttp://www.okkam.org/oaie/restaurant1-City55
tRp117
ag2
(Vhttp://www.okkam.org/oaie/restaurant1-City33
tRp118
ag2
(Vhttp://www.okkam.org/oaie/restaurant1-Address99
tRp119
ag2
(Vhttp://www.okkam.org/oaie/restaurant1-City99
tRp120
ag2
(Vhttp://www.okkam.org/oaie/restaurant1-City36
tRp121
ag2
(Vhttp://www.okkam.org/oaie/restaurant1-Address41
tRp122
ag2
(Vhttp://www.okkam.org/oaie/restaurant1-Restaurant100
tRp123
ag90
ag7
(V777 sutter st.
NNtRp124
ag2
(Vhttp://www.okkam.org/oaie/restaurant1-Restaurant96
tRp125
ag2
(Vhttp://www.okkam.org/oaie/restaurant1-Restaurant75
tRp126
ag2
(Vhttp://www.okkam.org/oaie/restaurant1-City18
tRp127
ag2
(Vhttp://www.okkam.org/oaie/restaurant1-City65
tRp128
ag2
(Vhttp://www.okkam.org/oaie/restaurant1-Address56
tRp129
ag2
(Vhttp://www.okkam.org/oaie/restaurant1-City82
tRp130
ag2
(Vhttp://www.okkam.org/oaie/restaurant1-City41
tRp131
ag2
(Vhttp://www.okkam.org/oaie/restaurant1-City76
tRp132
ag2
(Vhttp://www.okkam.org/oaie/restaurant1-City7
tRp133
ag2
(Vhttp://www.okkam.org/oaie/restaurant1-Address73
tRp134
ag2
(Vhttp://www.okkam.org/oaie/restaurant1-City73
tRp135
ag2
(Vhttp://www.okkam.org/oaie/restaurant1-Restaurant10
tRp136
ag2
(Vhttp://www.okkam.org/oaie/restaurant1-Restaurant47
tRp137
ag2
(Vhttp://www.okkam.org/oaie/restaurant1-Restaurant55
tRp138
ag2
(Vhttp://www.okkam.org/oaie/restaurant1-Address23
tRp139
ag2
(Vhttp://www.okkam.org/oaie/restaurant1-City23
tRp140
ag2
(Vhttp://www.okkam.org/oaie/restaurant1-Address18
tRp141
ag2
(Vhttp://www.okkam.org/oaie/restaurant1-Restaurant62
tRp142
ag2
(Vhttp://www.okkam.org/oaie/restaurant1-Restaurant85
tRp143
ag2
(Vhttp://www.okkam.org/oaie/restaurant1-Address85
tRp144
ag7
(V2637 peachtree rd.  peachtree house condominium
NNtRp145
ag2
(Vhttp://www.okkam.org/oaie/restaurant1-City85
tRp146
ag2
(Vhttp://www.okkam.org/oaie/restaurant1-Address87
tRp147
ag7
(V255 courtland st.  at harris st.
NNtRp148
ag2
(Vhttp://www.okkam.org/oaie/restaurant1-City87
tRp149
ag2
(Vhttp://www.okkam.org/oaie/restaurant1-Address11
tRp150
ag2
(Vhttp://www.okkam.org/oaie/restaurant1-Address25
tRp151
ag2
(Vhttp://www.okkam.org/oaie/restaurant1-City25
tRp152
ag7
(V34 e. 61st st.
NNtRp153
ag2
(Vhttp://www.okkam.org/oaie/restaurant1-Address109
tRp154
ag2
(Vhttp://www.okkam.org/oaie/restaurant1-Restaurant43
tRp155
ag2
(Vhttp://www.okkam.org/oaie/restaurant1-Address52
tRp156
ag2
(Vhttp://www.okkam.org/oaie/restaurant1-Address42
tRp157
ag2
(Vhttp://www.okkam.org/oaie/restaurant1-Address98
tRp158
ag2
(Vhttp://www.okkam.org/oaie/restaurant1-City98
tRp159
ag2
(Vhttp://www.okkam.org/oaie/restaurant1-Restaurant66
tRp160
ag2
(Vhttp://www.okkam.org/oaie/restaurant1-Restaurant45
tRp161
ag2
(Vhttp://www.okkam.org/oaie/restaurant1-City12
tRp162
ag2
(Vhttp://www.okkam.org/oaie/restaurant1-Restaurant72
tRp163
ag2
(Vhttp://www.okkam.org/oaie/restaurant1-Address72
tRp164
ag7
(V2880 las vegas blvd. s
NNtRp165
ag2
(Vhttp://www.okkam.org/oaie/restaurant1-City72
tRp166
ag2
(Vhttp://www.okkam.org/oaie/restaurant1-Address102
tRp167
ag2
(Vhttp://www.okkam.org/oaie/restaurant1-Address30
tRp168
ag2
(Vhttp://www.okkam.org/oaie/restaurant1-Restaurant46
tRp169
ag2
(Vhttp://www.okkam.org/oaie/restaurant1-Address46
tRp170
ag2
(Vhttp://www.okkam.org/oaie/restaurant1-City46
tRp171
ag7
(V405 e. 58th st.
NNtRp172
ag2
(Vhttp://www.okkam.org/oaie/restaurant1-Restaurant59
tRp173
ag2
(Vhttp://www.okkam.org/oaie/restaurant1-Address93
tRp174
ag2
(Vhttp://www.okkam.org/oaie/restaurant1-Restaurant76
tRp175
ag2
(Vhttp://www.okkam.org/oaie/restaurant1-Address40
tRp176
ag2
(Vhttp://www.okkam.org/oaie/restaurant1-City40
tRp177
ag7
(V60 w. 55th st.  between 5th and 6th ave.
NNtRp178
ag2
(Vhttp://www.okkam.org/oaie/restaurant1-Address50
tRp179
ag2
(Vhttp://www.okkam.org/oaie/restaurant1-Address53
tRp180
ag2
(Vhttp://www.okkam.org/oaie/restaurant1-Address29
tRp181
ag2
(Vhttp://www.okkam.org/oaie/restaurant1-City29
tRp182
ag2
(Vhttp://www.okkam.org/oaie/restaurant1-Address105
tRp183
ag2
(Vhttp://www.okkam.org/oaie/restaurant1-Address6
tRp184
ag2
(Vhttp://www.okkam.org/oaie/restaurant1-City6
tRp185
ag2
(Vhttp://www.okkam.org/oaie/restaurant1-Restaurant42
tRp186
ag2
(Vhttp://www.okkam.org/oaie/restaurant1-City42
tRp187
ag7
(V160 central park s
NNtRp188
ag2
(Vhttp://www.okkam.org/oaie/restaurant1-Address34
tRp189
ag2
(Vhttp://www.okkam.org/oaie/restaurant1-City34
tRp190
ag2
(Vhttp://www.okkam.org/oaie/restaurant1-Restaurant50
tRp191
ag2
(Vhttp://www.okkam.org/oaie/restaurant1-Restaurant104
tRp192
ag2
(Vhttp://www.okkam.org/oaie/restaurant1-Restaurant29
tRp193
ag2
(Vhttp://www.okkam.org/oaie/restaurant1-City32
tRp194
ag2
(Vhttp://www.okkam.org/oaie/restaurant1-Address32
tRp195
ag2
(Vhttp://www.okkam.org/oaie/restaurant1-Restaurant21
tRp196
ag2
(Vhttp://www.okkam.org/oaie/restaurant1-Address59
tRp197
ag2
(Vhttp://www.okkam.org/oaie/restaurant1-City59
tRp198
ag2
(Vhttp://www.okkam.org/oaie/restaurant1-Restaurant111
tRp199
ag2
(Vhttp://www.okkam.org/oaie/restaurant1-Restaurant105
tRp200
ag2
(Vhttp://www.okkam.org/oaie/restaurant1-Restaurant73
tRp201
ag2
(Vhttp://www.okkam.org/oaie/restaurant1-Restaurant24
tRp202
ag2
(Vhttp://www.okkam.org/oaie/restaurant1-Restaurant83
tRp203
ag2
(Vhttp://www.okkam.org/oaie/restaurant1-Restaurant20
tRp204
ag2
(Vhttp://www.okkam.org/oaie/restaurant1-Address91
tRp205
ag2
(Vhttp://www.okkam.org/oaie/restaurant1-Restaurant108
tRp206
ag2
(Vhttp://www.okkam.org/oaie/restaurant1-Address48
tRp207
ag2
(Vhttp://www.okkam.org/oaie/restaurant1-City48
tRp208
ag2
(Vhttp://www.okkam.org/oaie/restaurant1-City102
tRp209
ag7
(V624 s. la brea ave.
NNtRp210
ag2
(Vhttp://www.okkam.org/oaie/restaurant1-City4
tRp211
ag208
ag7
(V57 jane st.  off hudson st.
NNtRp212
ag2
(Vhttp://www.okkam.org/oaie/restaurant1-Restaurant49
tRp213
ag2
(Vhttp://www.okkam.org/oaie/restaurant1-Address49
tRp214
ag7
(V239 w. broadway  between walker and white sts.
NNtRp215
ag2
(Vhttp://www.okkam.org/oaie/restaurant1-City49
tRp216
ag2
(Vhttp://www.okkam.org/oaie/restaurant1-City22
tRp217
ag2
(Vhttp://www.okkam.org/oaie/restaurant1-Restaurant51
tRp218
ag2
(Vhttp://www.okkam.org/oaie/restaurant1-City97
tRp219
ag2
(Vhttp://www.okkam.org/oaie/restaurant1-Address71
tRp220
ag2
(Vhttp://www.okkam.org/oaie/restaurant1-City71
tRp221
ag2
(Vhttp://www.okkam.org/oaie/restaurant1-City30
tRp222
ag2
(Vhttp://www.okkam.org/oaie/restaurant1-Restaurant12
tRp223
ag2
(Vhttp://www.okkam.org/oaie/restaurant1-Address31
tRp224
ag2
(Vhttp://www.okkam.org/oaie/restaurant1-Restaurant52
tRp225
ag2
(Vhttp://www.okkam.org/oaie/restaurant1-City54
tRp226
ag2
(Vhttp://www.okkam.org/oaie/restaurant1-Restaurant7
tRp227
ag2
(Vhttp://www.okkam.org/oaie/restaurant1-Restaurant32
tRp228
ag2
(Vhttp://www.okkam.org/oaie/restaurant1-Address20
tRp229
ag2
(Vhttp://www.okkam.org/oaie/restaurant1-City20
tRp230
ag7
(V1114 horn ave.
NNtRp231
ag2
(Vhttp://www.okkam.org/oaie/restaurant1-Restaurant0
tRp232
ag2
(Vhttp://www.okkam.org/oaie/restaurant1-Address13
tRp233
ag2
(Vhttp://www.okkam.org/oaie/restaurant1-City13
tRp234
ag2
(Vhttp://www.okkam.org/oaie/restaurant1-Restaurant97
tRp235
ag2
(Vhttp://www.okkam.org/oaie/restaurant1-Address97
tRp236
ag219
ag7
(V7 claude la.
NNtRp237
ag2
(Vhttp://www.okkam.org/oaie/restaurant1-Address104
tRp238
ag2
(Vhttp://www.okkam.org/oaie/restaurant1-City104
tRp239
ag2
(Vhttp://www.okkam.org/oaie/restaurant1-Address76
tRp240
ag132
ag7
(V3130 piedmont road
NNtRp241
ag2
(Vhttp://www.okkam.org/oaie/restaurant1-Restaurant77
tRp242
ag2
(Vhttp://www.okkam.org/oaie/restaurant1-City101
tRp243
ag2
(Vhttp://www.okkam.org/oaie/restaurant1-Address28
tRp244
ag7
(V2450 broadway  between 90th and 91st sts.
NNtRp245
ag2
(Vhttp://www.okkam.org/oaie/restaurant1-City28
tRp246
ag2
(Vhttp://www.okkam.org/oaie/restaurant1-Restaurant39
tRp247
ag2
(Vhttp://www.okkam.org/oaie/restaurant1-City86
tRp248
ag2
(Vhttp://www.okkam.org/oaie/restaurant1-Restaurant82
tRp249
ag2
(Vhttp://www.okkam.org/oaie/restaurant1-Address82
tRp250
ag7
(V490 e. paces ferry rd.
NNtRp251
ag130
ag2
(Vhttp://www.okkam.org/oaie/restaurant1-Address64
tRp252
ag2
(Vhttp://www.okkam.org/oaie/restaurant1-City64
tRp253
ag7
(V747 9th ave.  between 50th and 51st sts.
NNtRp254
ag2
(Vhttp://www.okkam.org/oaie/restaurant1-Restaurant101
tRp255
ag2
(Vhttp://www.okkam.org/oaie/restaurant1-Restaurant13
tRp256
ag7
(V3rd st.
NNtRp257
ag234
ag2
(Vhttp://www.okkam.org/oaie/restaurant1-Restaurant86
tRp258
ag2
(Vhttp://www.okkam.org/oaie/restaurant1-Restaurant60
tRp259
ag2
(Vhttp://www.okkam.org/oaie/restaurant1-Restaurant79
tRp260
ag7
(V1 water st. at the east river
NNtRp261
ag2
(Vhttp://www.okkam.org/oaie/restaurant1-City56
tRp262
ag2
(Vhttp://www.okkam.org/oaie/restaurant1-City37
tRp263
ag2
(Vhttp://www.okkam.org/oaie/restaurant1-Address1
tRp264
ag2
(Vhttp://www.okkam.org/oaie/restaurant1-City1
tRp265
ag2
(Vhttp://www.okkam.org/oaie/restaurant1-City109
tRp266
ag2
(Vhttp://www.okkam.org/oaie/restaurant1-Address108
tRp267
ag2
(Vhttp://www.okkam.org/oaie/restaurant1-City108
tRp268
ag7
(V3201 fillmore st.
NNtRp269
ag2
(Vhttp://www.okkam.org/oaie/restaurant1-Restaurant6
tRp270
ag2
(Vhttp://www.okkam.org/oaie/restaurant1-Restaurant9
tRp271
ag18
ag7
(V9560 dayton way
NNtRp272
ag243
ag7
(V570 4th st.
NNtRp273
ag2
(Vhttp://www.okkam.org/oaie/restaurant1-City107
tRp274
ag185
ag7
(V6703 melrose ave.
NNtRp275
ag7
(V854 7th ave.  between 54th and 55th sts.
NNtRp276
ag182
ag2
(Vhttp://www.okkam.org/oaie/restaurant1-City53
tRp277
ag2
(Vhttp://www.okkam.org/oaie/restaurant1-Restaurant16
tRp278
ag2
(Vhttp://www.okkam.org/oaie/restaurant1-Restaurant92
tRp279
ag2
(Vhttp://www.okkam.org/oaie/restaurant1-Address5
tRp280
ag2
(Vhttp://www.okkam.org/oaie/restaurant1-City93
tRp281
ag2
(Vhttp://www.okkam.org/oaie/restaurant1-Restaurant69
tRp282
ag7
(V100 e. 63rd st.
NNtRp283
ag2
(Vhttp://www.okkam.org/oaie/restaurant1-City51
tRp284
ag2
(Vhttp://www.okkam.org/oaie/restaurant1-Restaurant81
tRp285
ag7
(V129 n. la cienega blvd.
NNtRp286
ag2
(Vhttp://www.okkam.org/oaie/restaurant1-City14
tRp287
ag2
(Vhttp://www.okkam.org/oaie/restaurant1-Address106
tRp288
ag2
(Vhttp://www.okkam.org/oaie/restaurant1-City106
tRp289
ag2
(Vhttp://www.okkam.org/oaie/restaurant1-Restaurant11
tRp290
ag2
(Vhttp://www.okkam.org/oaie/restaurant1-Address16
tRp291
ag2
(Vhttp://www.okkam.org/oaie/restaurant1-City16
tRp292
ag7
(V5955 melrose ave.
NNtRp293
ag2
(Vhttp://www.okkam.org/oaie/restaurant1-Address75
tRp294
ag7
(V3125 piedmont rd.  near peachtree rd.
NNtRp295
ag2
(Vhttp://www.okkam.org/oaie/restaurant1-City75
tRp296
ag2
(Vhttp://www.okkam.org/oaie/restaurant1-Restaurant44
tRp297
ag2
(Vhttp://www.okkam.org/oaie/restaurant1-City15
tRp298
ag2
(Vhttp://www.okkam.org/oaie/restaurant1-Address111
tRp299
ag2
(Vhttp://www.okkam.org/oaie/restaurant1-City111
tRp300
ag7
(V532 columbus ave.
NNtRp301
ag2
(Vhttp://www.okkam.org/oaie/restaurant1-Address22
tRp302
ag2
(Vhttp://www.okkam.org/oaie/restaurant1-Restaurant31
tRp303
ag2
(Vhttp://www.okkam.org/oaie/restaurant1-City95
tRp304
ag2
(Vhttp://www.okkam.org/oaie/restaurant1-Address27
tRp305
ag2
(Vhttp://www.okkam.org/oaie/restaurant1-City27
tRp306
ag2
(Vhttp://www.okkam.org/oaie/restaurant1-Restaurant30
tRp307
ag2
(Vhttp://www.okkam.org/oaie/restaurant1-Restaurant35
tRp308
ag7
(V12 e. 12th st.
NNtRp309
ag2
(Vhttp://www.okkam.org/oaie/restaurant1-City35
tRp310
ag7
(V648 bush st.
NNtRp311
ag289
ag2
(Vhttp://www.okkam.org/oaie/restaurant1-Restaurant93
tRp312
ag7
(V41 14th st.
NNtRp313
ag281
ag2
(Vhttp://www.okkam.org/oaie/restaurant1-Address3
tRp314
ag2
(Vhttp://www.okkam.org/oaie/restaurant1-Restaurant33
tRp315
ag2
(Vhttp://www.okkam.org/oaie/restaurant1-City80
tRp316
ag2
(Vhttp://www.okkam.org/oaie/restaurant1-Address47
tRp317
ag7
(V12969 ventura blvd.
NNtRp318
ag127
ag2
(Vhttp://www.okkam.org/oaie/restaurant1-Address65
tRp319
ag2
(Vhttp://www.okkam.org/oaie/restaurant1-Address79
tRp320
ag2
(Vhttp://www.okkam.org/oaie/restaurant1-City79
tRp321
ag7
(V249 e. 50th st.
NNtRp322
ag112
ag2
(Vhttp://www.okkam.org/oaie/restaurant1-City2
tRp323
ag2
(Vhttp://www.okkam.org/oaie/restaurant1-Address2
tRp324
ag2
(Vhttp://www.okkam.org/oaie/restaurant1-Address69
tRp325
ag7
(V30 rockefeller plaza
NNtRp326
ag117
ag33
ag7
(V1001 n. alameda st.
NNtRp327
ag2
(Vhttp://www.okkam.org/oaie/restaurant1-Address62
tRp328
ag2
(Vhttp://www.okkam.org/oaie/restaurant1-City62
tRp329
ag7
(V201 e. 49th st.
NNtRp330
ag2
(Vhttp://www.okkam.org/oaie/restaurant1-City69
tRp331
ag7
(V3000 w. paradise rd.
NNtRp332
ag2
(Vhttp://www.okkam.org/oaie/restaurant1-City31
tRp333
ag2
(Vhttp://www.okkam.org/oaie/restaurant1-Restaurant102
tRp334
ag7
(V1529 piedmont ave.
NNtRp335
ag321
ag2
(Vhttp://www.okkam.org/oaie/restaurant1-Restaurant1
tRp336
ag265
ag7
(V12224 ventura blvd.
NNtRp337
ag7
(V1 mission st.
NNtRp338
ag75
ag7
(V102 5th ave.  between 15th and 16th sts.
NNtRp339
ag2
(Vhttp://www.okkam.org/oaie/restaurant1-City47
tRp340
ag2
(Vhttp://www.okkam.org/oaie/restaurant1-City19
tRp341
ag2
(Vhttp://www.okkam.org/oaie/restaurant1-Address12
tRp342
ag7
(V8284 melrose ave.
NNtRp343
ag162
ag2
(Vhttp://www.okkam.org/oaie/restaurant1-Restaurant38
tRp344
ag2
(Vhttp://www.okkam.org/oaie/restaurant1-Address80
tRp345
ag2
(Vhttp://www.okkam.org/oaie/restaurant1-City92
tRp346
ag7
(Vb peachtree rd.
NNtRp347
ag2
(Vhttp://www.okkam.org/oaie/restaurant1-Address15
tRp348
ag2
(Vhttp://www.okkam.org/oaie/restaurant1-Address89
tRp349
ag7
(V3434 peachtree rd.
NNtRp350
ag2
(Vhttp://www.okkam.org/oaie/restaurant1-City89
tRp351
ag2
(Vhttp://www.okkam.org/oaie/restaurant1-Restaurant3
tRp352
ag7
(V617 s. olive st.
NNtRp353
ag341
ag2
(Vhttp://www.okkam.org/oaie/restaurant1-Address45
tRp354
ag2
(Vhttp://www.okkam.org/oaie/restaurant1-City38
tRp355
ag128
ag7
(V21 e. 16th st.
NNtRp356
ag333
ag7
(V20 e. 76th st.
NNtRp357
ag2
(Vhttp://www.okkam.org/oaie/restaurant1-Address74
tRp358
ag7
(V2355 peachtree rd.  peachtree battle shopping center
NNtRp359
ag2
(Vhttp://www.okkam.org/oaie/restaurant1-City74
tRp360
ag2
(Vhttp://www.okkam.org/oaie/restaurant1-Address86
tRp361
ag2
(Vhttp://www.okkam.org/oaie/restaurant1-Address0
tRp362
ag2
(Vhttp://www.okkam.org/oaie/restaurant1-City0
tRp363
ag2
(Vhttp://www.okkam.org/oaie/restaurant1-Address33
tRp364
ag2
(Vhttp://www.okkam.org/oaie/restaurant1-Restaurant88
tRp365
ag2
(Vhttp://www.okkam.org/oaie/restaurant1-Restaurant91
tRp366
ag2
(Vhttp://www.okkam.org/oaie/restaurant1-Address77
tRp367
ag2
(Vhttp://www.okkam.org/oaie/restaurant1-City77
tRp368
ag7
(V3393 peachtree rd.  lenox square mall  near neiman marcus
NNtRp369
ag2
(Vhttp://www.okkam.org/oaie/restaurant1-Restaurant53
tRp370
ag7
(V35 w. 64th st.
NNtRp371
ag277
ag2
(Vhttp://www.okkam.org/oaie/restaurant1-City5
tRp372
ag2
(Vhttp://www.okkam.org/oaie/restaurant1-Address90
tRp373
ag7
(V903 n. la cienega blvd.
NNtRp374
ag2
(Vhttp://www.okkam.org/oaie/restaurant1-City11
tRp375
ag2
(Vhttp://www.okkam.org/oaie/restaurant1-Address38
tRp376
ag323
ag7
(V701 stone canyon rd.
NNtRp377
ag2
(Vhttp://www.okkam.org/oaie/restaurant1-City3
tRp378
ag363
ag7
(V435 s. la cienega blv.
NNtRp379
ag7
(V2709 main st.
NNtRp380
ag372
ag7
(V95 ave. a at 6th st.
NNtRp381
ag226
ag2
(Vhttp://www.okkam.org/oaie/restaurant1-Address8
tRp382
ag2
(Vhttp://www.okkam.org/oaie/restaurant1-City8
tRp383
ag7
(V2 harrison st.  near hudson st.
NNtRp384
ag222
ag7
(V3200 las vegas blvd. s
NNtRp385
ag2
(Vhttp://www.okkam.org/oaie/restaurant1-City67
tRp386
ag7
(V1 w. 67th st.
NNtRp387
ag306
ag355
ag7
(V160 e. 64th st.
NNtRp388
ag2
(Vhttp://www.okkam.org/oaie/restaurant1-Address26
tRp389
ag2
(Vhttp://www.okkam.org/oaie/restaurant1-Restaurant23
tRp390
ag2
(Vhttp://www.okkam.org/oaie/restaurant1-Address10
tRp391
ag2
(Vhttp://www.okkam.org/oaie/restaurant1-City10
tRp392
ag2
(Vhttp://www.okkam.org/oaie/restaurant1-City26
tRp393
ag2
(Vhttp://www.okkam.org/oaie/restaurant1-Address95
tRp394
ag304
ag7
(V252 california st.
NNtRp395
ag2
(Vhttp://www.okkam.org/oaie/restaurant1-Address36
tRp396
ag7
(V42 e. 20th st.  between park ave. s and broadway
NNtRp397
ag121
ag266
ag7
(V545 post st.
NNtRp398
ag2
(Vhttp://www.okkam.org/oaie/restaurant1-Restaurant99
tRp399
ag120
ag7
(V804 northpoint
NNtRp400
ag7
(V816 folsom st.
NNtRp401
ag2
(Vhttp://www.okkam.org/oaie/restaurant1-City105
tRp402
ag7
(V182 w. 58th st.
NNtRp403
ag79
ag7
(V595 piedmont ave.  rio shopping mall
NNtRp404
ag2
(Vhttp://www.okkam.org/oaie/restaurant1-City83
tRp405
ag2
(Vhttp://www.okkam.org/oaie/restaurant1-Restaurant90
tRp406
ag198
ag7
(V11 e. 53rd st.
NNtRp407
ag2
(Vhttp://www.okkam.org/oaie/restaurant1-Restaurant37
tRp408
ag2
(Vhttp://www.okkam.org/oaie/restaurant1-City91
tRp409
ag7
(V181 peachtree st.
NNtRp410
ag2
(Vhttp://www.okkam.org/oaie/restaurant1-Restaurant8
tRp411
ag383
ag7
(V23725 w. malibu rd.
NNtRp412
ag2
(Vhttp://www.okkam.org/oaie/restaurant1-Address66
tRp413
ag2
(Vhttp://www.okkam.org/oaie/restaurant1-City63
tRp414
ag2
(Vhttp://www.okkam.org/oaie/restaurant1-City90
tRp415
ag107
ag7
(V33 w. 55th st.
NNtRp416
ag217
ag7
(V67 n. raymond ave.
NNtRp417
ag2
(Vhttp://www.okkam.org/oaie/restaurant1-Restaurant71
tRp418
ag7
(V3115 pico blvd.
NNtRp419
ag114
ag350
ag415
ag7
(V210 e. 58th st.
NNtRp420
ag194
ag2
(Vhttp://www.okkam.org/oaie/restaurant1-Address81
tRp421
ag2
(Vhttp://www.okkam.org/oaie/restaurant1-City81
tRp422
ag316
ag7
(V1 margaret mitchell sq.
NNtRp423
ag2
(Vhttp://www.okkam.org/oaie/restaurant1-City112
tRp424
ag2
(Vhttp://www.okkam.org/oaie/restaurant1-Address37
tRp425
ag2
(Vhttp://www.okkam.org/oaie/restaurant1-City50
tRp426
ag2
(Vhttp://www.okkam.org/oaie/restaurant1-Address112
tRp427
ag61
ag7
(V1232 w. paces ferry rd.
NNtRp428
ag7
(V402 w. 44th st.
NNtRp429
ag263
ag209
ag7
(V22 hawthorne st.
NNtRp430
ag7
(V224 ponce de leon ave.
NNtRp431
ag248
ag7
(V243 e. 58th st.
NNtRp432
ag118
ag298
ag7
(V9001 santa monica blvd.
NNtRp433
ag7
(V57 w. 58th st.
NNtRp434
ag41
ag393
ag7
(V201 w. 83rd st.
NNtRp435
ag414
ag7
(Vin central park at 67th st.
NNtRp436
ag7
(V2290 peachtree rd.  peachtree square shopping center
NNtRp437
ag422
ag7
(V14016 ventura blvd.
NNtRp438
ag378
ag7
(V2930 beverly glen circle
NNtRp439
ag424
ag221
ag7
(V200 e. fremont st.
NNtRp440
ag7
(V2245 e. flamingo rd.
NNtRp441
ag135
ag426
ag7
(V55 e. 54th st.
NNtRp442
ag7
(V152 w. 44th st.
NNtRp443
ag60
ag7
(V2316 polk st.
NNtRp444
ag239
ag39
ag7
(V13 w. 54th st.
NNtRp445
ag7
(V155 w. 51st st.
NNtRp446
ag131
ag7
(V43 w. 65th st.
NNtRp447
ag57
ag392
ag7
(V1972 n. hillhurst ave.
NNtRp448
ag140
ag7
(V21 w. 52nd st.
NNtRp449
ag7
(V1737 post st.
NNtRp450
ag274
ag159
ag7
(V340 stockton st.
NNtRp451
ag133
ag7
(V8358 sunset blvd. west
NNtRp452
ag69
ag7
(V2 e. 55th st.
NNtRp453
ag7
(V99 e. 52nd st.
NNtRp454
ag190
a.