(dp1
crdflib.term
URIRef
p2
(Vhttp://www.okkam.org/ontology_restaurant1.owl#has_address
tRp3
I4
sg2
(Vhttp://www.okkam.org/ontology_restaurant2.owl#city
tRp4
I3
sg2
(Vhttp://www.okkam.org/ontology_restaurant1.owl#street
tRp5
I5
sg2
(Vhttp://www.okkam.org/ontology_restaurant2.owl#has_category
tRp6
I8
sg2
(Vhttp://www.okkam.org/ontology_restaurant1.owl#is_in_city
tRp7
I7
sg2
(Vhttp://www.okkam.org/ontology_restaurant1.owl#category
tRp8
I6
sg2
(Vhttp://www.okkam.org/ontology_restaurant1.owl#phone_number
tRp9
I2
sg2
(Vhttp://www.okkam.org/ontology_restaurant1.owl#name
tRp10
I1
sS'<NONE>'
p11
I0
s.