(lp1
crdflib.term
URIRef
p2
(Vhttp://www.okkam.org/oaie/restaurant2-Category60
tRp3
ag2
(Vhttp://www.okkam.org/oaie/restaurant2-Restaurant283
tRp4
ag2
(Vhttp://www.okkam.org/oaie/restaurant2-Restaurant590
tRp5
ag2
(Vhttp://www.okkam.org/oaie/restaurant2-Address394
tRp6
ag2
(Vhttp://www.okkam.org/oaie/restaurant2-Restaurant545
tRp7
ag2
(Vhttp://www.okkam.org/oaie/restaurant2-Address545
tRp8
acrdflib.term
Literal
p9
(Vvenice
NNtRp10
ag9
(V838 lincoln blvd.
NNtRp11
ag2
(Vhttp://www.okkam.org/oaie/restaurant2-Address649
tRp12
ag2
(Vhttp://www.okkam.org/oaie/restaurant2-Restaurant345
tRp13
ag2
(Vhttp://www.okkam.org/oaie/restaurant2-Address77
tRp14
ag2
(Vhttp://www.okkam.org/oaie/restaurant2-Category334
tRp15
ag2
(Vhttp://www.okkam.org/oaie/restaurant2-Address176
tRp16
ag2
(Vhttp://www.okkam.org/oaie/restaurant2-restaurant202
tRp17
ag2
(Vhttp://www.okkam.org/oaie/restaurant2-Address102
tRp18
ag9
(Vsan francisco
NNtRp19
ag9
(V22 hawthorne st.
NNtRp20
ag2
(Vhttp://www.okkam.org/oaie/restaurant2-Category11
tRp21
ag2
(Vhttp://www.okkam.org/oaie/restaurant2-Address16
tRp22
ag2
(Vhttp://www.okkam.org/oaie/restaurant2-Address514
tRp23
ag2
(Vhttp://www.okkam.org/oaie/restaurant2-Category310
tRp24
ag2
(Vhttp://www.okkam.org/oaie/restaurant2-Restaurant81
tRp25
ag2
(Vhttp://www.okkam.org/oaie/restaurant2-Address81
tRp26
ag9
(V2290 peachtree rd.
NNtRp27
ag9
(Vatlanta
NNtRp28
ag2
(Vhttp://www.okkam.org/oaie/restaurant2-Address20
tRp29
ag2
(Vhttp://www.okkam.org/oaie/restaurant2-Restaurant312
tRp30
ag2
(Vhttp://www.okkam.org/oaie/restaurant2-Address425
tRp31
ag2
(Vhttp://www.okkam.org/oaie/restaurant2-Restaurant519
tRp32
ag2
(Vhttp://www.okkam.org/oaie/restaurant2-Address519
tRp33
ag9
(V240 california st.
NNtRp34
ag19
ag2
(Vhttp://www.okkam.org/oaie/restaurant2-Restaurant605
tRp35
ag2
(Vhttp://www.okkam.org/oaie/restaurant2-Address223
tRp36
ag2
(Vhttp://www.okkam.org/oaie/restaurant2-Restaurant225
tRp37
ag2
(Vhttp://www.okkam.org/oaie/restaurant2-restaurant204
tRp38
ag2
(Vhttp://www.okkam.org/oaie/restaurant2-Category207
tRp39
ag2
(Vhttp://www.okkam.org/oaie/restaurant2-Address324
tRp40
ag2
(Vhttp://www.okkam.org/oaie/restaurant2-restaurant296
tRp41
ag2
(Vhttp://www.okkam.org/oaie/restaurant2-Address577
tRp42
ag2
(Vhttp://www.okkam.org/oaie/restaurant2-Restaurant637
tRp43
ag2
(Vhttp://www.okkam.org/oaie/restaurant2-Address637
tRp44
ag9
(Vbrooklyn
NNtRp45
ag9
(V178 broadway
NNtRp46
ag2
(Vhttp://www.okkam.org/oaie/restaurant2-Restaurant642
tRp47
ag2
(Vhttp://www.okkam.org/oaie/restaurant2-Address642
tRp48
ag9
(V5-16 51st ave.
NNtRp49
ag9
(Vqueens
NNtRp50
ag2
(Vhttp://www.okkam.org/oaie/restaurant2-restaurant272
tRp51
ag2
(Vhttp://www.okkam.org/oaie/restaurant2-Address172
tRp52
ag9
(V20 mott st.  between bowery and pell st.
NNtRp53
ag9
(Vnew york
NNtRp54
ag2
(Vhttp://www.okkam.org/oaie/restaurant2-Address214
tRp55
ag2
(Vhttp://www.okkam.org/oaie/restaurant2-Category126
tRp56
ag2
(Vhttp://www.okkam.org/oaie/restaurant2-Restaurant601
tRp57
ag2
(Vhttp://www.okkam.org/oaie/restaurant2-Restaurant419
tRp58
ag2
(Vhttp://www.okkam.org/oaie/restaurant2-Address290
tRp59
ag2
(Vhttp://www.okkam.org/oaie/restaurant2-Restaurant676
tRp60
ag2
(Vhttp://www.okkam.org/oaie/restaurant2-Address676
tRp61
ag28
ag9
(V659 peachtree st.
NNtRp62
ag2
(Vhttp://www.okkam.org/oaie/restaurant2-restaurant253
tRp63
ag2
(Vhttp://www.okkam.org/oaie/restaurant2-Address438
tRp64
ag2
(Vhttp://www.okkam.org/oaie/restaurant2-Address129
tRp65
ag2
(Vhttp://www.okkam.org/oaie/restaurant2-Restaurant492
tRp66
ag2
(Vhttp://www.okkam.org/oaie/restaurant2-Address669
tRp67
ag2
(Vhttp://www.okkam.org/oaie/restaurant2-Restaurant222
tRp68
ag2
(Vhttp://www.okkam.org/oaie/restaurant2-Category222
tRp69
ag2
(Vhttp://www.okkam.org/oaie/restaurant2-Address723
tRp70
ag2
(Vhttp://www.okkam.org/oaie/restaurant2-Address194
tRp71
ag2
(Vhttp://www.okkam.org/oaie/restaurant2-Restaurant26
tRp72
ag2
(Vhttp://www.okkam.org/oaie/restaurant2-Address688
tRp73
ag2
(Vhttp://www.okkam.org/oaie/restaurant2-Restaurant436
tRp74
ag2
(Vhttp://www.okkam.org/oaie/restaurant2-Restaurant537
tRp75
ag2
(Vhttp://www.okkam.org/oaie/restaurant2-Category537
tRp76
ag2
(Vhttp://www.okkam.org/oaie/restaurant2-Restaurant509
tRp77
ag2
(Vhttp://www.okkam.org/oaie/restaurant2-Address509
tRp78
ag9
(V1 tillman pl.
NNtRp79
ag19
ag2
(Vhttp://www.okkam.org/oaie/restaurant2-Restaurant455
tRp80
ag2
(Vhttp://www.okkam.org/oaie/restaurant2-Restaurant200
tRp81
ag2
(Vhttp://www.okkam.org/oaie/restaurant2-Restaurant321
tRp82
ag2
(Vhttp://www.okkam.org/oaie/restaurant2-Address321
tRp83
ag54
ag9
(V1065 1st ave.  at 58th st.
NNtRp84
ag2
(Vhttp://www.okkam.org/oaie/restaurant2-Restaurant723
tRp85
ag2
(Vhttp://www.okkam.org/oaie/restaurant2-Restaurant221
tRp86
ag2
(Vhttp://www.okkam.org/oaie/restaurant2-Address221
tRp87
ag54
ag9
(V23 e. 74th st.
NNtRp88
ag2
(Vhttp://www.okkam.org/oaie/restaurant2-Restaurant751
tRp89
ag2
(Vhttp://www.okkam.org/oaie/restaurant2-Restaurant717
tRp90
ag2
(Vhttp://www.okkam.org/oaie/restaurant2-Address717
tRp91
ag9
(V70 w. crossville rd.
NNtRp92
ag9
(Vroswell
NNtRp93
ag2
(Vhttp://www.okkam.org/oaie/restaurant2-Restaurant55
tRp94
ag2
(Vhttp://www.okkam.org/oaie/restaurant2-Category55
tRp95
ag2
(Vhttp://www.okkam.org/oaie/restaurant2-Category354
tRp96
ag2
(Vhttp://www.okkam.org/oaie/restaurant2-Address342
tRp97
ag2
(Vhttp://www.okkam.org/oaie/restaurant2-restaurant211
tRp98
ag2
(Vhttp://www.okkam.org/oaie/restaurant2-Category111
tRp99
ag2
(Vhttp://www.okkam.org/oaie/restaurant2-Restaurant242
tRp100
ag2
(Vhttp://www.okkam.org/oaie/restaurant2-Restaurant80
tRp101
ag2
(Vhttp://www.okkam.org/oaie/restaurant2-Restaurant361
tRp102
ag2
(Vhttp://www.okkam.org/oaie/restaurant2-Address361
tRp103
ag9
(V2420 broadway at 89th st.
NNtRp104
ag54
ag2
(Vhttp://www.okkam.org/oaie/restaurant2-Address341
tRp105
ag2
(Vhttp://www.okkam.org/oaie/restaurant2-Address97
tRp106
ag2
(Vhttp://www.okkam.org/oaie/restaurant2-Restaurant300
tRp107
ag2
(Vhttp://www.okkam.org/oaie/restaurant2-Category665
tRp108
ag2
(Vhttp://www.okkam.org/oaie/restaurant2-Address42
tRp109
ag2
(Vhttp://www.okkam.org/oaie/restaurant2-Category321
tRp110
ag2
(Vhttp://www.okkam.org/oaie/restaurant2-Restaurant467
tRp111
ag2
(Vhttp://www.okkam.org/oaie/restaurant2-Category378
tRp112
ag2
(Vhttp://www.okkam.org/oaie/restaurant2-Address33
tRp113
ag2
(Vhttp://www.okkam.org/oaie/restaurant2-Category219
tRp114
ag2
(Vhttp://www.okkam.org/oaie/restaurant2-Address521
tRp115
ag2
(Vhttp://www.okkam.org/oaie/restaurant2-Restaurant58
tRp116
ag2
(Vhttp://www.okkam.org/oaie/restaurant2-Restaurant427
tRp117
ag2
(Vhttp://www.okkam.org/oaie/restaurant2-Address427
tRp118
ag9
(V3570 las vegas blvd. s
NNtRp119
ag9
(Vlas vegas
NNtRp120
ag2
(Vhttp://www.okkam.org/oaie/restaurant2-Address467
tRp121
ag9
(V500 jackson st.
NNtRp122
ag19
ag2
(Vhttp://www.okkam.org/oaie/restaurant2-Restaurant426
tRp123
ag2
(Vhttp://www.okkam.org/oaie/restaurant2-Address734
tRp124
ag2
(Vhttp://www.okkam.org/oaie/restaurant2-Restaurant571
tRp125
ag2
(Vhttp://www.okkam.org/oaie/restaurant2-Restaurant448
tRp126
ag2
(Vhttp://www.okkam.org/oaie/restaurant2-Restaurant665
tRp127
ag2
(Vhttp://www.okkam.org/oaie/restaurant2-Address665
tRp128
ag9
(V3145 las vegas blvd. s.
NNtRp129
ag120
ag2
(Vhttp://www.okkam.org/oaie/restaurant2-Restaurant409
tRp130
ag2
(Vhttp://www.okkam.org/oaie/restaurant2-Category409
tRp131
ag2
(Vhttp://www.okkam.org/oaie/restaurant2-Restaurant327
tRp132
ag2
(Vhttp://www.okkam.org/oaie/restaurant2-Category327
tRp133
ag2
(Vhttp://www.okkam.org/oaie/restaurant2-Address369
tRp134
ag2
(Vhttp://www.okkam.org/oaie/restaurant2-Restaurant578
tRp135
ag2
(Vhttp://www.okkam.org/oaie/restaurant2-Address387
tRp136
ag2
(Vhttp://www.okkam.org/oaie/restaurant2-Category149
tRp137
ag2
(Vhttp://www.okkam.org/oaie/restaurant2-Address254
tRp138
ag2
(Vhttp://www.okkam.org/oaie/restaurant2-Restaurant302
tRp139
ag2
(Vhttp://www.okkam.org/oaie/restaurant2-Address302
tRp140
ag9
(V342 e. 46th st.  between 1st and 2nd aves.
NNtRp141
ag54
ag2
(Vhttp://www.okkam.org/oaie/restaurant2-Address675
tRp142
ag2
(Vhttp://www.okkam.org/oaie/restaurant2-Restaurant261
tRp143
ag2
(Vhttp://www.okkam.org/oaie/restaurant2-Category34
tRp144
ag2
(Vhttp://www.okkam.org/oaie/restaurant2-Category750
tRp145
ag2
(Vhttp://www.okkam.org/oaie/restaurant2-Restaurant532
tRp146
ag2
(Vhttp://www.okkam.org/oaie/restaurant2-Category532
tRp147
ag2
(Vhttp://www.okkam.org/oaie/restaurant2-Address262
tRp148
ag2
(Vhttp://www.okkam.org/oaie/restaurant2-Restaurant325
tRp149
ag2
(Vhttp://www.okkam.org/oaie/restaurant2-Address236
tRp150
ag2
(Vhttp://www.okkam.org/oaie/restaurant2-Address547
tRp151
ag2
(Vhttp://www.okkam.org/oaie/restaurant2-Address354
tRp152
ag2
(Vhttp://www.okkam.org/oaie/restaurant2-Address593
tRp153
ag2
(Vhttp://www.okkam.org/oaie/restaurant2-Category448
tRp154
ag2
(Vhttp://www.okkam.org/oaie/restaurant2-Address508
tRp155
ag2
(Vhttp://www.okkam.org/oaie/restaurant2-Restaurant389
tRp156
ag2
(Vhttp://www.okkam.org/oaie/restaurant2-Address389
tRp157
ag28
ag9
(V3300 peachtree rd.  grand hyatt
NNtRp158
ag2
(Vhttp://www.okkam.org/oaie/restaurant2-Restaurant664
tRp159
ag2
(Vhttp://www.okkam.org/oaie/restaurant2-Restaurant70
tRp160
ag2
(Vhttp://www.okkam.org/oaie/restaurant2-Address589
tRp161
ag2
(Vhttp://www.okkam.org/oaie/restaurant2-Restaurant349
tRp162
ag2
(Vhttp://www.okkam.org/oaie/restaurant2-Restaurant31
tRp163
ag2
(Vhttp://www.okkam.org/oaie/restaurant2-Address455
tRp164
ag2
(Vhttp://www.okkam.org/oaie/restaurant2-Category605
tRp165
ag2
(Vhttp://www.okkam.org/oaie/restaurant2-Address737
tRp166
ag2
(Vhttp://www.okkam.org/oaie/restaurant2-Category669
tRp167
ag2
(Vhttp://www.okkam.org/oaie/restaurant2-Restaurant667
tRp168
ag2
(Vhttp://www.okkam.org/oaie/restaurant2-Category289
tRp169
ag2
(Vhttp://www.okkam.org/oaie/restaurant2-Category104
tRp170
ag2
(Vhttp://www.okkam.org/oaie/restaurant2-Restaurant289
tRp171
ag2
(Vhttp://www.okkam.org/oaie/restaurant2-Restaurant469
tRp172
ag2
(Vhttp://www.okkam.org/oaie/restaurant2-Address469
tRp173
ag9
(V161 sutter st.
NNtRp174
ag19
ag2
(Vhttp://www.okkam.org/oaie/restaurant2-Address659
tRp175
ag2
(Vhttp://www.okkam.org/oaie/restaurant2-Address721
tRp176
ag2
(Vhttp://www.okkam.org/oaie/restaurant2-Restaurant592
tRp177
ag2
(Vhttp://www.okkam.org/oaie/restaurant2-Address592
tRp178
ag9
(V1198 pch
NNtRp179
ag9
(Vseal beach
NNtRp180
ag2
(Vhttp://www.okkam.org/oaie/restaurant2-Restaurant437
tRp181
ag2
(Vhttp://www.okkam.org/oaie/restaurant2-Category437
tRp182
ag2
(Vhttp://www.okkam.org/oaie/restaurant2-Restaurant216
tRp183
ag2
(Vhttp://www.okkam.org/oaie/restaurant2-Restaurant659
tRp184
ag2
(Vhttp://www.okkam.org/oaie/restaurant2-Restaurant615
tRp185
ag2
(Vhttp://www.okkam.org/oaie/restaurant2-Category615
tRp186
ag2
(Vhttp://www.okkam.org/oaie/restaurant2-Address9
tRp187
ag2
(Vhttp://www.okkam.org/oaie/restaurant2-Address32
tRp188
ag2
(Vhttp://www.okkam.org/oaie/restaurant2-Address464
tRp189
ag2
(Vhttp://www.okkam.org/oaie/restaurant2-Category508
tRp190
ag2
(Vhttp://www.okkam.org/oaie/restaurant2-Category724
tRp191
ag2
(Vhttp://www.okkam.org/oaie/restaurant2-Address477
tRp192
ag2
(Vhttp://www.okkam.org/oaie/restaurant2-Restaurant597
tRp193
ag2
(Vhttp://www.okkam.org/oaie/restaurant2-Address597
tRp194
ag9
(Vbrentwood
NNtRp195
ag9
(V11677 san vicente blvd.
NNtRp196
ag2
(Vhttp://www.okkam.org/oaie/restaurant2-Address147
tRp197
ag2
(Vhttp://www.okkam.org/oaie/restaurant2-Restaurant252
tRp198
ag2
(Vhttp://www.okkam.org/oaie/restaurant2-Restaurant311
tRp199
ag2
(Vhttp://www.okkam.org/oaie/restaurant2-Restaurant245
tRp200
ag2
(Vhttp://www.okkam.org/oaie/restaurant2-restaurant262
tRp201
ag2
(Vhttp://www.okkam.org/oaie/restaurant2-Address162
tRp202
ag9
(V3110 main st.
NNtRp203
ag9
(Vlos angeles
NNtRp204
ag2
(Vhttp://www.okkam.org/oaie/restaurant2-Address329
tRp205
ag2
(Vhttp://www.okkam.org/oaie/restaurant2-Category722
tRp206
ag2
(Vhttp://www.okkam.org/oaie/restaurant2-Category563
tRp207
ag2
(Vhttp://www.okkam.org/oaie/restaurant2-Address471
tRp208
ag2
(Vhttp://www.okkam.org/oaie/restaurant2-restaurant240
tRp209
ag2
(Vhttp://www.okkam.org/oaie/restaurant2-Address117
tRp210
ag2
(Vhttp://www.okkam.org/oaie/restaurant2-Restaurant695
tRp211
ag2
(Vhttp://www.okkam.org/oaie/restaurant2-Restaurant750
tRp212
ag2
(Vhttp://www.okkam.org/oaie/restaurant2-Address83
tRp213
ag2
(Vhttp://www.okkam.org/oaie/restaurant2-Restaurant608
tRp214
ag2
(Vhttp://www.okkam.org/oaie/restaurant2-Address608
tRp215
ag9
(Vnew york city
NNtRp216
ag9
(V87 e. fourth st.
NNtRp217
ag2
(Vhttp://www.okkam.org/oaie/restaurant2-Restaurant472
tRp218
ag2
(Vhttp://www.okkam.org/oaie/restaurant2-Address472
tRp219
ag9
(Vghirardelli sq.
NNtRp220
ag19
ag2
(Vhttp://www.okkam.org/oaie/restaurant2-restaurant247
tRp221
ag2
(Vhttp://www.okkam.org/oaie/restaurant2-Category147
tRp222
ag2
(Vhttp://www.okkam.org/oaie/restaurant2-Restaurant366
tRp223
ag2
(Vhttp://www.okkam.org/oaie/restaurant2-Address366
tRp224
ag54
ag9
(V34 e. 51st st.
NNtRp225
ag2
(Vhttp://www.okkam.org/oaie/restaurant2-Category223
tRp226
ag2
(Vhttp://www.okkam.org/oaie/restaurant2-Restaurant512
tRp227
ag2
(Vhttp://www.okkam.org/oaie/restaurant2-Category512
tRp228
ag2
(Vhttp://www.okkam.org/oaie/restaurant2-Address252
tRp229
ag2
(Vhttp://www.okkam.org/oaie/restaurant2-Restaurant483
tRp230
ag2
(Vhttp://www.okkam.org/oaie/restaurant2-Restaurant276
tRp231
ag2
(Vhttp://www.okkam.org/oaie/restaurant2-Address276
tRp232
ag9
(V152 w. 52nd st.
NNtRp233
ag54
ag2
(Vhttp://www.okkam.org/oaie/restaurant2-Restaurant517
tRp234
ag2
(Vhttp://www.okkam.org/oaie/restaurant2-Address379
tRp235
ag2
(Vhttp://www.okkam.org/oaie/restaurant2-Address225
tRp236
ag9
(V164 mulberry st.  between grand and broome sts.
NNtRp237
ag54
ag2
(Vhttp://www.okkam.org/oaie/restaurant2-Category116
tRp238
ag2
(Vhttp://www.okkam.org/oaie/restaurant2-Restaurant227
tRp239
ag2
(Vhttp://www.okkam.org/oaie/restaurant2-Restaurant632
tRp240
ag2
(Vhttp://www.okkam.org/oaie/restaurant2-Category632
tRp241
ag2
(Vhttp://www.okkam.org/oaie/restaurant2-Category148
tRp242
ag2
(Vhttp://www.okkam.org/oaie/restaurant2-restaurant250
tRp243
ag2
(Vhttp://www.okkam.org/oaie/restaurant2-Restaurant589
tRp244
ag2
(Vhttp://www.okkam.org/oaie/restaurant2-Category589
tRp245
ag2
(Vhttp://www.okkam.org/oaie/restaurant2-Restaurant354
tRp246
ag2
(Vhttp://www.okkam.org/oaie/restaurant2-Category267
tRp247
ag2
(Vhttp://www.okkam.org/oaie/restaurant2-Address23
tRp248
ag2
(Vhttp://www.okkam.org/oaie/restaurant2-Category123
tRp249
ag2
(Vhttp://www.okkam.org/oaie/restaurant2-Restaurant0
tRp250
ag2
(Vhttp://www.okkam.org/oaie/restaurant2-Address0
tRp251
ag204
ag9
(V435 s. la cienega blvd.
NNtRp252
ag2
(Vhttp://www.okkam.org/oaie/restaurant2-Category203
tRp253
ag2
(Vhttp://www.okkam.org/oaie/restaurant2-Address406
tRp254
ag2
(Vhttp://www.okkam.org/oaie/restaurant2-Restaurant309
tRp255
ag2
(Vhttp://www.okkam.org/oaie/restaurant2-Address309
tRp256
ag54
ag9
(V1134 1st ave.   between 62nd and 63rd sts.
NNtRp257
ag2
(Vhttp://www.okkam.org/oaie/restaurant2-Restaurant734
tRp258
ag2
(Vhttp://www.okkam.org/oaie/restaurant2-Restaurant99
tRp259
ag2
(Vhttp://www.okkam.org/oaie/restaurant2-Address99
tRp260
ag19
ag9
(V804 north point st.
NNtRp261
ag2
(Vhttp://www.okkam.org/oaie/restaurant2-Address311
tRp262
ag2
(Vhttp://www.okkam.org/oaie/restaurant2-Category288
tRp263
ag2
(Vhttp://www.okkam.org/oaie/restaurant2-restaurant292
tRp264
ag2
(Vhttp://www.okkam.org/oaie/restaurant2-Category192
tRp265
ag2
(Vhttp://www.okkam.org/oaie/restaurant2-restaurant251
tRp266
ag2
(Vhttp://www.okkam.org/oaie/restaurant2-Category151
tRp267
ag2
(Vhttp://www.okkam.org/oaie/restaurant2-Address216
tRp268
ag2
(Vhttp://www.okkam.org/oaie/restaurant2-Address270
tRp269
ag2
(Vhttp://www.okkam.org/oaie/restaurant2-Category205
tRp270
ag2
(Vhttp://www.okkam.org/oaie/restaurant2-Address4
tRp271
ag2
(Vhttp://www.okkam.org/oaie/restaurant2-Restaurant87
tRp272
ag2
(Vhttp://www.okkam.org/oaie/restaurant2-restaurant258
tRp273
ag2
(Vhttp://www.okkam.org/oaie/restaurant2-Category180
tRp274
ag2
(Vhttp://www.okkam.org/oaie/restaurant2-Address316
tRp275
ag2
(Vhttp://www.okkam.org/oaie/restaurant2-Restaurant657
tRp276
ag2
(Vhttp://www.okkam.org/oaie/restaurant2-Category657
tRp277
ag2
(Vhttp://www.okkam.org/oaie/restaurant2-Category514
tRp278
ag2
(Vhttp://www.okkam.org/oaie/restaurant2-Address206
tRp279
ag2
(Vhttp://www.okkam.org/oaie/restaurant2-Restaurant214
tRp280
ag2
(Vhttp://www.okkam.org/oaie/restaurant2-Restaurant567
tRp281
ag2
(Vhttp://www.okkam.org/oaie/restaurant2-Restaurant391
tRp282
ag2
(Vhttp://www.okkam.org/oaie/restaurant2-Restaurant735
tRp283
ag2
(Vhttp://www.okkam.org/oaie/restaurant2-Restaurant79
tRp284
ag2
(Vhttp://www.okkam.org/oaie/restaurant2-Address350
tRp285
ag2
(Vhttp://www.okkam.org/oaie/restaurant2-Restaurant558
tRp286
ag2
(Vhttp://www.okkam.org/oaie/restaurant2-Restaurant579
tRp287
ag2
(Vhttp://www.okkam.org/oaie/restaurant2-Address579
tRp288
ag9
(V7261 melrose ave.
NNtRp289
ag9
(Vla
NNtRp290
ag2
(Vhttp://www.okkam.org/oaie/restaurant2-Restaurant47
tRp291
ag2
(Vhttp://www.okkam.org/oaie/restaurant2-restaurant276
tRp292
ag2
(Vhttp://www.okkam.org/oaie/restaurant2-Restaurant720
tRp293
ag2
(Vhttp://www.okkam.org/oaie/restaurant2-Address720
tRp294
ag9
(V4837 old national hwy.
NNtRp295
ag9
(Vcollege park
NNtRp296
ag2
(Vhttp://www.okkam.org/oaie/restaurant2-Restaurant273
tRp297
ag2
(Vhttp://www.okkam.org/oaie/restaurant2-Restaurant496
tRp298
ag2
(Vhttp://www.okkam.org/oaie/restaurant2-Category496
tRp299
ag2
(Vhttp://www.okkam.org/oaie/restaurant2-Address220
tRp300
ag2
(Vhttp://www.okkam.org/oaie/restaurant2-Restaurant291
tRp301
ag2
(Vhttp://www.okkam.org/oaie/restaurant2-Category291
tRp302
ag2
(Vhttp://www.okkam.org/oaie/restaurant2-Restaurant202
tRp303
ag2
(Vhttp://www.okkam.org/oaie/restaurant2-Restaurant499
tRp304
ag2
(Vhttp://www.okkam.org/oaie/restaurant2-Address95
tRp305
ag2
(Vhttp://www.okkam.org/oaie/restaurant2-Restaurant21
tRp306
ag2
(Vhttp://www.okkam.org/oaie/restaurant2-Restaurant346
tRp307
ag2
(Vhttp://www.okkam.org/oaie/restaurant2-Address709
tRp308
ag2
(Vhttp://www.okkam.org/oaie/restaurant2-Restaurant673
tRp309
ag2
(Vhttp://www.okkam.org/oaie/restaurant2-Category673
tRp310
ag2
(Vhttp://www.okkam.org/oaie/restaurant2-Address261
tRp311
ag9
(V221 w. 57th st.
NNtRp312
ag54
ag2
(Vhttp://www.okkam.org/oaie/restaurant2-Restaurant611
tRp313
ag2
(Vhttp://www.okkam.org/oaie/restaurant2-Address611
tRp314
ag9
(V228 w. 47th st.
NNtRp315
ag216
ag2
(Vhttp://www.okkam.org/oaie/restaurant2-Restaurant425
tRp316
ag2
(Vhttp://www.okkam.org/oaie/restaurant2-Category425
tRp317
ag2
(Vhttp://www.okkam.org/oaie/restaurant2-Restaurant623
tRp318
ag2
(Vhttp://www.okkam.org/oaie/restaurant2-Category468
tRp319
ag2
(Vhttp://www.okkam.org/oaie/restaurant2-Restaurant381
tRp320
ag2
(Vhttp://www.okkam.org/oaie/restaurant2-Address381
tRp321
ag9
(V3195 roswell rd.
NNtRp322
ag28
ag2
(Vhttp://www.okkam.org/oaie/restaurant2-Address94
tRp323
ag2
(Vhttp://www.okkam.org/oaie/restaurant2-Category255
tRp324
ag2
(Vhttp://www.okkam.org/oaie/restaurant2-Restaurant238
tRp325
ag2
(Vhttp://www.okkam.org/oaie/restaurant2-Category238
tRp326
ag2
(Vhttp://www.okkam.org/oaie/restaurant2-Category244
tRp327
ag2
(Vhttp://www.okkam.org/oaie/restaurant2-Address320
tRp328
ag2
(Vhttp://www.okkam.org/oaie/restaurant2-Restaurant581
tRp329
ag2
(Vhttp://www.okkam.org/oaie/restaurant2-Category581
tRp330
ag2
(Vhttp://www.okkam.org/oaie/restaurant2-Category579
tRp331
ag2
(Vhttp://www.okkam.org/oaie/restaurant2-Category166
tRp332
ag2
(Vhttp://www.okkam.org/oaie/restaurant2-Restaurant661
tRp333
ag2
(Vhttp://www.okkam.org/oaie/restaurant2-Category661
tRp334
ag2
(Vhttp://www.okkam.org/oaie/restaurant2-Category33
tRp335
ag2
(Vhttp://www.okkam.org/oaie/restaurant2-Restaurant205
tRp336
ag2
(Vhttp://www.okkam.org/oaie/restaurant2-Address584
tRp337
ag2
(Vhttp://www.okkam.org/oaie/restaurant2-restaurant200
tRp338
ag2
(Vhttp://www.okkam.org/oaie/restaurant2-Restaurant91
tRp339
ag2
(Vhttp://www.okkam.org/oaie/restaurant2-Category91
tRp340
ag2
(Vhttp://www.okkam.org/oaie/restaurant2-restaurant225
tRp341
ag2
(Vhttp://www.okkam.org/oaie/restaurant2-Restaurant224
tRp342
ag2
(Vhttp://www.okkam.org/oaie/restaurant2-Category224
tRp343
ag2
(Vhttp://www.okkam.org/oaie/restaurant2-Address639
tRp344
ag2
(Vhttp://www.okkam.org/oaie/restaurant2-Address436
tRp345
ag120
ag9
(V1 main st.
NNtRp346
ag2
(Vhttp://www.okkam.org/oaie/restaurant2-Restaurant41
tRp347
ag2
(Vhttp://www.okkam.org/oaie/restaurant2-Address41
tRp348
ag216
ag9
(V155 w. 51st st.
NNtRp349
ag2
(Vhttp://www.okkam.org/oaie/restaurant2-restaurant222
tRp350
ag2
(Vhttp://www.okkam.org/oaie/restaurant2-Address122
tRp351
ag204
ag9
(V419 n. fairfax ave.
NNtRp352
ag2
(Vhttp://www.okkam.org/oaie/restaurant2-Restaurant326
tRp353
ag2
(Vhttp://www.okkam.org/oaie/restaurant2-Address140
tRp354
ag204
ag9
(V10668 w. pico blvd.
NNtRp355
ag2
(Vhttp://www.okkam.org/oaie/restaurant2-Restaurant353
tRp356
ag2
(Vhttp://www.okkam.org/oaie/restaurant2-Restaurant40
tRp357
ag2
(Vhttp://www.okkam.org/oaie/restaurant2-Address719
tRp358
ag2
(Vhttp://www.okkam.org/oaie/restaurant2-Restaurant348
tRp359
ag2
(Vhttp://www.okkam.org/oaie/restaurant2-Address133
tRp360
ag2
(Vhttp://www.okkam.org/oaie/restaurant2-Address126
tRp361
ag2
(Vhttp://www.okkam.org/oaie/restaurant2-restaurant264
tRp362
ag2
(Vhttp://www.okkam.org/oaie/restaurant2-Address164
tRp363
ag9
(V8020 beverly blvd.
NNtRp364
ag204
ag2
(Vhttp://www.okkam.org/oaie/restaurant2-Restaurant674
tRp365
ag2
(Vhttp://www.okkam.org/oaie/restaurant2-Restaurant397
tRp366
ag2
(Vhttp://www.okkam.org/oaie/restaurant2-Address397
tRp367
ag9
(V6359 jimmy carter blvd.  at buford hwy.  norcross
NNtRp368
ag28
ag2
(Vhttp://www.okkam.org/oaie/restaurant2-Category170
tRp369
ag2
(Vhttp://www.okkam.org/oaie/restaurant2-Restaurant565
tRp370
ag2
(Vhttp://www.okkam.org/oaie/restaurant2-Address565
tRp371
ag9
(V4000 colfax ave.
NNtRp372
ag9
(Vstudio city
NNtRp373
ag2
(Vhttp://www.okkam.org/oaie/restaurant2-Address553
tRp374
ag2
(Vhttp://www.okkam.org/oaie/restaurant2-Category21
tRp375
ag2
(Vhttp://www.okkam.org/oaie/restaurant2-restaurant229
tRp376
ag2
(Vhttp://www.okkam.org/oaie/restaurant2-Category637
tRp377
ag2
(Vhttp://www.okkam.org/oaie/restaurant2-Category136
tRp378
ag2
(Vhttp://www.okkam.org/oaie/restaurant2-Restaurant653
tRp379
ag2
(Vhttp://www.okkam.org/oaie/restaurant2-Address395
tRp380
ag2
(Vhttp://www.okkam.org/oaie/restaurant2-Category566
tRp381
ag2
(Vhttp://www.okkam.org/oaie/restaurant2-Restaurant709
tRp382
ag2
(Vhttp://www.okkam.org/oaie/restaurant2-Restaurant505
tRp383
ag2
(Vhttp://www.okkam.org/oaie/restaurant2-Category176
tRp384
ag2
(Vhttp://www.okkam.org/oaie/restaurant2-Address522
tRp385
ag2
(Vhttp://www.okkam.org/oaie/restaurant2-Restaurant388
tRp386
ag2
(Vhttp://www.okkam.org/oaie/restaurant2-Restaurant444
tRp387
ag2
(Vhttp://www.okkam.org/oaie/restaurant2-Category179
tRp388
ag2
(Vhttp://www.okkam.org/oaie/restaurant2-Address258
tRp389
ag2
(Vhttp://www.okkam.org/oaie/restaurant2-Restaurant457
tRp390
ag2
(Vhttp://www.okkam.org/oaie/restaurant2-Restaurant556
tRp391
ag2
(Vhttp://www.okkam.org/oaie/restaurant2-Category556
tRp392
ag2
(Vhttp://www.okkam.org/oaie/restaurant2-Restaurant82
tRp393
ag2
(Vhttp://www.okkam.org/oaie/restaurant2-Restaurant34
tRp394
ag2
(Vhttp://www.okkam.org/oaie/restaurant2-Restaurant461
tRp395
ag2
(Vhttp://www.okkam.org/oaie/restaurant2-Restaurant626
tRp396
ag2
(Vhttp://www.okkam.org/oaie/restaurant2-Address626
tRp397
ag9
(V466 hudson st.
NNtRp398
ag216
ag2
(Vhttp://www.okkam.org/oaie/restaurant2-Category641
tRp399
ag2
(Vhttp://www.okkam.org/oaie/restaurant2-Restaurant424
tRp400
ag2
(Vhttp://www.okkam.org/oaie/restaurant2-Address231
tRp401
ag2
(Vhttp://www.okkam.org/oaie/restaurant2-restaurant221
tRp402
ag2
(Vhttp://www.okkam.org/oaie/restaurant2-Address121
tRp403
ag204
ag9
(V207 s. beverly dr.
NNtRp404
ag2
(Vhttp://www.okkam.org/oaie/restaurant2-Address142
tRp405
ag2
(Vhttp://www.okkam.org/oaie/restaurant2-Category311
tRp406
ag2
(Vhttp://www.okkam.org/oaie/restaurant2-Restaurant708
tRp407
ag2
(Vhttp://www.okkam.org/oaie/restaurant2-Restaurant57
tRp408
ag2
(Vhttp://www.okkam.org/oaie/restaurant2-Category57
tRp409
ag2
(Vhttp://www.okkam.org/oaie/restaurant2-Address728
tRp410
ag2
(Vhttp://www.okkam.org/oaie/restaurant2-Address465
tRp411
ag2
(Vhttp://www.okkam.org/oaie/restaurant2-Category35
tRp412
ag2
(Vhttp://www.okkam.org/oaie/restaurant2-Address695
tRp413
ag2
(Vhttp://www.okkam.org/oaie/restaurant2-Category513
tRp414
ag2
(Vhttp://www.okkam.org/oaie/restaurant2-Restaurant508
tRp415
ag9
(V558 sacramento st.
NNtRp416
ag19
ag2
(Vhttp://www.okkam.org/oaie/restaurant2-Restaurant570
tRp417
ag2
(Vhttp://www.okkam.org/oaie/restaurant2-Address570
tRp418
ag9
(Vst. boyle hts.
NNtRp419
ag9
(V1842 e. first
NNtRp420
ag2
(Vhttp://www.okkam.org/oaie/restaurant2-Category243
tRp421
ag2
(Vhttp://www.okkam.org/oaie/restaurant2-Restaurant559
tRp422
ag2
(Vhttp://www.okkam.org/oaie/restaurant2-Category559
tRp423
ag2
(Vhttp://www.okkam.org/oaie/restaurant2-Address173
tRp424
ag19
ag9
(V423 columbus ave.
NNtRp425
ag2
(Vhttp://www.okkam.org/oaie/restaurant2-Restaurant377
tRp426
ag2
(Vhttp://www.okkam.org/oaie/restaurant2-Restaurant633
tRp427
ag2
(Vhttp://www.okkam.org/oaie/restaurant2-Address633
tRp428
ag9
(Vlower level
NNtRp429
ag216
ag2
(Vhttp://www.okkam.org/oaie/restaurant2-Category591
tRp430
ag2
(Vhttp://www.okkam.org/oaie/restaurant2-Category106
tRp431
ag2
(Vhttp://www.okkam.org/oaie/restaurant2-Category474
tRp432
ag2
(Vhttp://www.okkam.org/oaie/restaurant2-Restaurant208
tRp433
ag2
(Vhttp://www.okkam.org/oaie/restaurant2-Address530
tRp434
ag2
(Vhttp://www.okkam.org/oaie/restaurant2-Restaurant29
tRp435
ag2
(Vhttp://www.okkam.org/oaie/restaurant2-restaurant205
tRp436
ag2
(Vhttp://www.okkam.org/oaie/restaurant2-Restaurant6
tRp437
ag2
(Vhttp://www.okkam.org/oaie/restaurant2-Category6
tRp438
ag2
(Vhttp://www.okkam.org/oaie/restaurant2-Restaurant421
tRp439
ag2
(Vhttp://www.okkam.org/oaie/restaurant2-Address421
tRp440
ag9
(V889 w. peachtree st.
NNtRp441
ag28
ag2
(Vhttp://www.okkam.org/oaie/restaurant2-Restaurant694
tRp442
ag2
(Vhttp://www.okkam.org/oaie/restaurant2-Category694
tRp443
ag2
(Vhttp://www.okkam.org/oaie/restaurant2-Address38
tRp444
ag2
(Vhttp://www.okkam.org/oaie/restaurant2-Address657
tRp445
ag2
(Vhttp://www.okkam.org/oaie/restaurant2-Category603
tRp446
ag2
(Vhttp://www.okkam.org/oaie/restaurant2-Address705
tRp447
ag2
(Vhttp://www.okkam.org/oaie/restaurant2-Category349
tRp448
ag2
(Vhttp://www.okkam.org/oaie/restaurant2-Address249
tRp449
ag2
(Vhttp://www.okkam.org/oaie/restaurant2-Address196
tRp450
ag2
(Vhttp://www.okkam.org/oaie/restaurant2-Restaurant52
tRp451
ag2
(Vhttp://www.okkam.org/oaie/restaurant2-Category71
tRp452
ag2
(Vhttp://www.okkam.org/oaie/restaurant2-Address281
tRp453
ag2
(Vhttp://www.okkam.org/oaie/restaurant2-Restaurant624
tRp454
ag2
(Vhttp://www.okkam.org/oaie/restaurant2-Category624
tRp455
ag2
(Vhttp://www.okkam.org/oaie/restaurant2-Address644
tRp456
ag2
(Vhttp://www.okkam.org/oaie/restaurant2-Restaurant560
tRp457
ag2
(Vhttp://www.okkam.org/oaie/restaurant2-Category560
tRp458
ag2
(Vhttp://www.okkam.org/oaie/restaurant2-Restaurant649
tRp459
ag2
(Vhttp://www.okkam.org/oaie/restaurant2-Restaurant375
tRp460
ag2
(Vhttp://www.okkam.org/oaie/restaurant2-Address375
tRp461
ag9
(V63rd street steakhouse 44 w. 63rd st.
NNtRp462
ag54
ag2
(Vhttp://www.okkam.org/oaie/restaurant2-Category646
tRp463
ag2
(Vhttp://www.okkam.org/oaie/restaurant2-Restaurant464
tRp464
ag2
(Vhttp://www.okkam.org/oaie/restaurant2-restaurant230
tRp465
ag2
(Vhttp://www.okkam.org/oaie/restaurant2-restaurant206
tRp466
ag2
(Vhttp://www.okkam.org/oaie/restaurant2-Restaurant551
tRp467
ag2
(Vhttp://www.okkam.org/oaie/restaurant2-Address551
tRp468
ag9
(Vw. hollywood
NNtRp469
ag9
(V8909 sunset blvd.
NNtRp470
ag2
(Vhttp://www.okkam.org/oaie/restaurant2-Category337
tRp471
ag2
(Vhttp://www.okkam.org/oaie/restaurant2-Address282
tRp472
ag2
(Vhttp://www.okkam.org/oaie/restaurant2-Address540
tRp473
ag2
(Vhttp://www.okkam.org/oaie/restaurant2-Category748
tRp474
ag2
(Vhttp://www.okkam.org/oaie/restaurant2-Address319
tRp475
ag2
(Vhttp://www.okkam.org/oaie/restaurant2-Address174
tRp476
ag2
(Vhttp://www.okkam.org/oaie/restaurant2-Address689
tRp477
ag2
(Vhttp://www.okkam.org/oaie/restaurant2-Address339
tRp478
ag2
(Vhttp://www.okkam.org/oaie/restaurant2-Address683
tRp479
ag2
(Vhttp://www.okkam.org/oaie/restaurant2-Restaurant696
tRp480
ag2
(Vhttp://www.okkam.org/oaie/restaurant2-Address696
tRp481
ag9
(Vsmyrna
NNtRp482
ag9
(V2469 cobb pkwy.
NNtRp483
ag2
(Vhttp://www.okkam.org/oaie/restaurant2-Restaurant442
tRp484
ag2
(Vhttp://www.okkam.org/oaie/restaurant2-Restaurant716
tRp485
ag2
(Vhttp://www.okkam.org/oaie/restaurant2-Category412
tRp486
ag2
(Vhttp://www.okkam.org/oaie/restaurant2-Address735
tRp487
ag2
(Vhttp://www.okkam.org/oaie/restaurant2-Restaurant686
tRp488
ag2
(Vhttp://www.okkam.org/oaie/restaurant2-Category686
tRp489
ag2
(Vhttp://www.okkam.org/oaie/restaurant2-Address106
tRp490
ag9
(V648 bush st.
NNtRp491
ag19
ag2
(Vhttp://www.okkam.org/oaie/restaurant2-Restaurant97
tRp492
ag2
(Vhttp://www.okkam.org/oaie/restaurant2-Category97
tRp493
ag2
(Vhttp://www.okkam.org/oaie/restaurant2-Category623
tRp494
ag2
(Vhttp://www.okkam.org/oaie/restaurant2-Restaurant494
tRp495
ag2
(Vhttp://www.okkam.org/oaie/restaurant2-Category494
tRp496
ag2
(Vhttp://www.okkam.org/oaie/restaurant2-Category377
tRp497
ag2
(Vhttp://www.okkam.org/oaie/restaurant2-Category534
tRp498
ag2
(Vhttp://www.okkam.org/oaie/restaurant2-Address707
tRp499
ag2
(Vhttp://www.okkam.org/oaie/restaurant2-Category587
tRp500
ag2
(Vhttp://www.okkam.org/oaie/restaurant2-Restaurant413
tRp501
ag2
(Vhttp://www.okkam.org/oaie/restaurant2-Category413
tRp502
ag2
(Vhttp://www.okkam.org/oaie/restaurant2-Restaurant598
tRp503
ag2
(Vhttp://www.okkam.org/oaie/restaurant2-restaurant219
tRp504
ag2
(Vhttp://www.okkam.org/oaie/restaurant2-Address119
tRp505
ag204
ag9
(V4100 cahuenga blvd.
NNtRp506
ag2
(Vhttp://www.okkam.org/oaie/restaurant2-Category20
tRp507
ag2
(Vhttp://www.okkam.org/oaie/restaurant2-Restaurant456
tRp508
ag2
(Vhttp://www.okkam.org/oaie/restaurant2-Restaurant583
tRp509
ag2
(Vhttp://www.okkam.org/oaie/restaurant2-Address583
tRp510
ag9
(V875 s. figueroa st. downtown
NNtRp511
ag290
ag2
(Vhttp://www.okkam.org/oaie/restaurant2-Category642
tRp512
ag2
(Vhttp://www.okkam.org/oaie/restaurant2-Restaurant258
tRp513
ag9
(V18 e. broadway at catherine st.
NNtRp514
ag54
ag2
(Vhttp://www.okkam.org/oaie/restaurant2-Restaurant50
tRp515
ag2
(Vhttp://www.okkam.org/oaie/restaurant2-Category50
tRp516
ag2
(Vhttp://www.okkam.org/oaie/restaurant2-Restaurant379
tRp517
ag9
(V163 ponce de leon ave.
NNtRp518
ag28
ag2
(Vhttp://www.okkam.org/oaie/restaurant2-Restaurant233
tRp519
ag2
(Vhttp://www.okkam.org/oaie/restaurant2-Category583
tRp520
ag2
(Vhttp://www.okkam.org/oaie/restaurant2-Restaurant282
tRp521
ag54
ag9
(V168 1st ave.  between 10th and 11th sts.
NNtRp522
ag2
(Vhttp://www.okkam.org/oaie/restaurant2-Restaurant85
tRp523
ag2
(Vhttp://www.okkam.org/oaie/restaurant2-Restaurant201
tRp524
ag2
(Vhttp://www.okkam.org/oaie/restaurant2-Address263
tRp525
ag2
(Vhttp://www.okkam.org/oaie/restaurant2-restaurant261
tRp526
ag2
(Vhttp://www.okkam.org/oaie/restaurant2-Address161
tRp527
ag204
ag9
(V1514 n. gower st.
NNtRp528
ag2
(Vhttp://www.okkam.org/oaie/restaurant2-Restaurant36
tRp529
ag2
(Vhttp://www.okkam.org/oaie/restaurant2-Address36
tRp530
ag216
ag9
(V42 e. 20th st.
NNtRp531
ag2
(Vhttp://www.okkam.org/oaie/restaurant2-Category258
tRp532
ag2
(Vhttp://www.okkam.org/oaie/restaurant2-Restaurant616
tRp533
ag2
(Vhttp://www.okkam.org/oaie/restaurant2-Category196
tRp534
ag2
(Vhttp://www.okkam.org/oaie/restaurant2-Address80
tRp535
ag2
(Vhttp://www.okkam.org/oaie/restaurant2-Address629
tRp536
ag2
(Vhttp://www.okkam.org/oaie/restaurant2-Restaurant341
tRp537
ag2
(Vhttp://www.okkam.org/oaie/restaurant2-Category341
tRp538
ag2
(Vhttp://www.okkam.org/oaie/restaurant2-Address599
tRp539
ag2
(Vhttp://www.okkam.org/oaie/restaurant2-Restaurant617
tRp540
ag2
(Vhttp://www.okkam.org/oaie/restaurant2-Address617
tRp541
ag50
ag9
(V9 pell st.
NNtRp542
ag2
(Vhttp://www.okkam.org/oaie/restaurant2-Restaurant431
tRp543
ag2
(Vhttp://www.okkam.org/oaie/restaurant2-Address431
tRp544
ag120
ag9
(V3555 las vegas blvd. s
NNtRp545
ag2
(Vhttp://www.okkam.org/oaie/restaurant2-Restaurant249
tRp546
ag2
(Vhttp://www.okkam.org/oaie/restaurant2-Restaurant748
tRp547
ag2
(Vhttp://www.okkam.org/oaie/restaurant2-Restaurant317
tRp548
ag2
(Vhttp://www.okkam.org/oaie/restaurant2-Restaurant350
tRp549
ag2
(Vhttp://www.okkam.org/oaie/restaurant2-Restaurant663
tRp550
ag2
(Vhttp://www.okkam.org/oaie/restaurant2-Address663
tRp551
ag120
ag9
(V4750 w. sahara ave.
NNtRp552
ag2
(Vhttp://www.okkam.org/oaie/restaurant2-Address630
tRp553
ag2
(Vhttp://www.okkam.org/oaie/restaurant2-Restaurant534
tRp554
ag2
(Vhttp://www.okkam.org/oaie/restaurant2-Restaurant604
tRp555
ag2
(Vhttp://www.okkam.org/oaie/restaurant2-Address435
tRp556
ag2
(Vhttp://www.okkam.org/oaie/restaurant2-Address362
tRp557
ag2
(Vhttp://www.okkam.org/oaie/restaurant2-Restaurant351
tRp558
ag2
(Vhttp://www.okkam.org/oaie/restaurant2-Address87
tRp559
ag28
ag9
(V255 courtland st.
NNtRp560
ag2
(Vhttp://www.okkam.org/oaie/restaurant2-Address113
tRp561
ag2
(Vhttp://www.okkam.org/oaie/restaurant2-Category107
tRp562
ag2
(Vhttp://www.okkam.org/oaie/restaurant2-Category388
tRp563
ag2
(Vhttp://www.okkam.org/oaie/restaurant2-restaurant231
tRp564
ag2
(Vhttp://www.okkam.org/oaie/restaurant2-Restaurant37
tRp565
ag2
(Vhttp://www.okkam.org/oaie/restaurant2-Address660
tRp566
ag2
(Vhttp://www.okkam.org/oaie/restaurant2-Address740
tRp567
ag2
(Vhttp://www.okkam.org/oaie/restaurant2-Restaurant74
tRp568
ag2
(Vhttp://www.okkam.org/oaie/restaurant2-Address453
tRp569
ag2
(Vhttp://www.okkam.org/oaie/restaurant2-Restaurant714
tRp570
ag2
(Vhttp://www.okkam.org/oaie/restaurant2-Category714
tRp571
ag2
(Vhttp://www.okkam.org/oaie/restaurant2-restaurant234
tRp572
ag2
(Vhttp://www.okkam.org/oaie/restaurant2-Category134
tRp573
ag2
(Vhttp://www.okkam.org/oaie/restaurant2-Category252
tRp574
ag2
(Vhttp://www.okkam.org/oaie/restaurant2-Address585
tRp575
ag2
(Vhttp://www.okkam.org/oaie/restaurant2-Category373
tRp576
ag2
(Vhttp://www.okkam.org/oaie/restaurant2-Address125
tRp577
ag204
ag9
(V310 n. larchmont blvd.
NNtRp578
ag2
(Vhttp://www.okkam.org/oaie/restaurant2-Restaurant475
tRp579
ag2
(Vhttp://www.okkam.org/oaie/restaurant2-Address132
tRp580
ag2
(Vhttp://www.okkam.org/oaie/restaurant2-Restaurant705
tRp581
ag2
(Vhttp://www.okkam.org/oaie/restaurant2-Restaurant78
tRp582
ag2
(Vhttp://www.okkam.org/oaie/restaurant2-Restaurant518
tRp583
ag2
(Vhttp://www.okkam.org/oaie/restaurant2-Address201
tRp584
ag2
(Vhttp://www.okkam.org/oaie/restaurant2-Category688
tRp585
ag2
(Vhttp://www.okkam.org/oaie/restaurant2-Restaurant359
tRp586
ag2
(Vhttp://www.okkam.org/oaie/restaurant2-Address359
tRp587
ag54
ag9
(V400 w. 119th st.  between amsterdam and morningside aves.
NNtRp588
ag2
(Vhttp://www.okkam.org/oaie/restaurant2-Restaurant627
tRp589
ag2
(Vhttp://www.okkam.org/oaie/restaurant2-Category627
tRp590
ag2
(Vhttp://www.okkam.org/oaie/restaurant2-Category611
tRp591
ag2
(Vhttp://www.okkam.org/oaie/restaurant2-restaurant23
tRp592
ag2
(Vhttp://www.okkam.org/oaie/restaurant2-Address13
tRp593
ag9
(V8638 w. third st.
NNtRp594
ag204
ag2
(Vhttp://www.okkam.org/oaie/restaurant2-Address15
tRp595
ag2
(Vhttp://www.okkam.org/oaie/restaurant2-Address605
tRp596
ag2
(Vhttp://www.okkam.org/oaie/restaurant2-Category691
tRp597
ag2
(Vhttp://www.okkam.org/oaie/restaurant2-Address8
tRp598
ag2
(Vhttp://www.okkam.org/oaie/restaurant2-Restaurant7
tRp599
ag2
(Vhttp://www.okkam.org/oaie/restaurant2-Restaurant684
tRp600
ag2
(Vhttp://www.okkam.org/oaie/restaurant2-Category456
tRp601
ag2
(Vhttp://www.okkam.org/oaie/restaurant2-Category717
tRp602
ag2
(Vhttp://www.okkam.org/oaie/restaurant2-restaurant242
tRp603
ag2
(Vhttp://www.okkam.org/oaie/restaurant2-Category142
tRp604
ag2
(Vhttp://www.okkam.org/oaie/restaurant2-Address489
tRp605
ag2
(Vhttp://www.okkam.org/oaie/restaurant2-Restaurant487
tRp606
ag2
(Vhttp://www.okkam.org/oaie/restaurant2-Category487
tRp607
ag2
(Vhttp://www.okkam.org/oaie/restaurant2-Restaurant621
tRp608
ag2
(Vhttp://www.okkam.org/oaie/restaurant2-Category621
tRp609
ag2
(Vhttp://www.okkam.org/oaie/restaurant2-Restaurant285
tRp610
ag2
(Vhttp://www.okkam.org/oaie/restaurant2-restaurant210
tRp611
ag2
(Vhttp://www.okkam.org/oaie/restaurant2-Category110
tRp612
ag2
(Vhttp://www.okkam.org/oaie/restaurant2-Address255
tRp613
ag2
(Vhttp://www.okkam.org/oaie/restaurant2-Address351
tRp614
ag2
(Vhttp://www.okkam.org/oaie/restaurant2-Address79
tRp615
ag2
(Vhttp://www.okkam.org/oaie/restaurant2-Category177
tRp616
ag2
(Vhttp://www.okkam.org/oaie/restaurant2-restaurant218
tRp617
ag2
(Vhttp://www.okkam.org/oaie/restaurant2-Address384
tRp618
ag2
(Vhttp://www.okkam.org/oaie/restaurant2-Address328
tRp619
ag2
(Vhttp://www.okkam.org/oaie/restaurant2-Category504
tRp620
ag2
(Vhttp://www.okkam.org/oaie/restaurant2-Address701
tRp621
ag2
(Vhttp://www.okkam.org/oaie/restaurant2-Category679
tRp622
ag2
(Vhttp://www.okkam.org/oaie/restaurant2-Category501
tRp623
ag2
(Vhttp://www.okkam.org/oaie/restaurant2-Restaurant710
tRp624
ag2
(Vhttp://www.okkam.org/oaie/restaurant2-Address710
tRp625
ag9
(V2118 n. decatur rd.
NNtRp626
ag9
(Vdecatur
NNtRp627
ag2
(Vhttp://www.okkam.org/oaie/restaurant2-Restaurant234
tRp628
ag2
(Vhttp://www.okkam.org/oaie/restaurant2-Category220
tRp629
ag2
(Vhttp://www.okkam.org/oaie/restaurant2-Restaurant613
tRp630
ag2
(Vhttp://www.okkam.org/oaie/restaurant2-Restaurant83
tRp631
ag2
(Vhttp://www.okkam.org/oaie/restaurant2-Category83
tRp632
ag2
(Vhttp://www.okkam.org/oaie/restaurant2-Category709
tRp633
ag2
(Vhttp://www.okkam.org/oaie/restaurant2-Restaurant725
tRp634
ag2
(Vhttp://www.okkam.org/oaie/restaurant2-Category725
tRp635
ag2
(Vhttp://www.okkam.org/oaie/restaurant2-Restaurant248
tRp636
ag2
(Vhttp://www.okkam.org/oaie/restaurant2-Category248
tRp637
ag2
(Vhttp://www.okkam.org/oaie/restaurant2-Category161
tRp638
ag2
(Vhttp://www.okkam.org/oaie/restaurant2-Category98
tRp639
ag2
(Vhttp://www.okkam.org/oaie/restaurant2-Category262
tRp640
ag2
(Vhttp://www.okkam.org/oaie/restaurant2-Address497
tRp641
ag2
(Vhttp://www.okkam.org/oaie/restaurant2-Restaurant704
tRp642
ag2
(Vhttp://www.okkam.org/oaie/restaurant2-Category353
tRp643
ag2
(Vhttp://www.okkam.org/oaie/restaurant2-Restaurant610
tRp644
ag2
(Vhttp://www.okkam.org/oaie/restaurant2-Address610
tRp645
ag216
ag9
(V432 sixth ave.
NNtRp646
ag2
(Vhttp://www.okkam.org/oaie/restaurant2-Category515
tRp647
ag2
(Vhttp://www.okkam.org/oaie/restaurant2-Restaurant548
tRp648
ag2
(Vhttp://www.okkam.org/oaie/restaurant2-Address148
tRp649
ag2
(Vhttp://www.okkam.org/oaie/restaurant2-Address702
tRp650
ag2
(Vhttp://www.okkam.org/oaie/restaurant2-Restaurant250
tRp651
ag2
(Vhttp://www.okkam.org/oaie/restaurant2-Category250
tRp652
ag2
(Vhttp://www.okkam.org/oaie/restaurant2-Category198
tRp653
ag2
(Vhttp://www.okkam.org/oaie/restaurant2-Restaurant675
tRp654
ag2
(Vhttp://www.okkam.org/oaie/restaurant2-Category675
tRp655
ag2
(Vhttp://www.okkam.org/oaie/restaurant2-Address586
tRp656
ag2
(Vhttp://www.okkam.org/oaie/restaurant2-Restaurant703
tRp657
ag2
(Vhttp://www.okkam.org/oaie/restaurant2-Address62
tRp658
ag2
(Vhttp://www.okkam.org/oaie/restaurant2-Restaurant23
tRp659
ag2
(Vhttp://www.okkam.org/oaie/restaurant2-Category316
tRp660
ag2
(Vhttp://www.okkam.org/oaie/restaurant2-Category505
tRp661
ag2
(Vhttp://www.okkam.org/oaie/restaurant2-Address248
tRp662
ag2
(Vhttp://www.okkam.org/oaie/restaurant2-Address227
tRp663
ag9
(V341 w. broadway  near grand st.
NNtRp664
ag54
ag2
(Vhttp://www.okkam.org/oaie/restaurant2-Restaurant69
tRp665
ag2
(Vhttp://www.okkam.org/oaie/restaurant2-Address69
tRp666
ag9
(V3000 paradise rd.
NNtRp667
ag120
ag2
(Vhttp://www.okkam.org/oaie/restaurant2-Restaurant440
tRp668
ag2
(Vhttp://www.okkam.org/oaie/restaurant2-Category440
tRp669
ag2
(Vhttp://www.okkam.org/oaie/restaurant2-Restaurant591
tRp670
ag2
(Vhttp://www.okkam.org/oaie/restaurant2-Restaurant731
tRp671
ag2
(Vhttp://www.okkam.org/oaie/restaurant2-Restaurant702
tRp672
ag2
(Vhttp://www.okkam.org/oaie/restaurant2-Category702
tRp673
ag2
(Vhttp://www.okkam.org/oaie/restaurant2-Address415
tRp674
ag2
(Vhttp://www.okkam.org/oaie/restaurant2-restaurant267
tRp675
ag2
(Vhttp://www.okkam.org/oaie/restaurant2-Category167
tRp676
ag2
(Vhttp://www.okkam.org/oaie/restaurant2-Restaurant296
tRp677
ag2
(Vhttp://www.okkam.org/oaie/restaurant2-Category296
tRp678
ag2
(Vhttp://www.okkam.org/oaie/restaurant2-Category467
tRp679
ag2
(Vhttp://www.okkam.org/oaie/restaurant2-Address526
tRp680
ag2
(Vhttp://www.okkam.org/oaie/restaurant2-restaurant214
tRp681
ag2
(Vhttp://www.okkam.org/oaie/restaurant2-Category152
tRp682
ag2
(Vhttp://www.okkam.org/oaie/restaurant2-Restaurant474
tRp683
ag2
(Vhttp://www.okkam.org/oaie/restaurant2-Restaurant68
tRp684
ag2
(Vhttp://www.okkam.org/oaie/restaurant2-Address68
tRp685
ag9
(V3799 las vegas blvd. s.
NNtRp686
ag120
ag2
(Vhttp://www.okkam.org/oaie/restaurant2-Restaurant406
tRp687
ag9
(V1402 n. highland ave.
NNtRp688
ag28
ag2
(Vhttp://www.okkam.org/oaie/restaurant2-Category407
tRp689
ag2
(Vhttp://www.okkam.org/oaie/restaurant2-Address385
tRp690
ag2
(Vhttp://www.okkam.org/oaie/restaurant2-Restaurant8
tRp691
ag2
(Vhttp://www.okkam.org/oaie/restaurant2-Category8
tRp692
ag2
(Vhttp://www.okkam.org/oaie/restaurant2-Address283
tRp693
ag2
(Vhttp://www.okkam.org/oaie/restaurant2-Restaurant270
tRp694
ag2
(Vhttp://www.okkam.org/oaie/restaurant2-restaurant297
tRp695
ag2
(Vhttp://www.okkam.org/oaie/restaurant2-Address197
tRp696
ag9
(V103 waverly pl.  near washington sq.
NNtRp697
ag54
ag2
(Vhttp://www.okkam.org/oaie/restaurant2-Restaurant471
tRp698
ag2
(Vhttp://www.okkam.org/oaie/restaurant2-Restaurant569
tRp699
ag2
(Vhttp://www.okkam.org/oaie/restaurant2-Category472
tRp700
ag2
(Vhttp://www.okkam.org/oaie/restaurant2-Address93
tRp701
ag2
(Vhttp://www.okkam.org/oaie/restaurant2-Restaurant396
tRp702
ag2
(Vhttp://www.okkam.org/oaie/restaurant2-Address396
tRp703
ag9
(V923 peachtree st.  at 8th st.
NNtRp704
ag28
ag2
(Vhttp://www.okkam.org/oaie/restaurant2-Category547
tRp705
ag2
(Vhttp://www.okkam.org/oaie/restaurant2-restaurant226
tRp706
ag204
ag9
(V168 w. colorado blvd.
NNtRp707
ag2
(Vhttp://www.okkam.org/oaie/restaurant2-Category598
tRp708
ag2
(Vhttp://www.okkam.org/oaie/restaurant2-Restaurant4
tRp709
ag2
(Vhttp://www.okkam.org/oaie/restaurant2-Category4
tRp710
ag2
(Vhttp://www.okkam.org/oaie/restaurant2-Category145
tRp711
ag2
(Vhttp://www.okkam.org/oaie/restaurant2-Restaurant477
tRp712
ag2
(Vhttp://www.okkam.org/oaie/restaurant2-Address567
tRp713
ag9
(V8393 w. beverly blvd.
NNtRp714
ag290
ag2
(Vhttp://www.okkam.org/oaie/restaurant2-Restaurant72
tRp715
ag2
(Vhttp://www.okkam.org/oaie/restaurant2-restaurant269
tRp716
ag2
(Vhttp://www.okkam.org/oaie/restaurant2-Address169
tRp717
ag204
ag9
(V9876 wilshire blvd.
NNtRp718
ag2
(Vhttp://www.okkam.org/oaie/restaurant2-Restaurant688
tRp719
ag2
(Vhttp://www.okkam.org/oaie/restaurant2-Address636
tRp720
ag2
(Vhttp://www.okkam.org/oaie/restaurant2-Category336
tRp721
ag2
(Vhttp://www.okkam.org/oaie/restaurant2-Address299
tRp722
ag2
(Vhttp://www.okkam.org/oaie/restaurant2-Restaurant333
tRp723
ag2
(Vhttp://www.okkam.org/oaie/restaurant2-restaurant29
tRp724
ag2
(Vhttp://www.okkam.org/oaie/restaurant2-Category516
tRp725
ag2
(Vhttp://www.okkam.org/oaie/restaurant2-Restaurant449
tRp726
ag2
(Vhttp://www.okkam.org/oaie/restaurant2-Address449
tRp727
ag119
ag120
ag2
(Vhttp://www.okkam.org/oaie/restaurant2-Restaurant54
tRp728
ag2
(Vhttp://www.okkam.org/oaie/restaurant2-Restaurant304
tRp729
ag2
(Vhttp://www.okkam.org/oaie/restaurant2-Category304
tRp730
ag2
(Vhttp://www.okkam.org/oaie/restaurant2-Address63
tRp731
ag2
(Vhttp://www.okkam.org/oaie/restaurant2-Restaurant643
tRp732
ag2
(Vhttp://www.okkam.org/oaie/restaurant2-Address643
tRp733
ag216
ag9
(V38 e. 51st st.
NNtRp734
ag2
(Vhttp://www.okkam.org/oaie/restaurant2-Category663
tRp735
ag2
(Vhttp://www.okkam.org/oaie/restaurant2-Category346
tRp736
ag2
(Vhttp://www.okkam.org/oaie/restaurant2-Restaurant217
tRp737
ag2
(Vhttp://www.okkam.org/oaie/restaurant2-Restaurant722
tRp738
ag2
(Vhttp://www.okkam.org/oaie/restaurant2-Restaurant594
tRp739
ag2
(Vhttp://www.okkam.org/oaie/restaurant2-Restaurant580
tRp740
ag2
(Vhttp://www.okkam.org/oaie/restaurant2-Restaurant562
tRp741
ag2
(Vhttp://www.okkam.org/oaie/restaurant2-Category562
tRp742
ag2
(Vhttp://www.okkam.org/oaie/restaurant2-restaurant215
tRp743
ag2
(Vhttp://www.okkam.org/oaie/restaurant2-Address115
tRp744
ag9
(V176 n. canon dr.
NNtRp745
ag204
ag2
(Vhttp://www.okkam.org/oaie/restaurant2-Category363
tRp746
ag2
(Vhttp://www.okkam.org/oaie/restaurant2-Restaurant631
tRp747
ag2
(Vhttp://www.okkam.org/oaie/restaurant2-Category631
tRp748
ag2
(Vhttp://www.okkam.org/oaie/restaurant2-Address312
tRp749
ag54
ag9
(V32 w. 32nd st.
NNtRp750
ag2
(Vhttp://www.okkam.org/oaie/restaurant2-Category96
tRp751
ag2
(Vhttp://www.okkam.org/oaie/restaurant2-restaurant223
tRp752
ag2
(Vhttp://www.okkam.org/oaie/restaurant2-restaurant220
tRp753
ag2
(Vhttp://www.okkam.org/oaie/restaurant2-Category120
tRp754
ag2
(Vhttp://www.okkam.org/oaie/restaurant2-Category17
tRp755
ag2
(Vhttp://www.okkam.org/oaie/restaurant2-Address289
tRp756
ag2
(Vhttp://www.okkam.org/oaie/restaurant2-Category396
tRp757
ag2
(Vhttp://www.okkam.org/oaie/restaurant2-Address265
tRp758
ag2
(Vhttp://www.okkam.org/oaie/restaurant2-Address448
tRp759
ag2
(Vhttp://www.okkam.org/oaie/restaurant2-Category705
tRp760
ag2
(Vhttp://www.okkam.org/oaie/restaurant2-Address50
tRp761
ag2
(Vhttp://www.okkam.org/oaie/restaurant2-Category19
tRp762
ag2
(Vhttp://www.okkam.org/oaie/restaurant2-restaurant201
tRp763
ag2
(Vhttp://www.okkam.org/oaie/restaurant2-restaurant241
tRp764
ag2
(Vhttp://www.okkam.org/oaie/restaurant2-Category141
tRp765
ag2
(Vhttp://www.okkam.org/oaie/restaurant2-Category211
tRp766
ag2
(Vhttp://www.okkam.org/oaie/restaurant2-Restaurant322
tRp767
ag2
(Vhttp://www.okkam.org/oaie/restaurant2-Restaurant357
tRp768
ag2
(Vhttp://www.okkam.org/oaie/restaurant2-Category357
tRp769
ag2
(Vhttp://www.okkam.org/oaie/restaurant2-Address560
tRp770
ag2
(Vhttp://www.okkam.org/oaie/restaurant2-Restaurant86
tRp771
ag2
(Vhttp://www.okkam.org/oaie/restaurant2-Category259
tRp772
ag2
(Vhttp://www.okkam.org/oaie/restaurant2-Address325
tRp773
ag54
ag9
(V205 e. 45th st.
NNtRp774
ag2
(Vhttp://www.okkam.org/oaie/restaurant2-Restaurant334
tRp775
ag2
(Vhttp://www.okkam.org/oaie/restaurant2-Address596
tRp776
ag2
(Vhttp://www.okkam.org/oaie/restaurant2-Category168
tRp777
ag2
(Vhttp://www.okkam.org/oaie/restaurant2-Address679
tRp778
ag2
(Vhttp://www.okkam.org/oaie/restaurant2-Address413
tRp779
ag9
(V870 n. highland ave.
NNtRp780
ag28
ag2
(Vhttp://www.okkam.org/oaie/restaurant2-Address19
tRp781
ag2
(Vhttp://www.okkam.org/oaie/restaurant2-Category723
tRp782
ag2
(Vhttp://www.okkam.org/oaie/restaurant2-Restaurant538
tRp783
ag2
(Vhttp://www.okkam.org/oaie/restaurant2-Address538
tRp784
ag9
(V1433 third st. promenade
NNtRp785
ag9
(Vsanta monica
NNtRp786
ag2
(Vhttp://www.okkam.org/oaie/restaurant2-Restaurant625
tRp787
ag2
(Vhttp://www.okkam.org/oaie/restaurant2-Restaurant331
tRp788
ag2
(Vhttp://www.okkam.org/oaie/restaurant2-Category331
tRp789
ag2
(Vhttp://www.okkam.org/oaie/restaurant2-Restaurant547
tRp790
ag290
ag9
(V3266 w. sixth st.
NNtRp791
ag2
(Vhttp://www.okkam.org/oaie/restaurant2-restaurant282
tRp792
ag2
(Vhttp://www.okkam.org/oaie/restaurant2-Address412
tRp793
ag2
(Vhttp://www.okkam.org/oaie/restaurant2-Address53
tRp794
ag2
(Vhttp://www.okkam.org/oaie/restaurant2-Address443
tRp795
ag2
(Vhttp://www.okkam.org/oaie/restaurant2-Address708
tRp796
ag2
(Vhttp://www.okkam.org/oaie/restaurant2-Category518
tRp797
ag2
(Vhttp://www.okkam.org/oaie/restaurant2-Restaurant30
tRp798
ag2
(Vhttp://www.okkam.org/oaie/restaurant2-Category30
tRp799
ag2
(Vhttp://www.okkam.org/oaie/restaurant2-Category286
tRp800
ag2
(Vhttp://www.okkam.org/oaie/restaurant2-Restaurant264
tRp801
ag2
(Vhttp://www.okkam.org/oaie/restaurant2-Restaurant428
tRp802
ag2
(Vhttp://www.okkam.org/oaie/restaurant2-Restaurant393
tRp803
ag2
(Vhttp://www.okkam.org/oaie/restaurant2-Category393
tRp804
ag2
(Vhttp://www.okkam.org/oaie/restaurant2-Restaurant451
tRp805
ag2
(Vhttp://www.okkam.org/oaie/restaurant2-Address198
tRp806
ag2
(Vhttp://www.okkam.org/oaie/restaurant2-Restaurant662
tRp807
ag2
(Vhttp://www.okkam.org/oaie/restaurant2-Address662
tRp808
ag120
ag9
(V3300 las vegas blvd. s.
NNtRp809
ag2
(Vhttp://www.okkam.org/oaie/restaurant2-Address211
tRp810
ag2
(Vhttp://www.okkam.org/oaie/restaurant2-Restaurant446
tRp811
ag2
(Vhttp://www.okkam.org/oaie/restaurant2-Restaurant35
tRp812
ag2
(Vhttp://www.okkam.org/oaie/restaurant2-Restaurant332
tRp813
ag2
(Vhttp://www.okkam.org/oaie/restaurant2-Category476
tRp814
ag2
(Vhttp://www.okkam.org/oaie/restaurant2-restaurant279
tRp815
ag2
(Vhttp://www.okkam.org/oaie/restaurant2-Address718
tRp816
ag2
(Vhttp://www.okkam.org/oaie/restaurant2-Restaurant563
tRp817
ag2
(Vhttp://www.okkam.org/oaie/restaurant2-Address634
tRp818
ag2
(Vhttp://www.okkam.org/oaie/restaurant2-Restaurant364
tRp819
ag2
(Vhttp://www.okkam.org/oaie/restaurant2-Category364
tRp820
ag2
(Vhttp://www.okkam.org/oaie/restaurant2-Category493
tRp821
ag2
(Vhttp://www.okkam.org/oaie/restaurant2-Address259
tRp822
ag2
(Vhttp://www.okkam.org/oaie/restaurant2-Address392
tRp823
ag2
(Vhttp://www.okkam.org/oaie/restaurant2-Address57
tRp824
ag2
(Vhttp://www.okkam.org/oaie/restaurant2-Address684
tRp825
ag2
(Vhttp://www.okkam.org/oaie/restaurant2-Category538
tRp826
ag2
(Vhttp://www.okkam.org/oaie/restaurant2-Category256
tRp827
ag2
(Vhttp://www.okkam.org/oaie/restaurant2-Restaurant268
tRp828
ag2
(Vhttp://www.okkam.org/oaie/restaurant2-Category268
tRp829
ag2
(Vhttp://www.okkam.org/oaie/restaurant2-Restaurant204
tRp830
ag2
(Vhttp://www.okkam.org/oaie/restaurant2-Category204
tRp831
ag2
(Vhttp://www.okkam.org/oaie/restaurant2-Restaurant288
tRp832
ag2
(Vhttp://www.okkam.org/oaie/restaurant2-Address288
tRp833
ag54
ag9
(V25 cleveland pl.  near spring st.
NNtRp834
ag2
(Vhttp://www.okkam.org/oaie/restaurant2-Restaurant470
tRp835
ag2
(Vhttp://www.okkam.org/oaie/restaurant2-Address470
tRp836
ag19
ag9
(V1300 battery st.
NNtRp837
ag2
(Vhttp://www.okkam.org/oaie/restaurant2-restaurant277
tRp838
ag2
(Vhttp://www.okkam.org/oaie/restaurant2-Restaurant399
tRp839
ag2
(Vhttp://www.okkam.org/oaie/restaurant2-Address399
tRp840
ag9
(V192 peachtree center ave.  at international blvd.
NNtRp841
ag28
ag2
(Vhttp://www.okkam.org/oaie/restaurant2-Category399
tRp842
ag2
(Vhttp://www.okkam.org/oaie/restaurant2-restaurant293
tRp843
ag2
(Vhttp://www.okkam.org/oaie/restaurant2-Category193
tRp844
ag2
(Vhttp://www.okkam.org/oaie/restaurant2-restaurant285
tRp845
ag2
(Vhttp://www.okkam.org/oaie/restaurant2-Address501
tRp846
ag2
(Vhttp://www.okkam.org/oaie/restaurant2-Restaurant374
tRp847
ag2
(Vhttp://www.okkam.org/oaie/restaurant2-Address204
tRp848
ag54
ag9
(V200 park ave.  between 45th st. and vanderbilt ave.
NNtRp849
ag2
(Vhttp://www.okkam.org/oaie/restaurant2-restaurant28
tRp850
ag2
(Vhttp://www.okkam.org/oaie/restaurant2-Address568
tRp851
ag2
(Vhttp://www.okkam.org/oaie/restaurant2-Address430
tRp852
ag2
(Vhttp://www.okkam.org/oaie/restaurant2-Address536
tRp853
ag2
(Vhttp://www.okkam.org/oaie/restaurant2-Category273
tRp854
ag2
(Vhttp://www.okkam.org/oaie/restaurant2-Restaurant531
tRp855
ag2
(Vhttp://www.okkam.org/oaie/restaurant2-Restaurant677
tRp856
ag2
(Vhttp://www.okkam.org/oaie/restaurant2-Restaurant290
tRp857
ag2
(Vhttp://www.okkam.org/oaie/restaurant2-Category290
tRp858
ag2
(Vhttp://www.okkam.org/oaie/restaurant2-Category163
tRp859
ag2
(Vhttp://www.okkam.org/oaie/restaurant2-Category182
tRp860
ag2
(Vhttp://www.okkam.org/oaie/restaurant2-restaurant208
tRp861
ag2
(Vhttp://www.okkam.org/oaie/restaurant2-Category108
tRp862
ag2
(Vhttp://www.okkam.org/oaie/restaurant2-restaurant248
tRp863
ag204
ag9
(V8764 melrose ave.
NNtRp864
ag2
(Vhttp://www.okkam.org/oaie/restaurant2-Address56
tRp865
ag2
(Vhttp://www.okkam.org/oaie/restaurant2-Category678
tRp866
ag2
(Vhttp://www.okkam.org/oaie/restaurant2-Restaurant540
tRp867
ag2
(Vhttp://www.okkam.org/oaie/restaurant2-Category578
tRp868
ag2
(Vhttp://www.okkam.org/oaie/restaurant2-Address76
tRp869
ag2
(Vhttp://www.okkam.org/oaie/restaurant2-Restaurant207
tRp870
ag2
(Vhttp://www.okkam.org/oaie/restaurant2-Restaurant65
tRp871
ag2
(Vhttp://www.okkam.org/oaie/restaurant2-Address26
tRp872
ag2
(Vhttp://www.okkam.org/oaie/restaurant2-Restaurant404
tRp873
ag786
ag9
(V2628 wilshire blvd.
NNtRp874
ag2
(Vhttp://www.okkam.org/oaie/restaurant2-Restaurant287
tRp875
ag2
(Vhttp://www.okkam.org/oaie/restaurant2-Category287
tRp876
ag2
(Vhttp://www.okkam.org/oaie/restaurant2-Address185
tRp877
ag2
(Vhttp://www.okkam.org/oaie/restaurant2-Restaurant651
tRp878
ag2
(Vhttp://www.okkam.org/oaie/restaurant2-Address694
tRp879
ag28
ag9
(V171 mcdonough blvd.
NNtRp880
ag2
(Vhttp://www.okkam.org/oaie/restaurant2-Category478
tRp881
ag2
(Vhttp://www.okkam.org/oaie/restaurant2-Restaurant447
tRp882
ag2
(Vhttp://www.okkam.org/oaie/restaurant2-Category447
tRp883
ag2
(Vhttp://www.okkam.org/oaie/restaurant2-Restaurant292
tRp884
ag2
(Vhttp://www.okkam.org/oaie/restaurant2-Restaurant223
tRp885
ag2
(Vhttp://www.okkam.org/oaie/restaurant2-Category531
tRp886
ag2
(Vhttp://www.okkam.org/oaie/restaurant2-Restaurant488
tRp887
ag2
(Vhttp://www.okkam.org/oaie/restaurant2-Category751
tRp888
ag2
(Vhttp://www.okkam.org/oaie/restaurant2-restaurant213
tRp889
ag9
(V9570 wilshire blvd.
NNtRp890
ag9
(Vbeverly hills
NNtRp891
ag2
(Vhttp://www.okkam.org/oaie/restaurant2-Restaurant666
tRp892
ag2
(Vhttp://www.okkam.org/oaie/restaurant2-Category348
tRp893
ag2
(Vhttp://www.okkam.org/oaie/restaurant2-Restaurant595
tRp894
ag2
(Vhttp://www.okkam.org/oaie/restaurant2-Address549
tRp895
ag2
(Vhttp://www.okkam.org/oaie/restaurant2-Restaurant56
tRp896
ag2
(Vhttp://www.okkam.org/oaie/restaurant2-Address372
tRp897
ag2
(Vhttp://www.okkam.org/oaie/restaurant2-restaurant260
tRp898
ag2
(Vhttp://www.okkam.org/oaie/restaurant2-Address171
tRp899
ag2
(Vhttp://www.okkam.org/oaie/restaurant2-Restaurant305
tRp900
ag2
(Vhttp://www.okkam.org/oaie/restaurant2-Category305
tRp901
ag2
(Vhttp://www.okkam.org/oaie/restaurant2-Address563
tRp902
ag2
(Vhttp://www.okkam.org/oaie/restaurant2-Restaurant259
tRp903
ag2
(Vhttp://www.okkam.org/oaie/restaurant2-Address587
tRp904
ag2
(Vhttp://www.okkam.org/oaie/restaurant2-Category84
tRp905
ag2
(Vhttp://www.okkam.org/oaie/restaurant2-Category36
tRp906
ag9
(V82 e. 3rd st.  between 1st and 2nd aves.
NNtRp907
ag54
ag2
(Vhttp://www.okkam.org/oaie/restaurant2-Address257
tRp908
ag2
(Vhttp://www.okkam.org/oaie/restaurant2-Category411
tRp909
ag2
(Vhttp://www.okkam.org/oaie/restaurant2-Address493
tRp910
ag2
(Vhttp://www.okkam.org/oaie/restaurant2-Restaurant711
tRp911
ag2
(Vhttp://www.okkam.org/oaie/restaurant2-Address326
tRp912
ag2
(Vhttp://www.okkam.org/oaie/restaurant2-Address123
tRp913
ag2
(Vhttp://www.okkam.org/oaie/restaurant2-Category335
tRp914
ag2
(Vhttp://www.okkam.org/oaie/restaurant2-Restaurant660
tRp915
ag2
(Vhttp://www.okkam.org/oaie/restaurant2-Address677
tRp916
ag9
(V1134 euclid ave.
NNtRp917
ag28
ag2
(Vhttp://www.okkam.org/oaie/restaurant2-Restaurant500
tRp918
ag2
(Vhttp://www.okkam.org/oaie/restaurant2-Restaurant98
tRp919
ag2
(Vhttp://www.okkam.org/oaie/restaurant2-Category174
tRp920
ag2
(Vhttp://www.okkam.org/oaie/restaurant2-Category571
tRp921
ag2
(Vhttp://www.okkam.org/oaie/restaurant2-Restaurant215
tRp922
ag2
(Vhttp://www.okkam.org/oaie/restaurant2-Restaurant73
tRp923
ag2
(Vhttp://www.okkam.org/oaie/restaurant2-Category73
tRp924
ag2
(Vhttp://www.okkam.org/oaie/restaurant2-Restaurant523
tRp925
ag2
(Vhttp://www.okkam.org/oaie/restaurant2-Address523
tRp926
ag9
(V600 montgomery st.
NNtRp927
ag19
ag2
(Vhttp://www.okkam.org/oaie/restaurant2-Address473
tRp928
ag2
(Vhttp://www.okkam.org/oaie/restaurant2-Category239
tRp929
ag2
(Vhttp://www.okkam.org/oaie/restaurant2-Category398
tRp930
ag2
(Vhttp://www.okkam.org/oaie/restaurant2-Restaurant460
tRp931
ag2
(Vhttp://www.okkam.org/oaie/restaurant2-Address460
tRp932
ag19
ag9
(V800 greenwich st.
NNtRp933
ag2
(Vhttp://www.okkam.org/oaie/restaurant2-Category121
tRp934
ag2
(Vhttp://www.okkam.org/oaie/restaurant2-Address241
tRp935
ag2
(Vhttp://www.okkam.org/oaie/restaurant2-Address690
tRp936
ag2
(Vhttp://www.okkam.org/oaie/restaurant2-Address234
tRp937
ag2
(Vhttp://www.okkam.org/oaie/restaurant2-Restaurant503
tRp938
ag2
(Vhttp://www.okkam.org/oaie/restaurant2-Address503
tRp939
ag19
ag9
(V640 sacramento st.
NNtRp940
ag2
(Vhttp://www.okkam.org/oaie/restaurant2-Restaurant713
tRp941
ag2
(Vhttp://www.okkam.org/oaie/restaurant2-Category713
tRp942
ag2
(Vhttp://www.okkam.org/oaie/restaurant2-Restaurant84
tRp943
ag2
(Vhttp://www.okkam.org/oaie/restaurant2-Address511
tRp944
ag2
(Vhttp://www.okkam.org/oaie/restaurant2-Address273
tRp945
ag2
(Vhttp://www.okkam.org/oaie/restaurant2-Category324
tRp946
ag2
(Vhttp://www.okkam.org/oaie/restaurant2-Category318
tRp947
ag2
(Vhttp://www.okkam.org/oaie/restaurant2-Address499
tRp948
ag2
(Vhttp://www.okkam.org/oaie/restaurant2-Restaurant644
tRp949
ag2
(Vhttp://www.okkam.org/oaie/restaurant2-Category644
tRp950
ag2
(Vhttp://www.okkam.org/oaie/restaurant2-Restaurant241
tRp951
ag2
(Vhttp://www.okkam.org/oaie/restaurant2-Restaurant278
tRp952
ag2
(Vhttp://www.okkam.org/oaie/restaurant2-Category555
tRp953
ag2
(Vhttp://www.okkam.org/oaie/restaurant2-Restaurant747
tRp954
ag2
(Vhttp://www.okkam.org/oaie/restaurant2-Category747
tRp955
ag2
(Vhttp://www.okkam.org/oaie/restaurant2-Address650
tRp956
ag2
(Vhttp://www.okkam.org/oaie/restaurant2-Restaurant629
tRp957
ag2
(Vhttp://www.okkam.org/oaie/restaurant2-Category746
tRp958
ag2
(Vhttp://www.okkam.org/oaie/restaurant2-Address562
tRp959
ag2
(Vhttp://www.okkam.org/oaie/restaurant2-Category202
tRp960
ag2
(Vhttp://www.okkam.org/oaie/restaurant2-Category270
tRp961
ag2
(Vhttp://www.okkam.org/oaie/restaurant2-Category235
tRp962
ag2
(Vhttp://www.okkam.org/oaie/restaurant2-Restaurant719
tRp963
ag2
(Vhttp://www.okkam.org/oaie/restaurant2-Category734
tRp964
ag2
(Vhttp://www.okkam.org/oaie/restaurant2-Address437
tRp965
ag2
(Vhttp://www.okkam.org/oaie/restaurant2-restaurant283
tRp966
ag2
(Vhttp://www.okkam.org/oaie/restaurant2-Category183
tRp967
ag2
(Vhttp://www.okkam.org/oaie/restaurant2-Address105
tRp968
ag9
(V816 folsom st.
NNtRp969
ag19
ag2
(Vhttp://www.okkam.org/oaie/restaurant2-Category65
tRp970
ag2
(Vhttp://www.okkam.org/oaie/restaurant2-Restaurant655
tRp971
ag2
(Vhttp://www.okkam.org/oaie/restaurant2-Category659
tRp972
ag2
(Vhttp://www.okkam.org/oaie/restaurant2-Category480
tRp973
ag2
(Vhttp://www.okkam.org/oaie/restaurant2-Address407
tRp974
ag2
(Vhttp://www.okkam.org/oaie/restaurant2-Address498
tRp975
ag2
(Vhttp://www.okkam.org/oaie/restaurant2-Restaurant352
tRp976
ag2
(Vhttp://www.okkam.org/oaie/restaurant2-Address352
tRp977
ag54
ag9
(V834 7th ave.  between 53rd and 54th sts.
NNtRp978
ag2
(Vhttp://www.okkam.org/oaie/restaurant2-Address495
tRp979
ag2
(Vhttp://www.okkam.org/oaie/restaurant2-Restaurant520
tRp980
ag2
(Vhttp://www.okkam.org/oaie/restaurant2-Category520
tRp981
ag2
(Vhttp://www.okkam.org/oaie/restaurant2-restaurant256
tRp982
ag2
(Vhttp://www.okkam.org/oaie/restaurant2-Category156
tRp983
ag2
(Vhttp://www.okkam.org/oaie/restaurant2-Restaurant383
tRp984
ag2
(Vhttp://www.okkam.org/oaie/restaurant2-Address383
tRp985
ag28
ag9
(V265 pharr rd.
NNtRp986
ag2
(Vhttp://www.okkam.org/oaie/restaurant2-Address515
tRp987
ag2
(Vhttp://www.okkam.org/oaie/restaurant2-Address52
tRp988
ag216
ag9
(V182 w. 58th st.
NNtRp989
ag2
(Vhttp://www.okkam.org/oaie/restaurant2-Restaurant606
tRp990
ag2
(Vhttp://www.okkam.org/oaie/restaurant2-Restaurant622
tRp991
ag2
(Vhttp://www.okkam.org/oaie/restaurant2-Address622
tRp992
ag216
ag9
(V2199 broadway
NNtRp993
ag2
(Vhttp://www.okkam.org/oaie/restaurant2-Category118
tRp994
ag2
(Vhttp://www.okkam.org/oaie/restaurant2-Restaurant511
tRp995
ag2
(Vhttp://www.okkam.org/oaie/restaurant2-restaurant289
tRp996
ag2
(Vhttp://www.okkam.org/oaie/restaurant2-Address134
tRp997
ag2
(Vhttp://www.okkam.org/oaie/restaurant2-Category82
tRp998
ag2
(Vhttp://www.okkam.org/oaie/restaurant2-Restaurant49
tRp999
ag2
(Vhttp://www.okkam.org/oaie/restaurant2-Restaurant298
tRp1000
ag2
(Vhttp://www.okkam.org/oaie/restaurant2-Category359
tRp1001
ag2
(Vhttp://www.okkam.org/oaie/restaurant2-Address168
tRp1002
ag2
(Vhttp://www.okkam.org/oaie/restaurant2-Category586
tRp1003
ag2
(Vhttp://www.okkam.org/oaie/restaurant2-restaurant24
tRp1004
ag2
(Vhttp://www.okkam.org/oaie/restaurant2-Restaurant614
tRp1005
ag2
(Vhttp://www.okkam.org/oaie/restaurant2-Restaurant343
tRp1006
ag2
(Vhttp://www.okkam.org/oaie/restaurant2-Address343
tRp1007
ag9
(V1000 madison ave.  between 77th and 78th sts.
NNtRp1008
ag54
ag9
(V624 s. la brea ave.
NNtRp1009
ag204
ag28
ag9
(V1 margaret mitchell sq.
NNtRp1010
ag2
(Vhttp://www.okkam.org/oaie/restaurant2-Address704
tRp1011
ag9
(V303 peachtree st. ne
NNtRp1012
ag28
ag2
(Vhttp://www.okkam.org/oaie/restaurant2-Restaurant387
tRp1013
ag2
(Vhttp://www.okkam.org/oaie/restaurant2-Restaurant602
tRp1014
ag2
(Vhttp://www.okkam.org/oaie/restaurant2-Address602
tRp1015
ag9
(V764 ninth ave.
NNtRp1016
ag216
ag2
(Vhttp://www.okkam.org/oaie/restaurant2-Restaurant672
tRp1017
ag2
(Vhttp://www.okkam.org/oaie/restaurant2-Address672
tRp1018
ag9
(V129 fremont st.
NNtRp1019
ag120
ag2
(Vhttp://www.okkam.org/oaie/restaurant2-Restaurant619
tRp1020
ag2
(Vhttp://www.okkam.org/oaie/restaurant2-Category619
tRp1021
ag2
(Vhttp://www.okkam.org/oaie/restaurant2-Category645
tRp1022
ag9
(V4663 long beach blvd.
NNtRp1023
ag9
(Vlong beach
NNtRp1024
ag2
(Vhttp://www.okkam.org/oaie/restaurant2-Category178
tRp1025
ag2
(Vhttp://www.okkam.org/oaie/restaurant2-Address314
tRp1026
ag2
(Vhttp://www.okkam.org/oaie/restaurant2-Restaurant255
tRp1027
ag54
ag9
(V15 fulton st.
NNtRp1028
ag2
(Vhttp://www.okkam.org/oaie/restaurant2-restaurant280
tRp1029
ag2
(Vhttp://www.okkam.org/oaie/restaurant2-Address180
tRp1030
ag54
ag9
(V2 park ave. at 32nd st.
NNtRp1031
ag2
(Vhttp://www.okkam.org/oaie/restaurant2-Restaurant62
tRp1032
ag2
(Vhttp://www.okkam.org/oaie/restaurant2-Restaurant329
tRp1033
ag2
(Vhttp://www.okkam.org/oaie/restaurant2-Restaurant736
tRp1034
ag2
(Vhttp://www.okkam.org/oaie/restaurant2-Restaurant373
tRp1035
ag2
(Vhttp://www.okkam.org/oaie/restaurant2-Address74
tRp1036
ag9
(V2355 peachtree rd. ne
NNtRp1037
ag28
ag2
(Vhttp://www.okkam.org/oaie/restaurant2-Address655
tRp1038
ag2
(Vhttp://www.okkam.org/oaie/restaurant2-Address528
tRp1039
ag2
(Vhttp://www.okkam.org/oaie/restaurant2-Restaurant63
tRp1040
ag2
(Vhttp://www.okkam.org/oaie/restaurant2-Category63
tRp1041
ag2
(Vhttp://www.okkam.org/oaie/restaurant2-Address578
tRp1042
ag290
ag9
(V8474 w. third st.
NNtRp1043
ag2
(Vhttp://www.okkam.org/oaie/restaurant2-Restaurant386
tRp1044
ag2
(Vhttp://www.okkam.org/oaie/restaurant2-Address390
tRp1045
ag2
(Vhttp://www.okkam.org/oaie/restaurant2-Address541
tRp1046
ag2
(Vhttp://www.okkam.org/oaie/restaurant2-Address82
tRp1047
ag2
(Vhttp://www.okkam.org/oaie/restaurant2-Category404
tRp1048
ag2
(Vhttp://www.okkam.org/oaie/restaurant2-Address481
tRp1049
ag2
(Vhttp://www.okkam.org/oaie/restaurant2-Address588
tRp1050
ag2
(Vhttp://www.okkam.org/oaie/restaurant2-Category242
tRp1051
ag2
(Vhttp://www.okkam.org/oaie/restaurant2-Address680
tRp1052
ag2
(Vhttp://www.okkam.org/oaie/restaurant2-Restaurant355
tRp1053
ag2
(Vhttp://www.okkam.org/oaie/restaurant2-restaurant228
tRp1054
ag2
(Vhttp://www.okkam.org/oaie/restaurant2-Restaurant656
tRp1055
ag2
(Vhttp://www.okkam.org/oaie/restaurant2-Address656
tRp1056
ag9
(V401 s. 6th st.
NNtRp1057
ag120
ag2
(Vhttp://www.okkam.org/oaie/restaurant2-Restaurant741
tRp1058
ag9
(V3391 peachtree rd. ne
NNtRp1059
ag28
ag2
(Vhttp://www.okkam.org/oaie/restaurant2-Category162
tRp1060
ag2
(Vhttp://www.okkam.org/oaie/restaurant2-Address111
tRp1061
ag19
ag9
(V532 columbus ave.
NNtRp1062
ag2
(Vhttp://www.okkam.org/oaie/restaurant2-Address322
tRp1063
ag2
(Vhttp://www.okkam.org/oaie/restaurant2-Restaurant240
tRp1064
ag2
(Vhttp://www.okkam.org/oaie/restaurant2-Restaurant443
tRp1065
ag2
(Vhttp://www.okkam.org/oaie/restaurant2-Category443
tRp1066
ag2
(Vhttp://www.okkam.org/oaie/restaurant2-Restaurant683
tRp1067
ag2
(Vhttp://www.okkam.org/oaie/restaurant2-Category683
tRp1068
ag2
(Vhttp://www.okkam.org/oaie/restaurant2-Restaurant524
tRp1069
ag2
(Vhttp://www.okkam.org/oaie/restaurant2-Address524
tRp1070
ag19
ag9
(V2125 fillmore st.
NNtRp1071
ag2
(Vhttp://www.okkam.org/oaie/restaurant2-Category115
tRp1072
ag2
(Vhttp://www.okkam.org/oaie/restaurant2-Category14
tRp1073
ag2
(Vhttp://www.okkam.org/oaie/restaurant2-Restaurant507
tRp1074
ag2
(Vhttp://www.okkam.org/oaie/restaurant2-Category445
tRp1075
ag2
(Vhttp://www.okkam.org/oaie/restaurant2-Address616
tRp1076
ag2
(Vhttp://www.okkam.org/oaie/restaurant2-Address286
tRp1077
ag2
(Vhttp://www.okkam.org/oaie/restaurant2-Address416
tRp1078
ag2
(Vhttp://www.okkam.org/oaie/restaurant2-Category92
tRp1079
ag2
(Vhttp://www.okkam.org/oaie/restaurant2-Restaurant94
tRp1080
ag2
(Vhttp://www.okkam.org/oaie/restaurant2-Address144
tRp1081
ag2
(Vhttp://www.okkam.org/oaie/restaurant2-Restaurant575
tRp1082
ag2
(Vhttp://www.okkam.org/oaie/restaurant2-Category575
tRp1083
ag2
(Vhttp://www.okkam.org/oaie/restaurant2-Restaurant48
tRp1084
ag2
(Vhttp://www.okkam.org/oaie/restaurant2-Address48
tRp1085
ag9
(V57 jane st.
NNtRp1086
ag216
ag2
(Vhttp://www.okkam.org/oaie/restaurant2-Restaurant412
tRp1087
ag9
(V500 pharr rd.
NNtRp1088
ag28
ag2
(Vhttp://www.okkam.org/oaie/restaurant2-Address550
tRp1089
ag2
(Vhttp://www.okkam.org/oaie/restaurant2-Address653
tRp1090
ag2
(Vhttp://www.okkam.org/oaie/restaurant2-Address748
tRp1091
ag2
(Vhttp://www.okkam.org/oaie/restaurant2-Restaurant486
tRp1092
ag2
(Vhttp://www.okkam.org/oaie/restaurant2-Address486
tRp1093
ag9
(V5116 geary blvd.
NNtRp1094
ag19
ag2
(Vhttp://www.okkam.org/oaie/restaurant2-Restaurant550
tRp1095
ag2
(Vhttp://www.okkam.org/oaie/restaurant2-Restaurant211
tRp1096
ag2
(Vhttp://www.okkam.org/oaie/restaurant2-Address376
tRp1097
ag2
(Vhttp://www.okkam.org/oaie/restaurant2-Category573
tRp1098
ag2
(Vhttp://www.okkam.org/oaie/restaurant2-Category355
tRp1099
ag2
(Vhttp://www.okkam.org/oaie/restaurant2-Category636
tRp1100
ag2
(Vhttp://www.okkam.org/oaie/restaurant2-Category446
tRp1101
ag2
(Vhttp://www.okkam.org/oaie/restaurant2-Category333
tRp1102
ag2
(Vhttp://www.okkam.org/oaie/restaurant2-Address433
tRp1103
ag2
(Vhttp://www.okkam.org/oaie/restaurant2-Address213
tRp1104
ag2
(Vhttp://www.okkam.org/oaie/restaurant2-Restaurant59
tRp1105
ag2
(Vhttp://www.okkam.org/oaie/restaurant2-Address59
tRp1106
ag9
(V11 e. 53rd st.
NNtRp1107
ag216
ag2
(Vhttp://www.okkam.org/oaie/restaurant2-Address348
tRp1108
ag9
(V58 w. 65th st.
NNtRp1109
ag54
ag2
(Vhttp://www.okkam.org/oaie/restaurant2-Restaurant33
tRp1110
ag2
(Vhttp://www.okkam.org/oaie/restaurant2-Category740
tRp1111
ag2
(Vhttp://www.okkam.org/oaie/restaurant2-Restaurant636
tRp1112
ag2
(Vhttp://www.okkam.org/oaie/restaurant2-Restaurant5
tRp1113
ag2
(Vhttp://www.okkam.org/oaie/restaurant2-Address5
tRp1114
ag9
(V2709 main st.
NNtRp1115
ag786
ag2
(Vhttp://www.okkam.org/oaie/restaurant2-Address410
tRp1116
ag2
(Vhttp://www.okkam.org/oaie/restaurant2-Category41
tRp1117
ag2
(Vhttp://www.okkam.org/oaie/restaurant2-Address240
tRp1118
ag2
(Vhttp://www.okkam.org/oaie/restaurant2-Restaurant376
tRp1119
ag54
ag9
(V174 1st ave.  between 10th and 11th sts.
NNtRp1120
ag2
(Vhttp://www.okkam.org/oaie/restaurant2-Category469
tRp1121
ag2
(Vhttp://www.okkam.org/oaie/restaurant2-Address566
tRp1122
ag2
(Vhttp://www.okkam.org/oaie/restaurant2-Restaurant618
tRp1123
ag2
(Vhttp://www.okkam.org/oaie/restaurant2-Restaurant395
tRp1124
ag2
(Vhttp://www.okkam.org/oaie/restaurant2-Address666
tRp1125
ag120
ag9
(V3400 las vegas blvd. s.
NNtRp1126
ag2
(Vhttp://www.okkam.org/oaie/restaurant2-Category613
tRp1127
ag2
(Vhttp://www.okkam.org/oaie/restaurant2-Category158
tRp1128
ag2
(Vhttp://www.okkam.org/oaie/restaurant2-Restaurant417
tRp1129
ag2
(Vhttp://www.okkam.org/oaie/restaurant2-Restaurant584
tRp1130
ag2
(Vhttp://www.okkam.org/oaie/restaurant2-Category584
tRp1131
ag2
(Vhttp://www.okkam.org/oaie/restaurant2-Address141
tRp1132
ag2
(Vhttp://www.okkam.org/oaie/restaurant2-Category488
tRp1133
ag2
(Vhttp://www.okkam.org/oaie/restaurant2-Address548
tRp1134
ag2
(Vhttp://www.okkam.org/oaie/restaurant2-Restaurant599
tRp1135
ag2
(Vhttp://www.okkam.org/oaie/restaurant2-Category345
tRp1136
ag2
(Vhttp://www.okkam.org/oaie/restaurant2-Category450
tRp1137
ag2
(Vhttp://www.okkam.org/oaie/restaurant2-restaurant249
tRp1138
ag2
(Vhttp://www.okkam.org/oaie/restaurant2-Address149
tRp1139
ag9
(V414 n. beverly dr.
NNtRp1140
ag204
ag2
(Vhttp://www.okkam.org/oaie/restaurant2-Restaurant728
tRp1141
ag2
(Vhttp://www.okkam.org/oaie/restaurant2-Category728
tRp1142
ag2
(Vhttp://www.okkam.org/oaie/restaurant2-Address45
tRp1143
ag2
(Vhttp://www.okkam.org/oaie/restaurant2-Address445
tRp1144
ag2
(Vhttp://www.okkam.org/oaie/restaurant2-Address268
tRp1145
ag54
ag9
(V492 broome st.  near w. broadway
NNtRp1146
ag2
(Vhttp://www.okkam.org/oaie/restaurant2-Restaurant51
tRp1147
ag2
(Vhttp://www.okkam.org/oaie/restaurant2-Address504
tRp1148
ag2
(Vhttp://www.okkam.org/oaie/restaurant2-Restaurant394
tRp1149
ag2
(Vhttp://www.okkam.org/oaie/restaurant2-Category500
tRp1150
ag2
(Vhttp://www.okkam.org/oaie/restaurant2-Restaurant275
tRp1151
ag2
(Vhttp://www.okkam.org/oaie/restaurant2-restaurant236
tRp1152
ag2
(Vhttp://www.okkam.org/oaie/restaurant2-Address136
tRp1153
ag9
(Vpacific palisades
NNtRp1154
ag9
(V4 fish 17300 pacific coast hwy. at sunset blvd.
NNtRp1155
ag2
(Vhttp://www.okkam.org/oaie/restaurant2-Restaurant752
tRp1156
ag2
(Vhttp://www.okkam.org/oaie/restaurant2-Address752
tRp1157
ag19
ag9
(V2141 polk st.
NNtRp1158
ag28
ag9
(V4199 paces ferry rd.
NNtRp1159
ag2
(Vhttp://www.okkam.org/oaie/restaurant2-Restaurant272
tRp1160
ag2
(Vhttp://www.okkam.org/oaie/restaurant2-Address272
tRp1161
ag9
(V68 w. 58th st.
NNtRp1162
ag54
ag2
(Vhttp://www.okkam.org/oaie/restaurant2-Address703
tRp1163
ag2
(Vhttp://www.okkam.org/oaie/restaurant2-Restaurant536
tRp1164
ag2
(Vhttp://www.okkam.org/oaie/restaurant2-Category536
tRp1165
ag2
(Vhttp://www.okkam.org/oaie/restaurant2-Restaurant407
tRp1166
ag2
(Vhttp://www.okkam.org/oaie/restaurant2-Category125
tRp1167
ag2
(Vhttp://www.okkam.org/oaie/restaurant2-Category607
tRp1168
ag2
(Vhttp://www.okkam.org/oaie/restaurant2-Restaurant95
tRp1169
ag2
(Vhttp://www.okkam.org/oaie/restaurant2-Address543
tRp1170
ag2
(Vhttp://www.okkam.org/oaie/restaurant2-Address531
tRp1171
ag2
(Vhttp://www.okkam.org/oaie/restaurant2-Address285
tRp1172
ag2
(Vhttp://www.okkam.org/oaie/restaurant2-Restaurant715
tRp1173
ag2
(Vhttp://www.okkam.org/oaie/restaurant2-Restaurant32
tRp1174
ag216
ag9
(V210 e. 58th st.
NNtRp1175
ag2
(Vhttp://www.okkam.org/oaie/restaurant2-Restaurant480
tRp1176
ag2
(Vhttp://www.okkam.org/oaie/restaurant2-Address480
tRp1177
ag9
(V5322 geary blvd.
NNtRp1178
ag19
ag2
(Vhttp://www.okkam.org/oaie/restaurant2-Category406
tRp1179
ag2
(Vhttp://www.okkam.org/oaie/restaurant2-restaurant299
tRp1180
ag2
(Vhttp://www.okkam.org/oaie/restaurant2-Address199
tRp1181
ag9
(V1486 2nd ave.  between 77th and 78th sts.
NNtRp1182
ag54
ag2
(Vhttp://www.okkam.org/oaie/restaurant2-restaurant291
tRp1183
ag2
(Vhttp://www.okkam.org/oaie/restaurant2-Category191
tRp1184
ag2
(Vhttp://www.okkam.org/oaie/restaurant2-Restaurant342
tRp1185
ag2
(Vhttp://www.okkam.org/oaie/restaurant2-Restaurant476
tRp1186
ag2
(Vhttp://www.okkam.org/oaie/restaurant2-Address295
tRp1187
ag2
(Vhttp://www.okkam.org/oaie/restaurant2-restaurant270
tRp1188
ag2
(Vhttp://www.okkam.org/oaie/restaurant2-Address170
tRp1189
ag9
(V1930 north hillhurst ave.
NNtRp1190
ag9
(Vlos feliz
NNtRp1191
ag2
(Vhttp://www.okkam.org/oaie/restaurant2-Restaurant729
tRp1192
ag2
(Vhttp://www.okkam.org/oaie/restaurant2-Category475
tRp1193
ag2
(Vhttp://www.okkam.org/oaie/restaurant2-Category197
tRp1194
ag2
(Vhttp://www.okkam.org/oaie/restaurant2-Restaurant587
tRp1195
ag2
(Vhttp://www.okkam.org/oaie/restaurant2-Restaurant398
tRp1196
ag2
(Vhttp://www.okkam.org/oaie/restaurant2-Address751
tRp1197
ag19
ag9
(V201 ivy st.
NNtRp1198
ag2
(Vhttp://www.okkam.org/oaie/restaurant2-Address183
tRp1199
ag54
ag9
(V106 w. houston st.  off thompson st.
NNtRp1200
ag2
(Vhttp://www.okkam.org/oaie/restaurant2-Category687
tRp1201
ag2
(Vhttp://www.okkam.org/oaie/restaurant2-Category622
tRp1202
ag2
(Vhttp://www.okkam.org/oaie/restaurant2-Restaurant430
tRp1203
ag2
(Vhttp://www.okkam.org/oaie/restaurant2-Category430
tRp1204
ag2
(Vhttp://www.okkam.org/oaie/restaurant2-Address35
tRp1205
ag2
(Vhttp://www.okkam.org/oaie/restaurant2-Category546
tRp1206
ag9
(V2000 hyde st.
NNtRp1207
ag19
ag2
(Vhttp://www.okkam.org/oaie/restaurant2-Category529
tRp1208
ag2
(Vhttp://www.okkam.org/oaie/restaurant2-Restaurant236
tRp1209
ag2
(Vhttp://www.okkam.org/oaie/restaurant2-Category236
tRp1210
ag2
(Vhttp://www.okkam.org/oaie/restaurant2-Category165
tRp1211
ag2
(Vhttp://www.okkam.org/oaie/restaurant2-Address215
tRp1212
ag2
(Vhttp://www.okkam.org/oaie/restaurant2-Category604
tRp1213
ag2
(Vhttp://www.okkam.org/oaie/restaurant2-Address11
tRp1214
ag2
(Vhttp://www.okkam.org/oaie/restaurant2-Restaurant478
tRp1215
ag2
(Vhttp://www.okkam.org/oaie/restaurant2-Restaurant339
tRp1216
ag2
(Vhttp://www.okkam.org/oaie/restaurant2-Category386
tRp1217
ag2
(Vhttp://www.okkam.org/oaie/restaurant2-Address304
tRp1218
ag2
(Vhttp://www.okkam.org/oaie/restaurant2-Restaurant306
tRp1219
ag2
(Vhttp://www.okkam.org/oaie/restaurant2-Address24
tRp1220
ag2
(Vhttp://www.okkam.org/oaie/restaurant2-Restaurant96
tRp1221
ag2
(Vhttp://www.okkam.org/oaie/restaurant2-Address96
tRp1222
ag19
ag9
(V1 mission st.
NNtRp1223
ag2
(Vhttp://www.okkam.org/oaie/restaurant2-restaurant26
tRp1224
ag204
ag9
(V5955 melrose ave.
NNtRp1225
ag2
(Vhttp://www.okkam.org/oaie/restaurant2-Address731
tRp1226
ag2
(Vhttp://www.okkam.org/oaie/restaurant2-Category269
tRp1227
ag2
(Vhttp://www.okkam.org/oaie/restaurant2-Category144
tRp1228
ag2
(Vhttp://www.okkam.org/oaie/restaurant2-Address658
tRp1229
ag2
(Vhttp://www.okkam.org/oaie/restaurant2-Address358
tRp1230
ag2
(Vhttp://www.okkam.org/oaie/restaurant2-Address235
tRp1231
ag2
(Vhttp://www.okkam.org/oaie/restaurant2-Address741
tRp1232
ag9
(V631 larkin st.
NNtRp1233
ag19
ag2
(Vhttp://www.okkam.org/oaie/restaurant2-Restaurant645
tRp1234
ag2
(Vhttp://www.okkam.org/oaie/restaurant2-Address645
tRp1235
ag9
(V1588 york ave.
NNtRp1236
ag216
ag2
(Vhttp://www.okkam.org/oaie/restaurant2-Address556
tRp1237
ag2
(Vhttp://www.okkam.org/oaie/restaurant2-Category90
tRp1238
ag2
(Vhttp://www.okkam.org/oaie/restaurant2-Category93
tRp1239
ag2
(Vhttp://www.okkam.org/oaie/restaurant2-Restaurant380
tRp1240
ag2
(Vhttp://www.okkam.org/oaie/restaurant2-Address380
tRp1241
ag28
ag9
(V783 martin luther king jr. dr.
NNtRp1242
ag2
(Vhttp://www.okkam.org/oaie/restaurant2-Address506
tRp1243
ag2
(Vhttp://www.okkam.org/oaie/restaurant2-Category523
tRp1244
ag2
(Vhttp://www.okkam.org/oaie/restaurant2-Address613
tRp1245
ag2
(Vhttp://www.okkam.org/oaie/restaurant2-Category436
tRp1246
ag2
(Vhttp://www.okkam.org/oaie/restaurant2-Restaurant612
tRp1247
ag2
(Vhttp://www.okkam.org/oaie/restaurant2-Restaurant607
tRp1248
ag2
(Vhttp://www.okkam.org/oaie/restaurant2-Restaurant493
tRp1249
ag2
(Vhttp://www.okkam.org/oaie/restaurant2-Address544
tRp1250
ag2
(Vhttp://www.okkam.org/oaie/restaurant2-restaurant203
tRp1251
ag2
(Vhttp://www.okkam.org/oaie/restaurant2-Category103
tRp1252
ag2
(Vhttp://www.okkam.org/oaie/restaurant2-Address736
tRp1253
ag2
(Vhttp://www.okkam.org/oaie/restaurant2-Restaurant668
tRp1254
ag2
(Vhttp://www.okkam.org/oaie/restaurant2-Address668
tRp1255
ag9
(V3925 paradise rd.
NNtRp1256
ag120
ag2
(Vhttp://www.okkam.org/oaie/restaurant2-Category47
tRp1257
ag2
(Vhttp://www.okkam.org/oaie/restaurant2-Category119
tRp1258
ag2
(Vhttp://www.okkam.org/oaie/restaurant2-Restaurant76
tRp1259
ag2
(Vhttp://www.okkam.org/oaie/restaurant2-restaurant275
tRp1260
ag2
(Vhttp://www.okkam.org/oaie/restaurant2-restaurant22
tRp1261
ag2
(Vhttp://www.okkam.org/oaie/restaurant2-Category12
tRp1262
ag2
(Vhttp://www.okkam.org/oaie/restaurant2-Address337
tRp1263
ag2
(Vhttp://www.okkam.org/oaie/restaurant2-Address623
tRp1264
ag2
(Vhttp://www.okkam.org/oaie/restaurant2-Restaurant432
tRp1265
ag2
(Vhttp://www.okkam.org/oaie/restaurant2-Address432
tRp1266
ag9
(V1350 e. flamingo rd.
NNtRp1267
ag120
ag2
(Vhttp://www.okkam.org/oaie/restaurant2-Address2
tRp1268
ag2
(Vhttp://www.okkam.org/oaie/restaurant2-Address64
tRp1269
ag2
(Vhttp://www.okkam.org/oaie/restaurant2-Restaurant490
tRp1270
ag2
(Vhttp://www.okkam.org/oaie/restaurant2-Category490
tRp1271
ag2
(Vhttp://www.okkam.org/oaie/restaurant2-Category173
tRp1272
ag19
ag9
(V3221 mission st.
NNtRp1273
ag9
(V1022 madison ave.  near 79th st.
NNtRp1274
ag54
ag2
(Vhttp://www.okkam.org/oaie/restaurant2-Address569
tRp1275
ag9
(V22800 pch
NNtRp1276
ag9
(Vmalibu
NNtRp1277
ag2
(Vhttp://www.okkam.org/oaie/restaurant2-Address619
tRp1278
ag2
(Vhttp://www.okkam.org/oaie/restaurant2-Category40
tRp1279
ag2
(Vhttp://www.okkam.org/oaie/restaurant2-Category620
tRp1280
ag2
(Vhttp://www.okkam.org/oaie/restaurant2-Restaurant737
tRp1281
ag2
(Vhttp://www.okkam.org/oaie/restaurant2-Category548
tRp1282
ag2
(Vhttp://www.okkam.org/oaie/restaurant2-Address651
tRp1283
ag2
(Vhttp://www.okkam.org/oaie/restaurant2-Restaurant438
tRp1284
ag2
(Vhttp://www.okkam.org/oaie/restaurant2-restaurant239
tRp1285
ag2
(Vhttp://www.okkam.org/oaie/restaurant2-Category72
tRp1286
ag2
(Vhttp://www.okkam.org/oaie/restaurant2-Address440
tRp1287
ag9
(V4017 s. sepulveda blvd.
NNtRp1288
ag9
(Vculver city
NNtRp1289
ag2
(Vhttp://www.okkam.org/oaie/restaurant2-Category614
tRp1290
ag2
(Vhttp://www.okkam.org/oaie/restaurant2-Category647
tRp1291
ag2
(Vhttp://www.okkam.org/oaie/restaurant2-restaurant273
tRp1292
ag2
(Vhttp://www.okkam.org/oaie/restaurant2-restaurant233
tRp1293
ag2
(Vhttp://www.okkam.org/oaie/restaurant2-Category133
tRp1294
ag9
(V328 lenox ave.
NNtRp1295
ag216
ag2
(Vhttp://www.okkam.org/oaie/restaurant2-Restaurant564
tRp1296
ag2
(Vhttp://www.okkam.org/oaie/restaurant2-Address478
tRp1297
ag2
(Vhttp://www.okkam.org/oaie/restaurant2-Category741
tRp1298
ag2
(Vhttp://www.okkam.org/oaie/restaurant2-restaurant254
tRp1299
ag2
(Vhttp://www.okkam.org/oaie/restaurant2-Address154
tRp1300
ag9
(Vtoluca lake
NNtRp1301
ag9
(V10001 riverside dr.
NNtRp1302
ag2
(Vhttp://www.okkam.org/oaie/restaurant2-Address277
tRp1303
ag2
(Vhttp://www.okkam.org/oaie/restaurant2-Restaurant257
tRp1304
ag2
(Vhttp://www.okkam.org/oaie/restaurant2-Restaurant232
tRp1305
ag2
(Vhttp://www.okkam.org/oaie/restaurant2-Category232
tRp1306
ag2
(Vhttp://www.okkam.org/oaie/restaurant2-Restaurant706
tRp1307
ag2
(Vhttp://www.okkam.org/oaie/restaurant2-Category610
tRp1308
ag2
(Vhttp://www.okkam.org/oaie/restaurant2-Restaurant369
tRp1309
ag2
(Vhttp://www.okkam.org/oaie/restaurant2-restaurant217
tRp1310
ag2
(Vhttp://www.okkam.org/oaie/restaurant2-Category117
tRp1311
ag2
(Vhttp://www.okkam.org/oaie/restaurant2-restaurant27
tRp1312
ag2
(Vhttp://www.okkam.org/oaie/restaurant2-Address17
tRp1313
ag9
(Vchinatown
NNtRp1314
ag9
(V1001 n. alameda st.
NNtRp1315
ag2
(Vhttp://www.okkam.org/oaie/restaurant2-Category551
tRp1316
ag2
(Vhttp://www.okkam.org/oaie/restaurant2-Category590
tRp1317
ag2
(Vhttp://www.okkam.org/oaie/restaurant2-restaurant232
tRp1318
ag2
(Vhttp://www.okkam.org/oaie/restaurant2-Category132
tRp1319
ag2
(Vhttp://www.okkam.org/oaie/restaurant2-Category328
tRp1320
ag2
(Vhttp://www.okkam.org/oaie/restaurant2-Restaurant265
tRp1321
ag2
(Vhttp://www.okkam.org/oaie/restaurant2-Restaurant682
tRp1322
ag2
(Vhttp://www.okkam.org/oaie/restaurant2-Address682
tRp1323
ag9
(V4274 peachtree rd.
NNtRp1324
ag28
ag2
(Vhttp://www.okkam.org/oaie/restaurant2-Address357
tRp1325
ag54
ag9
(V950 8th ave. at 56th st.
NNtRp1326
ag2
(Vhttp://www.okkam.org/oaie/restaurant2-Restaurant658
tRp1327
ag2
(Vhttp://www.okkam.org/oaie/restaurant2-Restaurant263
tRp1328
ag9
(V20 cornelia st.  between bleecker and w. 4th st.
NNtRp1329
ag54
ag2
(Vhttp://www.okkam.org/oaie/restaurant2-Address618
tRp1330
ag2
(Vhttp://www.okkam.org/oaie/restaurant2-Category139
tRp1331
ag2
(Vhttp://www.okkam.org/oaie/restaurant2-Restaurant527
tRp1332
ag2
(Vhttp://www.okkam.org/oaie/restaurant2-Address75
tRp1333
ag2
(Vhttp://www.okkam.org/oaie/restaurant2-Restaurant422
tRp1334
ag2
(Vhttp://www.okkam.org/oaie/restaurant2-Restaurant603
tRp1335
ag2
(Vhttp://www.okkam.org/oaie/restaurant2-Restaurant27
tRp1336
ag2
(Vhttp://www.okkam.org/oaie/restaurant2-Category397
tRp1337
ag2
(Vhttp://www.okkam.org/oaie/restaurant2-Category78
tRp1338
ag2
(Vhttp://www.okkam.org/oaie/restaurant2-Address483
tRp1339
ag2
(Vhttp://www.okkam.org/oaie/restaurant2-Category0
tRp1340
ag2
(Vhttp://www.okkam.org/oaie/restaurant2-Address292
tRp1341
ag9
(V507 columbus ave.  between 84th and 85th sts.
NNtRp1342
ag54
ag2
(Vhttp://www.okkam.org/oaie/restaurant2-restaurant237
tRp1343
ag2
(Vhttp://www.okkam.org/oaie/restaurant2-Restaurant213
tRp1344
ag2
(Vhttp://www.okkam.org/oaie/restaurant2-Address267
tRp1345
ag2
(Vhttp://www.okkam.org/oaie/restaurant2-restaurant244
tRp1346
ag2
(Vhttp://www.okkam.org/oaie/restaurant2-Restaurant400
tRp1347
ag2
(Vhttp://www.okkam.org/oaie/restaurant2-Address400
tRp1348
ag9
(V2285 peachtree rd.  peachtree battle condominium
NNtRp1349
ag28
ag2
(Vhttp://www.okkam.org/oaie/restaurant2-Address54
tRp1350
ag2
(Vhttp://www.okkam.org/oaie/restaurant2-Address287
tRp1351
ag2
(Vhttp://www.okkam.org/oaie/restaurant2-Address713
tRp1352
ag2
(Vhttp://www.okkam.org/oaie/restaurant2-Restaurant652
tRp1353
ag2
(Vhttp://www.okkam.org/oaie/restaurant2-Category652
tRp1354
ag2
(Vhttp://www.okkam.org/oaie/restaurant2-Category616
tRp1355
ag2
(Vhttp://www.okkam.org/oaie/restaurant2-Category668
tRp1356
ag2
(Vhttp://www.okkam.org/oaie/restaurant2-Category479
tRp1357
ag2
(Vhttp://www.okkam.org/oaie/restaurant2-Restaurant739
tRp1358
ag2
(Vhttp://www.okkam.org/oaie/restaurant2-Category739
tRp1359
ag9
(V860 2nd ave. at 46th st.
NNtRp1360
ag54
ag2
(Vhttp://www.okkam.org/oaie/restaurant2-Restaurant468
tRp1361
ag2
(Vhttp://www.okkam.org/oaie/restaurant2-Address468
tRp1362
ag19
ag9
(V732 broadway
NNtRp1363
ag2
(Vhttp://www.okkam.org/oaie/restaurant2-Address212
tRp1364
ag2
(Vhttp://www.okkam.org/oaie/restaurant2-Restaurant465
tRp1365
ag2
(Vhttp://www.okkam.org/oaie/restaurant2-Category465
tRp1366
ag2
(Vhttp://www.okkam.org/oaie/restaurant2-Restaurant566
tRp1367
ag2
(Vhttp://www.okkam.org/oaie/restaurant2-Address621
tRp1368
ag2
(Vhttp://www.okkam.org/oaie/restaurant2-Address373
tRp1369
ag2
(Vhttp://www.okkam.org/oaie/restaurant2-Restaurant230
tRp1370
ag2
(Vhttp://www.okkam.org/oaie/restaurant2-Address291
tRp1371
ag2
(Vhttp://www.okkam.org/oaie/restaurant2-restaurant274
tRp1372
ag2
(Vhttp://www.okkam.org/oaie/restaurant2-Address124
tRp1373
ag2
(Vhttp://www.okkam.org/oaie/restaurant2-Restaurant90
tRp1374
ag2
(Vhttp://www.okkam.org/oaie/restaurant2-Restaurant746
tRp1375
ag2
(Vhttp://www.okkam.org/oaie/restaurant2-Category565
tRp1376
ag2
(Vhttp://www.okkam.org/oaie/restaurant2-Category280
tRp1377
ag2
(Vhttp://www.okkam.org/oaie/restaurant2-Restaurant646
tRp1378
ag2
(Vhttp://www.okkam.org/oaie/restaurant2-Address152
tRp1379
ag2
(Vhttp://www.okkam.org/oaie/restaurant2-Restaurant671
tRp1380
ag2
(Vhttp://www.okkam.org/oaie/restaurant2-Category671
tRp1381
ag2
(Vhttp://www.okkam.org/oaie/restaurant2-Category649
tRp1382
ag2
(Vhttp://www.okkam.org/oaie/restaurant2-Address242
tRp1383
ag2
(Vhttp://www.okkam.org/oaie/restaurant2-Category128
tRp1384
ag2
(Vhttp://www.okkam.org/oaie/restaurant2-Restaurant210
tRp1385
ag2
(Vhttp://www.okkam.org/oaie/restaurant2-Address210
tRp1386
ag9
(V385 broome st. at mulberry
NNtRp1387
ag54
ag2
(Vhttp://www.okkam.org/oaie/restaurant2-Restaurant328
tRp1388
ag2
(Vhttp://www.okkam.org/oaie/restaurant2-Address738
tRp1389
ag2
(Vhttp://www.okkam.org/oaie/restaurant2-Restaurant410
tRp1390
ag28
ag9
(V1829 peachtree rd.
NNtRp1391
ag2
(Vhttp://www.okkam.org/oaie/restaurant2-Category379
tRp1392
ag2
(Vhttp://www.okkam.org/oaie/restaurant2-Address475
tRp1393
ag120
ag9
(V4850 flamingo rd.
NNtRp1394
ag19
ag9
(V3108 16th st.
NNtRp1395
ag2
(Vhttp://www.okkam.org/oaie/restaurant2-Restaurant229
tRp1396
ag2
(Vhttp://www.okkam.org/oaie/restaurant2-Address229
tRp1397
ag9
(V633 3rd ave. at 40th st.
NNtRp1398
ag54
ag2
(Vhttp://www.okkam.org/oaie/restaurant2-Restaurant484
tRp1399
ag2
(Vhttp://www.okkam.org/oaie/restaurant2-Category484
tRp1400
ag2
(Vhttp://www.okkam.org/oaie/restaurant2-Category420
tRp1401
ag2
(Vhttp://www.okkam.org/oaie/restaurant2-Category109
tRp1402
ag2
(Vhttp://www.okkam.org/oaie/restaurant2-Restaurant408
tRp1403
ag2
(Vhttp://www.okkam.org/oaie/restaurant2-Address408
tRp1404
ag9
(Vpark place  across from perimeter mall  dunwoody
NNtRp1405
ag28
ag2
(Vhttp://www.okkam.org/oaie/restaurant2-Category146
tRp1406
ag2
(Vhttp://www.okkam.org/oaie/restaurant2-Address615
tRp1407
ag2
(Vhttp://www.okkam.org/oaie/restaurant2-Restaurant473
tRp1408
ag2
(Vhttp://www.okkam.org/oaie/restaurant2-Restaurant294
tRp1409
ag2
(Vhttp://www.okkam.org/oaie/restaurant2-Address294
tRp1410
ag9
(V51 w. 64th st.
NNtRp1411
ag54
ag2
(Vhttp://www.okkam.org/oaie/restaurant2-Restaurant435
tRp1412
ag2
(Vhttp://www.okkam.org/oaie/restaurant2-Address91
tRp1413
ag9
(V9 jones st.
NNtRp1414
ag54
ag2
(Vhttp://www.okkam.org/oaie/restaurant2-restaurant235
tRp1415
ag2
(Vhttp://www.okkam.org/oaie/restaurant2-Category653
tRp1416
ag2
(Vhttp://www.okkam.org/oaie/restaurant2-Restaurant732
tRp1417
ag2
(Vhttp://www.okkam.org/oaie/restaurant2-Address732
tRp1418
ag9
(V1582 folsom st.
NNtRp1419
ag19
ag2
(Vhttp://www.okkam.org/oaie/restaurant2-Address34
tRp1420
ag2
(Vhttp://www.okkam.org/oaie/restaurant2-Address160
tRp1421
ag2
(Vhttp://www.okkam.org/oaie/restaurant2-Restaurant692
tRp1422
ag2
(Vhttp://www.okkam.org/oaie/restaurant2-Address692
tRp1423
ag9
(V1031 peachtree st. ne
NNtRp1424
ag28
ag2
(Vhttp://www.okkam.org/oaie/restaurant2-Category226
tRp1425
ag2
(Vhttp://www.okkam.org/oaie/restaurant2-Category241
tRp1426
ag2
(Vhttp://www.okkam.org/oaie/restaurant2-Restaurant324
tRp1427
ag2
(Vhttp://www.okkam.org/oaie/restaurant2-Category227
tRp1428
ag2
(Vhttp://www.okkam.org/oaie/restaurant2-Category51
tRp1429
ag2
(Vhttp://www.okkam.org/oaie/restaurant2-Category402
tRp1430
ag2
(Vhttp://www.okkam.org/oaie/restaurant2-Restaurant691
tRp1431
ag2
(Vhttp://www.okkam.org/oaie/restaurant2-Category172
tRp1432
ag2
(Vhttp://www.okkam.org/oaie/restaurant2-Restaurant726
tRp1433
ag2
(Vhttp://www.okkam.org/oaie/restaurant2-Address726
tRp1434
ag19
ag9
(V2217 union st.
NNtRp1435
ag2
(Vhttp://www.okkam.org/oaie/restaurant2-Restaurant738
tRp1436
ag2
(Vhttp://www.okkam.org/oaie/restaurant2-Address14
tRp1437
ag2
(Vhttp://www.okkam.org/oaie/restaurant2-Restaurant277
tRp1438
ag2
(Vhttp://www.okkam.org/oaie/restaurant2-Address256
tRp1439
ag2
(Vhttp://www.okkam.org/oaie/restaurant2-Address300
tRp1440
ag2
(Vhttp://www.okkam.org/oaie/restaurant2-restaurant294
tRp1441
ag2
(Vhttp://www.okkam.org/oaie/restaurant2-Category257
tRp1442
ag2
(Vhttp://www.okkam.org/oaie/restaurant2-restaurant238
tRp1443
ag2
(Vhttp://www.okkam.org/oaie/restaurant2-Address138
tRp1444
ag204
ag9
(V2020 ave. of the stars
NNtRp1445
ag2
(Vhttp://www.okkam.org/oaie/restaurant2-Category594
tRp1446
ag2
(Vhttp://www.okkam.org/oaie/restaurant2-Address601
tRp1447
ag2
(Vhttp://www.okkam.org/oaie/restaurant2-Category477
tRp1448
ag2
(Vhttp://www.okkam.org/oaie/restaurant2-Address419
tRp1449
ag2
(Vhttp://www.okkam.org/oaie/restaurant2-Restaurant308
tRp1450
ag2
(Vhttp://www.okkam.org/oaie/restaurant2-Category308
tRp1451
ag2
(Vhttp://www.okkam.org/oaie/restaurant2-Restaurant281
tRp1452
ag2
(Vhttp://www.okkam.org/oaie/restaurant2-Category281
tRp1453
ag2
(Vhttp://www.okkam.org/oaie/restaurant2-Category88
tRp1454
ag2
(Vhttp://www.okkam.org/oaie/restaurant2-Restaurant363
tRp1455
ag2
(Vhttp://www.okkam.org/oaie/restaurant2-Category301
tRp1456
ag2
(Vhttp://www.okkam.org/oaie/restaurant2-Category466
tRp1457
ag2
(Vhttp://www.okkam.org/oaie/restaurant2-Restaurant89
tRp1458
ag2
(Vhttp://www.okkam.org/oaie/restaurant2-Category89
tRp1459
ag2
(Vhttp://www.okkam.org/oaie/restaurant2-Address297
tRp1460
ag2
(Vhttp://www.okkam.org/oaie/restaurant2-Address7
tRp1461
ag2
(Vhttp://www.okkam.org/oaie/restaurant2-Address647
tRp1462
ag2
(Vhttp://www.okkam.org/oaie/restaurant2-Category639
tRp1463
ag2
(Vhttp://www.okkam.org/oaie/restaurant2-restaurant295
tRp1464
ag2
(Vhttp://www.okkam.org/oaie/restaurant2-Category599
tRp1465
ag2
(Vhttp://www.okkam.org/oaie/restaurant2-Category95
tRp1466
ag2
(Vhttp://www.okkam.org/oaie/restaurant2-Restaurant330
tRp1467
ag2
(Vhttp://www.okkam.org/oaie/restaurant2-Address330
tRp1468
ag9
(V551 amsterdam ave.  between 86th and 87th sts.
NNtRp1469
ag54
ag2
(Vhttp://www.okkam.org/oaie/restaurant2-Category245
tRp1470
ag9
(V95 ave. a
NNtRp1471
ag216
ag2
(Vhttp://www.okkam.org/oaie/restaurant2-Restaurant733
tRp1472
ag2
(Vhttp://www.okkam.org/oaie/restaurant2-Address733
tRp1473
ag19
ag9
(V333 bush st.
NNtRp1474
ag2
(Vhttp://www.okkam.org/oaie/restaurant2-Restaurant420
tRp1475
ag216
ag9
(Vcentral park west
NNtRp1476
ag2
(Vhttp://www.okkam.org/oaie/restaurant2-Category519
tRp1477
ag2
(Vhttp://www.okkam.org/oaie/restaurant2-Restaurant647
tRp1478
ag2
(Vhttp://www.okkam.org/oaie/restaurant2-Restaurant318
tRp1479
ag2
(Vhttp://www.okkam.org/oaie/restaurant2-Category588
tRp1480
ag2
(Vhttp://www.okkam.org/oaie/restaurant2-Restaurant553
tRp1481
ag2
(Vhttp://www.okkam.org/oaie/restaurant2-Category553
tRp1482
ag2
(Vhttp://www.okkam.org/oaie/restaurant2-Address507
tRp1483
ag19
ag9
(V631 b kearny st.
NNtRp1484
ag2
(Vhttp://www.okkam.org/oaie/restaurant2-Restaurant218
tRp1485
ag2
(Vhttp://www.okkam.org/oaie/restaurant2-Address218
tRp1486
ag9
(V160 e. 48th st.
NNtRp1487
ag54
ag2
(Vhttp://www.okkam.org/oaie/restaurant2-Restaurant574
tRp1488
ag2
(Vhttp://www.okkam.org/oaie/restaurant2-Category574
tRp1489
ag2
(Vhttp://www.okkam.org/oaie/restaurant2-Category628
tRp1490
ag2
(Vhttp://www.okkam.org/oaie/restaurant2-Category708
tRp1491
ag2
(Vhttp://www.okkam.org/oaie/restaurant2-Restaurant678
tRp1492
ag2
(Vhttp://www.okkam.org/oaie/restaurant2-Address678
tRp1493
ag9
(V1437 virginia ave.
NNtRp1494
ag28
ag2
(Vhttp://www.okkam.org/oaie/restaurant2-Restaurant554
tRp1495
ag2
(Vhttp://www.okkam.org/oaie/restaurant2-Category554
tRp1496
ag2
(Vhttp://www.okkam.org/oaie/restaurant2-Restaurant462
tRp1497
ag2
(Vhttp://www.okkam.org/oaie/restaurant2-Restaurant445
tRp1498
ag9
(V5111 w. boulder hwy.
NNtRp1499
ag120
ag2
(Vhttp://www.okkam.org/oaie/restaurant2-Restaurant60
tRp1500
ag2
(Vhttp://www.okkam.org/oaie/restaurant2-Restaurant411
tRp1501
ag2
(Vhttp://www.okkam.org/oaie/restaurant2-Category159
tRp1502
ag2
(Vhttp://www.okkam.org/oaie/restaurant2-Restaurant489
tRp1503
ag2
(Vhttp://www.okkam.org/oaie/restaurant2-restaurant265
tRp1504
ag2
(Vhttp://www.okkam.org/oaie/restaurant2-Restaurant526
tRp1505
ag2
(Vhttp://www.okkam.org/oaie/restaurant2-Restaurant239
tRp1506
ag2
(Vhttp://www.okkam.org/oaie/restaurant2-Restaurant707
tRp1507
ag2
(Vhttp://www.okkam.org/oaie/restaurant2-Restaurant316
tRp1508
ag2
(Vhttp://www.okkam.org/oaie/restaurant2-Restaurant514
tRp1509
ag9
(V150 redwood alley
NNtRp1510
ag19
ag2
(Vhttp://www.okkam.org/oaie/restaurant2-Restaurant367
tRp1511
ag19
ag9
(V243 o'farrell st.
NNtRp1512
ag2
(Vhttp://www.okkam.org/oaie/restaurant2-Category539
tRp1513
ag2
(Vhttp://www.okkam.org/oaie/restaurant2-Restaurant654
tRp1514
ag2
(Vhttp://www.okkam.org/oaie/restaurant2-Address607
tRp1515
ag2
(Vhttp://www.okkam.org/oaie/restaurant2-Category81
tRp1516
ag2
(Vhttp://www.okkam.org/oaie/restaurant2-Address226
tRp1517
ag2
(Vhttp://www.okkam.org/oaie/restaurant2-restaurant252
tRp1518
ag2
(Vhttp://www.okkam.org/oaie/restaurant2-restaurant207
tRp1519
ag2
(Vhttp://www.okkam.org/oaie/restaurant2-Restaurant528
tRp1520
ag2
(Vhttp://www.okkam.org/oaie/restaurant2-Category528
tRp1521
ag2
(Vhttp://www.okkam.org/oaie/restaurant2-Restaurant247
tRp1522
ag2
(Vhttp://www.okkam.org/oaie/restaurant2-Category247
tRp1523
ag9
(V1716 pch
NNtRp1524
ag9
(Vredondo beach
NNtRp1525
ag2
(Vhttp://www.okkam.org/oaie/restaurant2-Restaurant220
tRp1526
ag2
(Vhttp://www.okkam.org/oaie/restaurant2-Address447
tRp1527
ag2
(Vhttp://www.okkam.org/oaie/restaurant2-Address367
tRp1528
ag2
(Vhttp://www.okkam.org/oaie/restaurant2-Restaurant680
tRp1529
ag9
(V375 14th st.
NNtRp1530
ag28
ag2
(Vhttp://www.okkam.org/oaie/restaurant2-Address317
tRp1531
ag2
(Vhttp://www.okkam.org/oaie/restaurant2-Restaurant423
tRp1532
ag2
(Vhttp://www.okkam.org/oaie/restaurant2-Address491
tRp1533
ag2
(Vhttp://www.okkam.org/oaie/restaurant2-Address103
tRp1534
ag9
(V5937 geary blvd.
NNtRp1535
ag19
ag2
(Vhttp://www.okkam.org/oaie/restaurant2-Address422
tRp1536
ag2
(Vhttp://www.okkam.org/oaie/restaurant2-Address305
tRp1537
ag2
(Vhttp://www.okkam.org/oaie/restaurant2-Address363
tRp1538
ag54
ag9
(V345 e. 83rd st.
NNtRp1539
ag2
(Vhttp://www.okkam.org/oaie/restaurant2-restaurant298
tRp1540
ag2
(Vhttp://www.okkam.org/oaie/restaurant2-Restaurant297
tRp1541
ag2
(Vhttp://www.okkam.org/oaie/restaurant2-Category297
tRp1542
ag2
(Vhttp://www.okkam.org/oaie/restaurant2-Restaurant219
tRp1543
ag2
(Vhttp://www.okkam.org/oaie/restaurant2-Restaurant541
tRp1544
ag9
(Vwest la
NNtRp1545
ag9
(V1949 westwood blvd.
NNtRp1546
ag2
(Vhttp://www.okkam.org/oaie/restaurant2-Restaurant504
tRp1547
ag19
ag9
(V3011 steiner st.
NNtRp1548
ag2
(Vhttp://www.okkam.org/oaie/restaurant2-Category150
tRp1549
ag2
(Vhttp://www.okkam.org/oaie/restaurant2-Category391
tRp1550
ag2
(Vhttp://www.okkam.org/oaie/restaurant2-Category59
tRp1551
ag2
(Vhttp://www.okkam.org/oaie/restaurant2-Restaurant319
tRp1552
ag2
(Vhttp://www.okkam.org/oaie/restaurant2-Address308
tRp1553
ag2
(Vhttp://www.okkam.org/oaie/restaurant2-Restaurant271
tRp1554
ag2
(Vhttp://www.okkam.org/oaie/restaurant2-Category271
tRp1555
ag2
(Vhttp://www.okkam.org/oaie/restaurant2-Restaurant634
tRp1556
ag216
ag9
(V837 second ave.
NNtRp1557
ag2
(Vhttp://www.okkam.org/oaie/restaurant2-Address517
tRp1558
ag2
(Vhttp://www.okkam.org/oaie/restaurant2-Address155
tRp1559
ag2
(Vhttp://www.okkam.org/oaie/restaurant2-Address462
tRp1560
ag2
(Vhttp://www.okkam.org/oaie/restaurant2-Category7
tRp1561
ag2
(Vhttp://www.okkam.org/oaie/restaurant2-Address335
tRp1562
ag2
(Vhttp://www.okkam.org/oaie/restaurant2-Address159
tRp1563
ag2
(Vhttp://www.okkam.org/oaie/restaurant2-Address614
tRp1564
ag2
(Vhttp://www.okkam.org/oaie/restaurant2-Category597
tRp1565
ag2
(Vhttp://www.okkam.org/oaie/restaurant2-Restaurant454
tRp1566
ag2
(Vhttp://www.okkam.org/oaie/restaurant2-Address454
tRp1567
ag9
(V1722 sacramento st.
NNtRp1568
ag19
ag9
(V515 valencia st.
NNtRp1569
ag19
ag2
(Vhttp://www.okkam.org/oaie/restaurant2-Address378
tRp1570
ag9
(V3700 w. flamingo rd.
NNtRp1571
ag120
ag2
(Vhttp://www.okkam.org/oaie/restaurant2-Address128
tRp1572
ag2
(Vhttp://www.okkam.org/oaie/restaurant2-Category53
tRp1573
ag2
(Vhttp://www.okkam.org/oaie/restaurant2-Restaurant42
tRp1574
ag2
(Vhttp://www.okkam.org/oaie/restaurant2-Category42
tRp1575
ag2
(Vhttp://www.okkam.org/oaie/restaurant2-Category542
tRp1576
ag2
(Vhttp://www.okkam.org/oaie/restaurant2-Address120
tRp1577
ag9
(V700 w. fifth st.
NNtRp1578
ag204
ag9
(V205 e. 49th st.
NNtRp1579
ag216
ag2
(Vhttp://www.okkam.org/oaie/restaurant2-Restaurant701
tRp1580
ag2
(Vhttp://www.okkam.org/oaie/restaurant2-Category701
tRp1581
ag2
(Vhttp://www.okkam.org/oaie/restaurant2-Category64
tRp1582
ag2
(Vhttp://www.okkam.org/oaie/restaurant2-Category199
tRp1583
ag2
(Vhttp://www.okkam.org/oaie/restaurant2-Address47
tRp1584
ag2
(Vhttp://www.okkam.org/oaie/restaurant2-Address353
tRp1585
ag2
(Vhttp://www.okkam.org/oaie/restaurant2-Restaurant689
tRp1586
ag2
(Vhttp://www.okkam.org/oaie/restaurant2-Address632
tRp1587
ag2
(Vhttp://www.okkam.org/oaie/restaurant2-restaurant259
tRp1588
ag2
(Vhttp://www.okkam.org/oaie/restaurant2-Category733
tRp1589
ag2
(Vhttp://www.okkam.org/oaie/restaurant2-Category689
tRp1590
ag2
(Vhttp://www.okkam.org/oaie/restaurant2-Restaurant698
tRp1591
ag2
(Vhttp://www.okkam.org/oaie/restaurant2-Category23
tRp1592
ag2
(Vhttp://www.okkam.org/oaie/restaurant2-Restaurant555
tRp1593
ag2
(Vhttp://www.okkam.org/oaie/restaurant2-Address555
tRp1594
ag9
(V6145 franklin ave.
NNtRp1595
ag9
(Vhollywood
NNtRp1596
ag2
(Vhttp://www.okkam.org/oaie/restaurant2-Address98
tRp1597
ag2
(Vhttp://www.okkam.org/oaie/restaurant2-Address627
tRp1598
ag2
(Vhttp://www.okkam.org/oaie/restaurant2-Restaurant2
tRp1599
ag2
(Vhttp://www.okkam.org/oaie/restaurant2-Address739
tRp1600
ag19
ag9
(V3355 geary st.
NNtRp1601
ag2
(Vhttp://www.okkam.org/oaie/restaurant2-restaurant224
tRp1602
ag2
(Vhttp://www.okkam.org/oaie/restaurant2-Category124
tRp1603
ag2
(Vhttp://www.okkam.org/oaie/restaurant2-Restaurant243
tRp1604
ag2
(Vhttp://www.okkam.org/oaie/restaurant2-Address146
tRp1605
ag2
(Vhttp://www.okkam.org/oaie/restaurant2-restaurant263
tRp1606
ag2
(Vhttp://www.okkam.org/oaie/restaurant2-Category140
tRp1607
ag2
(Vhttp://www.okkam.org/oaie/restaurant2-Address442
tRp1608
ag9
(V129 e. fremont st.
NNtRp1609
ag120
ag2
(Vhttp://www.okkam.org/oaie/restaurant2-Address409
tRp1610
ag2
(Vhttp://www.okkam.org/oaie/restaurant2-Address323
tRp1611
ag2
(Vhttp://www.okkam.org/oaie/restaurant2-Address209
tRp1612
ag2
(Vhttp://www.okkam.org/oaie/restaurant2-Address232
tRp1613
ag2
(Vhttp://www.okkam.org/oaie/restaurant2-restaurant245
tRp1614
ag2
(Vhttp://www.okkam.org/oaie/restaurant2-Address114
tRp1615
ag216
ag9
(V127 greene st.
NNtRp1616
ag2
(Vhttp://www.okkam.org/oaie/restaurant2-Restaurant347
tRp1617
ag2
(Vhttp://www.okkam.org/oaie/restaurant2-Category693
tRp1618
ag2
(Vhttp://www.okkam.org/oaie/restaurant2-Restaurant262
tRp1619
ag2
(Vhttp://www.okkam.org/oaie/restaurant2-Restaurant385
tRp1620
ag2
(Vhttp://www.okkam.org/oaie/restaurant2-Category385
tRp1621
ag2
(Vhttp://www.okkam.org/oaie/restaurant2-Address461
tRp1622
ag19
ag9
(V3347 fillmore st.
NNtRp1623
ag2
(Vhttp://www.okkam.org/oaie/restaurant2-Address612
tRp1624
ag50
ag9
(V24-02 31st st.
NNtRp1625
ag2
(Vhttp://www.okkam.org/oaie/restaurant2-Restaurant439
tRp1626
ag2
(Vhttp://www.okkam.org/oaie/restaurant2-Address207
tRp1627
ag2
(Vhttp://www.okkam.org/oaie/restaurant2-Address590
tRp1628
ag2
(Vhttp://www.okkam.org/oaie/restaurant2-Restaurant226
tRp1629
ag9
(V121 prince st.
NNtRp1630
ag54
ag2
(Vhttp://www.okkam.org/oaie/restaurant2-Address184
tRp1631
ag2
(Vhttp://www.okkam.org/oaie/restaurant2-Category522
tRp1632
ag2
(Vhttp://www.okkam.org/oaie/restaurant2-restaurant21
tRp1633
ag2
(Vhttp://www.okkam.org/oaie/restaurant2-Address296
tRp1634
ag54
ag9
(V59 grand st.  between wooster st. and w. broadway
NNtRp1635
ag2
(Vhttp://www.okkam.org/oaie/restaurant2-Address193
tRp1636
ag2
(Vhttp://www.okkam.org/oaie/restaurant2-Address37
tRp1637
ag2
(Vhttp://www.okkam.org/oaie/restaurant2-Category526
tRp1638
ag2
(Vhttp://www.okkam.org/oaie/restaurant2-Address744
tRp1639
ag2
(Vhttp://www.okkam.org/oaie/restaurant2-Category169
tRp1640
ag2
(Vhttp://www.okkam.org/oaie/restaurant2-Category569
tRp1641
ag2
(Vhttp://www.okkam.org/oaie/restaurant2-Address30
tRp1642
ag2
(Vhttp://www.okkam.org/oaie/restaurant2-Restaurant235
tRp1643
ag2
(Vhttp://www.okkam.org/oaie/restaurant2-Address239
tRp1644
ag2
(Vhttp://www.okkam.org/oaie/restaurant2-Address500
tRp1645
ag2
(Vhttp://www.okkam.org/oaie/restaurant2-Restaurant75
tRp1646
ag54
ag9
(V15 w. 44th st.
NNtRp1647
ag2
(Vhttp://www.okkam.org/oaie/restaurant2-Restaurant485
tRp1648
ag19
ag9
(V2257 chestnut st.
NNtRp1649
ag2
(Vhttp://www.okkam.org/oaie/restaurant2-Address39
tRp1650
ag19
ag9
(V2225 irving st.
NNtRp1651
ag2
(Vhttp://www.okkam.org/oaie/restaurant2-Category294
tRp1652
ag2
(Vhttp://www.okkam.org/oaie/restaurant2-Address28
tRp1653
ag2
(Vhttp://www.okkam.org/oaie/restaurant2-Address356
tRp1654
ag2
(Vhttp://www.okkam.org/oaie/restaurant2-Restaurant681
tRp1655
ag2
(Vhttp://www.okkam.org/oaie/restaurant2-Address681
tRp1656
ag9
(V2911 s. pharr court
NNtRp1657
ag28
ag2
(Vhttp://www.okkam.org/oaie/restaurant2-Address131
tRp1658
ag2
(Vhttp://www.okkam.org/oaie/restaurant2-Restaurant310
tRp1659
ag2
(Vhttp://www.okkam.org/oaie/restaurant2-Address673
tRp1660
ag2
(Vhttp://www.okkam.org/oaie/restaurant2-Category275
tRp1661
ag2
(Vhttp://www.okkam.org/oaie/restaurant2-restaurant284
tRp1662
ag54
ag9
(V200-250 vesey st. world financial center
NNtRp1663
ag2
(Vhttp://www.okkam.org/oaie/restaurant2-Address502
tRp1664
ag2
(Vhttp://www.okkam.org/oaie/restaurant2-Address698
tRp1665
ag2
(Vhttp://www.okkam.org/oaie/restaurant2-Category486
tRp1666
ag2
(Vhttp://www.okkam.org/oaie/restaurant2-Address652
tRp1667
ag2
(Vhttp://www.okkam.org/oaie/restaurant2-Address631
tRp1668
ag216
ag9
(V105 hudson st.
NNtRp1669
ag2
(Vhttp://www.okkam.org/oaie/restaurant2-Restaurant712
tRp1670
ag2
(Vhttp://www.okkam.org/oaie/restaurant2-Category712
tRp1671
ag2
(Vhttp://www.okkam.org/oaie/restaurant2-Address388
tRp1672
ag9
(V1186 n. highland ave.
NNtRp1673
ag28
ag2
(Vhttp://www.okkam.org/oaie/restaurant2-Restaurant491
tRp1674
ag2
(Vhttp://www.okkam.org/oaie/restaurant2-Category253
tRp1675
ag2
(Vhttp://www.okkam.org/oaie/restaurant2-Category284
tRp1676
ag2
(Vhttp://www.okkam.org/oaie/restaurant2-Address78
tRp1677
ag28
ag9
(V3073 piedmont rd.
NNtRp1678
ag2
(Vhttp://www.okkam.org/oaie/restaurant2-Category32
tRp1679
ag9
(V1022 3rd ave.  between 60th and 61st sts.
NNtRp1680
ag54
ag2
(Vhttp://www.okkam.org/oaie/restaurant2-Category382
tRp1681
ag2
(Vhttp://www.okkam.org/oaie/restaurant2-Address749
tRp1682
ag2
(Vhttp://www.okkam.org/oaie/restaurant2-restaurant271
tRp1683
ag204
ag9
(V60 n. venice blvd.
NNtRp1684
ag2
(Vhttp://www.okkam.org/oaie/restaurant2-Category372
tRp1685
ag2
(Vhttp://www.okkam.org/oaie/restaurant2-Address269
tRp1686
ag54
ag9
(V150 wooster st.  between houston and prince sts.
NNtRp1687
ag2
(Vhttp://www.okkam.org/oaie/restaurant2-Category309
tRp1688
ag2
(Vhttp://www.okkam.org/oaie/restaurant2-Address217
tRp1689
ag54
ag9
(V72 macdougal st.  between w. houston and bleecker sts.
NNtRp1690
ag2
(Vhttp://www.okkam.org/oaie/restaurant2-Address186
tRp1691
ag2
(Vhttp://www.okkam.org/oaie/restaurant2-Address137
tRp1692
ag204
ag9
(V8600 beverly blvd.
NNtRp1693
ag2
(Vhttp://www.okkam.org/oaie/restaurant2-Restaurant577
tRp1694
ag9
(V1147 third st.
NNtRp1695
ag786
ag2
(Vhttp://www.okkam.org/oaie/restaurant2-Restaurant742
tRp1696
ag2
(Vhttp://www.okkam.org/oaie/restaurant2-Restaurant588
tRp1697
ag2
(Vhttp://www.okkam.org/oaie/restaurant2-Restaurant749
tRp1698
ag2
(Vhttp://www.okkam.org/oaie/restaurant2-Category749
tRp1699
ag2
(Vhttp://www.okkam.org/oaie/restaurant2-Restaurant280
tRp1700
ag2
(Vhttp://www.okkam.org/oaie/restaurant2-Address200
tRp1701
ag216
ag9
(V201 w. 83rd st.
NNtRp1702
ag2
(Vhttp://www.okkam.org/oaie/restaurant2-Category350
tRp1703
ag2
(Vhttp://www.okkam.org/oaie/restaurant2-Restaurant650
tRp1704
ag216
ag9
(V144 second ave.
NNtRp1705
ag2
(Vhttp://www.okkam.org/oaie/restaurant2-Address49
tRp1706
ag216
ag9
(V239 w. broadway
NNtRp1707
ag2
(Vhttp://www.okkam.org/oaie/restaurant2-Address331
tRp1708
ag9
(V28 e. 63rd st.
NNtRp1709
ag54
ag2
(Vhttp://www.okkam.org/oaie/restaurant2-Address104
tRp1710
ag9
(V2316 polk st.
NNtRp1711
ag19
ag2
(Vhttp://www.okkam.org/oaie/restaurant2-Address327
tRp1712
ag9
(V1423 2nd ave.  between 74th and 75th sts.
NNtRp1713
ag54
ag2
(Vhttp://www.okkam.org/oaie/restaurant2-Address224
tRp1714
ag9
(V522 9th ave. at 39th st.
NNtRp1715
ag54
ag2
(Vhttp://www.okkam.org/oaie/restaurant2-Category130
tRp1716
ag9
(V2182 broadway  between 77th and 78th sts.
NNtRp1717
ag54
ag2
(Vhttp://www.okkam.org/oaie/restaurant2-Restaurant535
tRp1718
ag2
(Vhttp://www.okkam.org/oaie/restaurant2-Restaurant253
tRp1719
ag2
(Vhttp://www.okkam.org/oaie/restaurant2-Address139
tRp1720
ag2
(Vhttp://www.okkam.org/oaie/restaurant2-Restaurant203
tRp1721
ag2
(Vhttp://www.okkam.org/oaie/restaurant2-Address532
tRp1722
ag9
(V1658 market st.
NNtRp1723
ag19
ag2
(Vhttp://www.okkam.org/oaie/restaurant2-Restaurant254
tRp1724
ag9
(V228 w. 52nd st.
NNtRp1725
ag54
ag2
(Vhttp://www.okkam.org/oaie/restaurant2-Category157
tRp1726
ag2
(Vhttp://www.okkam.org/oaie/restaurant2-Restaurant38
tRp1727
ag2
(Vhttp://www.okkam.org/oaie/restaurant2-Restaurant434
tRp1728
ag2
(Vhttp://www.okkam.org/oaie/restaurant2-Address434
tRp1729
ag120
ag9
(V3333 s. maryland pkwy.
NNtRp1730
ag2
(Vhttp://www.okkam.org/oaie/restaurant2-Address518
tRp1731
ag2
(Vhttp://www.okkam.org/oaie/restaurant2-Address487
tRp1732
ag9
(V600 5th ave.
NNtRp1733
ag19
ag2
(Vhttp://www.okkam.org/oaie/restaurant2-Category682
tRp1734
ag2
(Vhttp://www.okkam.org/oaie/restaurant2-Address513
tRp1735
ag2
(Vhttp://www.okkam.org/oaie/restaurant2-Category737
tRp1736
ag2
(Vhttp://www.okkam.org/oaie/restaurant2-Address334
tRp1737
ag2
(Vhttp://www.okkam.org/oaie/restaurant2-Category307
tRp1738
ag2
(Vhttp://www.okkam.org/oaie/restaurant2-Restaurant530
tRp1739
ag2
(Vhttp://www.okkam.org/oaie/restaurant2-Address284
tRp1740
ag2
(Vhttp://www.okkam.org/oaie/restaurant2-Category367
tRp1741
ag9
(V140 w. 57th st.
NNtRp1742
ag54
ag2
(Vhttp://www.okkam.org/oaie/restaurant2-Restaurant237
tRp1743
ag2
(Vhttp://www.okkam.org/oaie/restaurant2-Category237
tRp1744
ag2
(Vhttp://www.okkam.org/oaie/restaurant2-restaurant257
tRp1745
ag2
(Vhttp://www.okkam.org/oaie/restaurant2-Restaurant641
tRp1746
ag2
(Vhttp://www.okkam.org/oaie/restaurant2-Address641
tRp1747
ag9
(V210 e. 46th st.
NNtRp1748
ag216
ag2
(Vhttp://www.okkam.org/oaie/restaurant2-Category540
tRp1749
ag2
(Vhttp://www.okkam.org/oaie/restaurant2-Restaurant453
tRp1750
ag120
ag9
(V2880 las vegas blvd. s
NNtRp1751
ag2
(Vhttp://www.okkam.org/oaie/restaurant2-Address417
tRp1752
ag2
(Vhttp://www.okkam.org/oaie/restaurant2-Address65
tRp1753
ag9
(V21 e. 16th st.
NNtRp1754
ag216
ag2
(Vhttp://www.okkam.org/oaie/restaurant2-Address742
tRp1755
ag2
(Vhttp://www.okkam.org/oaie/restaurant2-Address18
tRp1756
ag373
ag9
(V12969 ventura blvd.
NNtRp1757
ag2
(Vhttp://www.okkam.org/oaie/restaurant2-Restaurant344
tRp1758
ag2
(Vhttp://www.okkam.org/oaie/restaurant2-Category421
tRp1759
ag2
(Vhttp://www.okkam.org/oaie/restaurant2-Restaurant542
tRp1760
ag2
(Vhttp://www.okkam.org/oaie/restaurant2-Address542
tRp1761
ag891
ag9
(V9600 brighton way
NNtRp1762
ag2
(Vhttp://www.okkam.org/oaie/restaurant2-Restaurant20
tRp1763
ag2
(Vhttp://www.okkam.org/oaie/restaurant2-Restaurant356
tRp1764
ag54
ag9
(V65 w. 55th st.
NNtRp1765
ag2
(Vhttp://www.okkam.org/oaie/restaurant2-Category403
tRp1766
ag2
(Vhttp://www.okkam.org/oaie/restaurant2-Address715
tRp1767
ag2
(Vhttp://www.okkam.org/oaie/restaurant2-Address476
tRp1768
ag2
(Vhttp://www.okkam.org/oaie/restaurant2-Restaurant337
tRp1769
ag2
(Vhttp://www.okkam.org/oaie/restaurant2-Address89
tRp1770
ag9
(V3434 peachtree rd. ne
NNtRp1771
ag28
ag19
ag9
(V252 california st.
NNtRp1772
ag2
(Vhttp://www.okkam.org/oaie/restaurant2-Address700
tRp1773
ag19
ag9
(V2889 mission st.
NNtRp1774
ag2
(Vhttp://www.okkam.org/oaie/restaurant2-Address686
tRp1775
ag9
(V1215 powers ferry rd.
NNtRp1776
ag9
(Vmarietta
NNtRp1777
ag2
(Vhttp://www.okkam.org/oaie/restaurant2-Category351
tRp1778
ag2
(Vhttp://www.okkam.org/oaie/restaurant2-Restaurant498
tRp1779
ag2
(Vhttp://www.okkam.org/oaie/restaurant2-Address279
tRp1780
ag2
(Vhttp://www.okkam.org/oaie/restaurant2-Address424
tRp1781
ag2
(Vhttp://www.okkam.org/oaie/restaurant2-Category417
tRp1782
ag9
(V200 14th st. nw
NNtRp1783
ag28
ag2
(Vhttp://www.okkam.org/oaie/restaurant2-Restaurant340
tRp1784
ag2
(Vhttp://www.okkam.org/oaie/restaurant2-Category340
tRp1785
ag2
(Vhttp://www.okkam.org/oaie/restaurant2-Address411
tRp1786
ag2
(Vhttp://www.okkam.org/oaie/restaurant2-Restaurant44
tRp1787
ag2
(Vhttp://www.okkam.org/oaie/restaurant2-Category213
tRp1788
ag2
(Vhttp://www.okkam.org/oaie/restaurant2-Restaurant539
tRp1789
ag2
(Vhttp://www.okkam.org/oaie/restaurant2-Restaurant260
tRp1790
ag2
(Vhttp://www.okkam.org/oaie/restaurant2-Category260
tRp1791
ag2
(Vhttp://www.okkam.org/oaie/restaurant2-Restaurant582
tRp1792
ag2
(Vhttp://www.okkam.org/oaie/restaurant2-Category582
tRp1793
ag2
(Vhttp://www.okkam.org/oaie/restaurant2-Address428
tRp1794
ag9
(V128 fremont st.
NNtRp1795
ag120
ag2
(Vhttp://www.okkam.org/oaie/restaurant2-Restaurant24
tRp1796
ag2
(Vhttp://www.okkam.org/oaie/restaurant2-Address405
tRp1797
ag2
(Vhttp://www.okkam.org/oaie/restaurant2-Restaurant727
tRp1798
ag2
(Vhttp://www.okkam.org/oaie/restaurant2-Category727
tRp1799
ag2
(Vhttp://www.okkam.org/oaie/restaurant2-Category228
tRp1800
ag2
(Vhttp://www.okkam.org/oaie/restaurant2-Address664
tRp1801
ag2
(Vhttp://www.okkam.org/oaie/restaurant2-Restaurant53
tRp1802
ag2
(Vhttp://www.okkam.org/oaie/restaurant2-Restaurant315
tRp1803
ag2
(Vhttp://www.okkam.org/oaie/restaurant2-Address109
tRp1804
ag2
(Vhttp://www.okkam.org/oaie/restaurant2-Category338
tRp1805
ag2
(Vhttp://www.okkam.org/oaie/restaurant2-Address293
tRp1806
ag2
(Vhttp://www.okkam.org/oaie/restaurant2-Category470
tRp1807
ag2
(Vhttp://www.okkam.org/oaie/restaurant2-Category137
tRp1808
ag2
(Vhttp://www.okkam.org/oaie/restaurant2-Category74
tRp1809
ag2
(Vhttp://www.okkam.org/oaie/restaurant2-restaurant209
tRp1810
ag19
ag9
(V545 post st.
NNtRp1811
ag2
(Vhttp://www.okkam.org/oaie/restaurant2-Address181
tRp1812
ag2
(Vhttp://www.okkam.org/oaie/restaurant2-Address426
tRp1813
ag120
ag9
(V4041 audrie st. at flamingo rd.
NNtRp1814
ag2
(Vhttp://www.okkam.org/oaie/restaurant2-Address559
tRp1815
ag9
(V2011 ocean front walk
NNtRp1816
ag10
ag2
(Vhttp://www.okkam.org/oaie/restaurant2-Address167
tRp1817
ag2
(Vhttp://www.okkam.org/oaie/restaurant2-Address722
tRp1818
ag2
(Vhttp://www.okkam.org/oaie/restaurant2-Restaurant506
tRp1819
ag2
(Vhttp://www.okkam.org/oaie/restaurant2-Address1
tRp1820
ag2
(Vhttp://www.okkam.org/oaie/restaurant2-Address466
tRp1821
ag2
(Vhttp://www.okkam.org/oaie/restaurant2-Category431
tRp1822
ag2
(Vhttp://www.okkam.org/oaie/restaurant2-Category509
tRp1823
ag2
(Vhttp://www.okkam.org/oaie/restaurant2-Restaurant740
tRp1824
ag2
(Vhttp://www.okkam.org/oaie/restaurant2-Address333
tRp1825
ag2
(Vhttp://www.okkam.org/oaie/restaurant2-Restaurant66
tRp1826
ag2
(Vhttp://www.okkam.org/oaie/restaurant2-Category66
tRp1827
ag19
ag9
(V2817 24th st.
NNtRp1828
ag2
(Vhttp://www.okkam.org/oaie/restaurant2-Address573
tRp1829
ag2
(Vhttp://www.okkam.org/oaie/restaurant2-Address208
tRp1830
ag54
ag9
(V169 sullivan st.  between houston and bleecker sts.
NNtRp1831
ag2
(Vhttp://www.okkam.org/oaie/restaurant2-Address107
tRp1832
ag9
(V1737 post st.
NNtRp1833
ag19
ag2
(Vhttp://www.okkam.org/oaie/restaurant2-Address192
tRp1834
ag9
(V120 w. 51st st.
NNtRp1835
ag54
ag9
(V160 central park s
NNtRp1836
ag54
ag2
(Vhttp://www.okkam.org/oaie/restaurant2-Address725
tRp1837
ag54
ag9
(V33 93 2nd ave.  between 5th and 6th sts.
NNtRp1838
ag2
(Vhttp://www.okkam.org/oaie/restaurant2-Category729
tRp1839
ag2
(Vhttp://www.okkam.org/oaie/restaurant2-Address153
tRp1840
ag9
(V301 park ave.  between 49th and 50th sts.
NNtRp1841
ag54
ag2
(Vhttp://www.okkam.org/oaie/restaurant2-Address274
tRp1842
ag2
(Vhttp://www.okkam.org/oaie/restaurant2-Category356
tRp1843
ag2
(Vhttp://www.okkam.org/oaie/restaurant2-Restaurant371
tRp1844
ag2
(Vhttp://www.okkam.org/oaie/restaurant2-Category692
tRp1845
ag9
(V4427 roswell rd.
NNtRp1846
ag28
ag216
ag9
(V102 fifth ave.
NNtRp1847
ag2
(Vhttp://www.okkam.org/oaie/restaurant2-Restaurant382
tRp1848
ag2
(Vhttp://www.okkam.org/oaie/restaurant2-Address382
tRp1849
ag28
ag9
(V3109 piedmont rd.  just south of peachtree rd.
NNtRp1850
ag2
(Vhttp://www.okkam.org/oaie/restaurant2-Category507
tRp1851
ag9
(V368 bleecker st.
NNtRp1852
ag216
ag2
(Vhttp://www.okkam.org/oaie/restaurant2-Address485
tRp1853
ag2
(Vhttp://www.okkam.org/oaie/restaurant2-Address253
tRp1854
ag2
(Vhttp://www.okkam.org/oaie/restaurant2-Restaurant307
tRp1855
ag2
(Vhttp://www.okkam.org/oaie/restaurant2-Address307
tRp1856
ag9
(V120 w. 23rd st.
NNtRp1857
ag54
ag2
(Vhttp://www.okkam.org/oaie/restaurant2-Category300
tRp1858
ag2
(Vhttp://www.okkam.org/oaie/restaurant2-Restaurant335
tRp1859
ag2
(Vhttp://www.okkam.org/oaie/restaurant2-Restaurant561
tRp1860
ag2
(Vhttp://www.okkam.org/oaie/restaurant2-Restaurant670
tRp1861
ag2
(Vhttp://www.okkam.org/oaie/restaurant2-Address670
tRp1862
ag9
(V3500 las vegas blvd. s.
NNtRp1863
ag120
ag2
(Vhttp://www.okkam.org/oaie/restaurant2-Category461
tRp1864
ag2
(Vhttp://www.okkam.org/oaie/restaurant2-Restaurant314
tRp1865
ag2
(Vhttp://www.okkam.org/oaie/restaurant2-Address110
tRp1866
ag2
(Vhttp://www.okkam.org/oaie/restaurant2-Category736
tRp1867
ag2
(Vhttp://www.okkam.org/oaie/restaurant2-Restaurant9
tRp1868
ag2
(Vhttp://www.okkam.org/oaie/restaurant2-Category681
tRp1869
ag2
(Vhttp://www.okkam.org/oaie/restaurant2-Restaurant600
tRp1870
ag2
(Vhttp://www.okkam.org/oaie/restaurant2-Category600
tRp1871
ag2
(Vhttp://www.okkam.org/oaie/restaurant2-Address520
tRp1872
ag19
ag9
(V3235 sacramento st.
NNtRp1873
ag2
(Vhttp://www.okkam.org/oaie/restaurant2-Category186
tRp1874
ag2
(Vhttp://www.okkam.org/oaie/restaurant2-Address360
tRp1875
ag2
(Vhttp://www.okkam.org/oaie/restaurant2-Category608
tRp1876
ag2
(Vhttp://www.okkam.org/oaie/restaurant2-Address86
tRp1877
ag9
(V224 ponce de leon ave.
NNtRp1878
ag28
ag2
(Vhttp://www.okkam.org/oaie/restaurant2-Category432
tRp1879
ag2
(Vhttp://www.okkam.org/oaie/restaurant2-Address552
tRp1880
ag2
(Vhttp://www.okkam.org/oaie/restaurant2-Address571
tRp1881
ag2
(Vhttp://www.okkam.org/oaie/restaurant2-Category577
tRp1882
ag54
ag9
(V39 desbrosses st.  near west st.
NNtRp1883
ag2
(Vhttp://www.okkam.org/oaie/restaurant2-Category217
tRp1884
ag2
(Vhttp://www.okkam.org/oaie/restaurant2-Category62
tRp1885
ag2
(Vhttp://www.okkam.org/oaie/restaurant2-Restaurant45
tRp1886
ag216
ag9
(V57 w. 58th st.
NNtRp1887
ag2
(Vhttp://www.okkam.org/oaie/restaurant2-Address492
tRp1888
ag9
(V133 clement st.
NNtRp1889
ag19
ag2
(Vhttp://www.okkam.org/oaie/restaurant2-Address546
tRp1890
ag2
(Vhttp://www.okkam.org/oaie/restaurant2-Address182
tRp1891
ag54
ag9
(V206 206 e. 60th st.
NNtRp1892
ag2
(Vhttp://www.okkam.org/oaie/restaurant2-Address355
tRp1893
ag2
(Vhttp://www.okkam.org/oaie/restaurant2-Restaurant522
tRp1894
ag9
(V3148 geary blvd.
NNtRp1895
ag19
ag9
(V99 e. 52nd st.
NNtRp1896
ag216
ag2
(Vhttp://www.okkam.org/oaie/restaurant2-Address365
tRp1897
ag2
(Vhttp://www.okkam.org/oaie/restaurant2-Restaurant693
tRp1898
ag2
(Vhttp://www.okkam.org/oaie/restaurant2-Address693
tRp1899
ag9
(V1087 green st.
NNtRp1900
ag93
ag2
(Vhttp://www.okkam.org/oaie/restaurant2-restaurant246
tRp1901
ag204
ag9
(V4500 los feliz blvd.
NNtRp1902
ag2
(Vhttp://www.okkam.org/oaie/restaurant2-Category408
tRp1903
ag2
(Vhttp://www.okkam.org/oaie/restaurant2-Category441
tRp1904
ag2
(Vhttp://www.okkam.org/oaie/restaurant2-Restaurant372
tRp1905
ag2
(Vhttp://www.okkam.org/oaie/restaurant2-Category585
tRp1906
ag2
(Vhttp://www.okkam.org/oaie/restaurant2-Restaurant22
tRp1907
ag2
(Vhttp://www.okkam.org/oaie/restaurant2-Category22
tRp1908
ag2
(Vhttp://www.okkam.org/oaie/restaurant2-restaurant278
tRp1909
ag2
(Vhttp://www.okkam.org/oaie/restaurant2-Category113
tRp1910
ag9
(V400 e. sahara ave.
NNtRp1911
ag120
ag2
(Vhttp://www.okkam.org/oaie/restaurant2-Address377
tRp1912
ag2
(Vhttp://www.okkam.org/oaie/restaurant2-Address150
tRp1913
ag2
(Vhttp://www.okkam.org/oaie/restaurant2-Category3
tRp1914
ag2
(Vhttp://www.okkam.org/oaie/restaurant2-Category423
tRp1915
ag2
(Vhttp://www.okkam.org/oaie/restaurant2-Restaurant92
tRp1916
ag2
(Vhttp://www.okkam.org/oaie/restaurant2-Address92
tRp1917
ag28
ag9
(V293-b peachtree rd.
NNtRp1918
ag2
(Vhttp://www.okkam.org/oaie/restaurant2-Category58
tRp1919
ag204
ag9
(V930 hilgard ave.
NNtRp1920
ag9
(V150 w. 46th st.
NNtRp1921
ag54
ag2
(Vhttp://www.okkam.org/oaie/restaurant2-Category185
tRp1922
ag2
(Vhttp://www.okkam.org/oaie/restaurant2-Address222
tRp1923
ag9
(V53rd sts.
NNtRp1924
ag54
ag2
(Vhttp://www.okkam.org/oaie/restaurant2-Address603
tRp1925
ag2
(Vhttp://www.okkam.org/oaie/restaurant2-Category625
tRp1926
ag2
(Vhttp://www.okkam.org/oaie/restaurant2-Category460
tRp1927
ag2
(Vhttp://www.okkam.org/oaie/restaurant2-Restaurant557
tRp1928
ag2
(Vhttp://www.okkam.org/oaie/restaurant2-Category557
tRp1929
ag9
(V501 geary st.
NNtRp1930
ag19
ag2
(Vhttp://www.okkam.org/oaie/restaurant2-Restaurant401
tRp1931
ag2
(Vhttp://www.okkam.org/oaie/restaurant2-Category401
tRp1932
ag2
(Vhttp://www.okkam.org/oaie/restaurant2-restaurant281
tRp1933
ag9
(V222 e. 58th st.  between 2nd and 3rd aves.
NNtRp1934
ag54
ag2
(Vhttp://www.okkam.org/oaie/restaurant2-Restaurant628
tRp1935
ag2
(Vhttp://www.okkam.org/oaie/restaurant2-Address628
tRp1936
ag9
(V296 bleecker st.
NNtRp1937
ag216
ag2
(Vhttp://www.okkam.org/oaie/restaurant2-Restaurant414
tRp1938
ag9
(V3525 mall blvd.
NNtRp1939
ag9
(Vduluth
NNtRp1940
ag2
(Vhttp://www.okkam.org/oaie/restaurant2-Category306
tRp1941
ag2
(Vhttp://www.okkam.org/oaie/restaurant2-Category26
tRp1942
ag2
(Vhttp://www.okkam.org/oaie/restaurant2-Address391
tRp1943
ag28
ag9
(V40  buckhead crossing mall on the sidney marcus blvd.
NNtRp1944
ag2
(Vhttp://www.okkam.org/oaie/restaurant2-Category18
tRp1945
ag2
(Vhttp://www.okkam.org/oaie/restaurant2-Address31
tRp1946
ag2
(Vhttp://www.okkam.org/oaie/restaurant2-Category325
tRp1947
ag2
(Vhttp://www.okkam.org/oaie/restaurant2-Restaurant544
tRp1948
ag2
(Vhttp://www.okkam.org/oaie/restaurant2-Category285
tRp1949
ag2
(Vhttp://www.okkam.org/oaie/restaurant2-Address439
tRp1950
ag2
(Vhttp://www.okkam.org/oaie/restaurant2-Address195
tRp1951
ag2
(Vhttp://www.okkam.org/oaie/restaurant2-Restaurant495
tRp1952
ag2
(Vhttp://www.okkam.org/oaie/restaurant2-Category495
tRp1953
ag2
(Vhttp://www.okkam.org/oaie/restaurant2-Category464
tRp1954
ag2
(Vhttp://www.okkam.org/oaie/restaurant2-Restaurant88
tRp1955
ag2
(Vhttp://www.okkam.org/oaie/restaurant2-Address178
tRp1956
ag54
ag9
(V311 w. 17th st.
NNtRp1957
ag2
(Vhttp://www.okkam.org/oaie/restaurant2-Address318
tRp1958
ag2
(Vhttp://www.okkam.org/oaie/restaurant2-Address712
tRp1959
ag9
(V519 e. paces ferry rd.
NNtRp1960
ag28
ag2
(Vhttp://www.okkam.org/oaie/restaurant2-Category261
tRp1961
ag2
(Vhttp://www.okkam.org/oaie/restaurant2-Restaurant679
tRp1962
ag2
(Vhttp://www.okkam.org/oaie/restaurant2-Restaurant482
tRp1963
ag2
(Vhttp://www.okkam.org/oaie/restaurant2-Address482
tRp1964
ag9
(V1521 hyde st.
NNtRp1965
ag19
ag2
(Vhttp://www.okkam.org/oaie/restaurant2-Address671
tRp1966
ag2
(Vhttp://www.okkam.org/oaie/restaurant2-Category381
tRp1967
ag2
(Vhttp://www.okkam.org/oaie/restaurant2-Address572
tRp1968
ag2
(Vhttp://www.okkam.org/oaie/restaurant2-Address558
tRp1969
ag2
(Vhttp://www.okkam.org/oaie/restaurant2-Category371
tRp1970
ag2
(Vhttp://www.okkam.org/oaie/restaurant2-Category667
tRp1971
ag2
(Vhttp://www.okkam.org/oaie/restaurant2-Category279
tRp1972
ag2
(Vhttp://www.okkam.org/oaie/restaurant2-Address66
tRp1973
ag216
ag9
(V152 w. 44th st.
NNtRp1974
ag2
(Vhttp://www.okkam.org/oaie/restaurant2-Address243
tRp1975
ag2
(Vhttp://www.okkam.org/oaie/restaurant2-Restaurant303
tRp1976
ag2
(Vhttp://www.okkam.org/oaie/restaurant2-Category343
tRp1977
ag2
(Vhttp://www.okkam.org/oaie/restaurant2-Category700
tRp1978
ag2
(Vhttp://www.okkam.org/oaie/restaurant2-Category160
tRp1979
ag2
(Vhttp://www.okkam.org/oaie/restaurant2-Restaurant609
tRp1980
ag2
(Vhttp://www.okkam.org/oaie/restaurant2-Category609
tRp1981
ag2
(Vhttp://www.okkam.org/oaie/restaurant2-Restaurant481
tRp1982
ag2
(Vhttp://www.okkam.org/oaie/restaurant2-Category506
tRp1983
ag2
(Vhttp://www.okkam.org/oaie/restaurant2-Restaurant721
tRp1984
ag2
(Vhttp://www.okkam.org/oaie/restaurant2-Restaurant516
tRp1985
ag2
(Vhttp://www.okkam.org/oaie/restaurant2-Address516
tRp1986
ag19
ag9
(V1240 9th ave.
NNtRp1987
ag2
(Vhttp://www.okkam.org/oaie/restaurant2-Restaurant93
tRp1988
ag2
(Vhttp://www.okkam.org/oaie/restaurant2-Category389
tRp1989
ag2
(Vhttp://www.okkam.org/oaie/restaurant2-Address561
tRp1990
ag2
(Vhttp://www.okkam.org/oaie/restaurant2-Address575
tRp1991
ag9
(V797 third ave.
NNtRp1992
ag216
ag2
(Vhttp://www.okkam.org/oaie/restaurant2-Category643
tRp1993
ag9
(V4 w. 49th st.
NNtRp1994
ag54
ag2
(Vhttp://www.okkam.org/oaie/restaurant2-Category428
tRp1995
ag2
(Vhttp://www.okkam.org/oaie/restaurant2-Restaurant429
tRp1996
ag2
(Vhttp://www.okkam.org/oaie/restaurant2-Address429
tRp1997
ag120
ag9
(V3400 las vegas blvd. s
NNtRp1998
ag2
(Vhttp://www.okkam.org/oaie/restaurant2-Category568
tRp1999
ag2
(Vhttp://www.okkam.org/oaie/restaurant2-Category332
tRp2000
ag9
(Vwestlake village
NNtRp2001
ag9
(V3345 kimber dr.
NNtRp2002
ag9
(V32 jones st. at bleecker st.
NNtRp2003
ag54
ag9
(V109 spring st.  between greene and mercer sts.
NNtRp2004
ag54
ag2
(Vhttp://www.okkam.org/oaie/restaurant2-Restaurant463
tRp2005
ag2
(Vhttp://www.okkam.org/oaie/restaurant2-Restaurant39
tRp2006
ag2
(Vhttp://www.okkam.org/oaie/restaurant2-Category39
tRp2007
ag2
(Vhttp://www.okkam.org/oaie/restaurant2-Category49
tRp2008
ag2
(Vhttp://www.okkam.org/oaie/restaurant2-Restaurant403
tRp2009
ag19
ag9
(V1805 haight st.
NNtRp2010
ag2
(Vhttp://www.okkam.org/oaie/restaurant2-Address393
tRp2011
ag28
ag9
(V3380 peachtree rd.
NNtRp2012
ag2
(Vhttp://www.okkam.org/oaie/restaurant2-Address278
tRp2013
ag9
(Vbel air
NNtRp2014
ag9
(V701 stone canyon rd.
NNtRp2015
ag2
(Vhttp://www.okkam.org/oaie/restaurant2-Address349
tRp2016
ag2
(Vhttp://www.okkam.org/oaie/restaurant2-Category347
tRp2017
ag2
(Vhttp://www.okkam.org/oaie/restaurant2-Address414
tRp2018
ag9
(V25 irby ave.
NNtRp2019
ag28
ag216
ag9
(V483 amsterdam ave.
NNtRp2020
ag2
(Vhttp://www.okkam.org/oaie/restaurant2-Category229
tRp2021
ag2
(Vhttp://www.okkam.org/oaie/restaurant2-Restaurant25
tRp2022
ag2
(Vhttp://www.okkam.org/oaie/restaurant2-Category339
tRp2023
ag2
(Vhttp://www.okkam.org/oaie/restaurant2-Restaurant552
tRp2024
ag9
(Vwestwood
NNtRp2025
ag9
(V1059 broxton ave.
NNtRp2026
ag2
(Vhttp://www.okkam.org/oaie/restaurant2-Restaurant585
tRp2027
ag2
(Vhttp://www.okkam.org/oaie/restaurant2-Address72
tRp2028
ag9
(V2880 las vegas blvd. s.
NNtRp2029
ag120
ag2
(Vhttp://www.okkam.org/oaie/restaurant2-Restaurant360
tRp2030
ag2
(Vhttp://www.okkam.org/oaie/restaurant2-Category360
tRp2031
ag54
ag9
(V1340 1st ave. at 72nd st.
NNtRp2032
ag2
(Vhttp://www.okkam.org/oaie/restaurant2-Address371
tRp2033
ag2
(Vhttp://www.okkam.org/oaie/restaurant2-Address600
tRp2034
ag2
(Vhttp://www.okkam.org/oaie/restaurant2-Restaurant279
tRp2035
ag2
(Vhttp://www.okkam.org/oaie/restaurant2-Restaurant450
tRp2036
ag2
(Vhttp://www.okkam.org/oaie/restaurant2-Address450
tRp2037
ag120
ag9
(V3713 w. sahara ave.
NNtRp2038
ag9
(V7313 melrose ave.
NNtRp2039
ag204
ag19
ag9
(V340 stockton st.
NNtRp2040
ag2
(Vhttp://www.okkam.org/oaie/restaurant2-Restaurant639
tRp2041
ag2
(Vhttp://www.okkam.org/oaie/restaurant2-Restaurant586
tRp2042
ag9
(V709 n. la brea ave.
NNtRp2043
ag290
ag2
(Vhttp://www.okkam.org/oaie/restaurant2-Address135
tRp2044
ag9
(V26025 pacific coast hwy.
NNtRp2045
ag1277
ag2
(Vhttp://www.okkam.org/oaie/restaurant2-Category99
tRp2046
ag2
(Vhttp://www.okkam.org/oaie/restaurant2-Restaurant362
tRp2047
ag2
(Vhttp://www.okkam.org/oaie/restaurant2-Category707
tRp2048
ag2
(Vhttp://www.okkam.org/oaie/restaurant2-Category263
tRp2049
ag2
(Vhttp://www.okkam.org/oaie/restaurant2-Restaurant320
tRp2050
ag54
ag9
(V151 w. 51st. st.
NNtRp2051
ag2
(Vhttp://www.okkam.org/oaie/restaurant2-Restaurant730
tRp2052
ag2
(Vhttp://www.okkam.org/oaie/restaurant2-Category730
tRp2053
ag2
(Vhttp://www.okkam.org/oaie/restaurant2-Address459
tRp2054
ag2
(Vhttp://www.okkam.org/oaie/restaurant2-Category312
tRp2055
ag2
(Vhttp://www.okkam.org/oaie/restaurant2-Address22
tRp2056
ag9
(V67 n. raymond ave.
NNtRp2057
ag9
(Vpasadena
NNtRp2058
ag2
(Vhttp://www.okkam.org/oaie/restaurant2-Restaurant212
tRp2059
ag54
ag9
(V1161 1st ave.  between 63rd and 64th sts.
NNtRp2060
ag2
(Vhttp://www.okkam.org/oaie/restaurant2-Address143
tRp2061
ag2
(Vhttp://www.okkam.org/oaie/restaurant2-Restaurant67
tRp2062
ag2
(Vhttp://www.okkam.org/oaie/restaurant2-Address67
tRp2063
ag120
ag9
(V3200 las vegas blvd. s.
NNtRp2064
ag2
(Vhttp://www.okkam.org/oaie/restaurant2-Address750
tRp2065
ag2
(Vhttp://www.okkam.org/oaie/restaurant2-Address581
tRp2066
ag9
(V3117 ocean park blvd.
NNtRp2067
ag786
ag2
(Vhttp://www.okkam.org/oaie/restaurant2-Address527
tRp2068
ag2
(Vhttp://www.okkam.org/oaie/restaurant2-Address228
tRp2069
ag2
(Vhttp://www.okkam.org/oaie/restaurant2-Restaurant384
tRp2070
ag28
ag9
(V260 e. paces ferry road
NNtRp2071
ag2
(Vhttp://www.okkam.org/oaie/restaurant2-Address40
tRp2072
ag2
(Vhttp://www.okkam.org/oaie/restaurant2-Address374
tRp2073
ag2
(Vhttp://www.okkam.org/oaie/restaurant2-Address156
tRp2074
ag19
ag9
(V3300 geary blvd.
NNtRp2075
ag2
(Vhttp://www.okkam.org/oaie/restaurant2-Address177
tRp2076
ag54
ag9
(V304 e. 48th st.
NNtRp2077
ag9
(V8800 melrose ave.
NNtRp2078
ag204
ag2
(Vhttp://www.okkam.org/oaie/restaurant2-Restaurant293
tRp2079
ag2
(Vhttp://www.okkam.org/oaie/restaurant2-Category293
tRp2080
ag2
(Vhttp://www.okkam.org/oaie/restaurant2-restaurant20
tRp2081
ag2
(Vhttp://www.okkam.org/oaie/restaurant2-Category10
tRp2082
ag2
(Vhttp://www.okkam.org/oaie/restaurant2-Category552
tRp2083
ag2
(Vhttp://www.okkam.org/oaie/restaurant2-Category485
tRp2084
ag2
(Vhttp://www.okkam.org/oaie/restaurant2-Category171
tRp2085
ag2
(Vhttp://www.okkam.org/oaie/restaurant2-Category541
tRp2086
ag2
(Vhttp://www.okkam.org/oaie/restaurant2-restaurant288
tRp2087
ag2
(Vhttp://www.okkam.org/oaie/restaurant2-Address27
tRp2088
ag9
(V1 w. 67th st.
NNtRp2089
ag216
ag204
ag9
(V8783 beverly blvd.
NNtRp2090
ag2
(Vhttp://www.okkam.org/oaie/restaurant2-Restaurant338
tRp2091
ag2
(Vhttp://www.okkam.org/oaie/restaurant2-Restaurant466
tRp2092
ag2
(Vhttp://www.okkam.org/oaie/restaurant2-Restaurant640
tRp2093
ag2
(Vhttp://www.okkam.org/oaie/restaurant2-Address640
tRp2094
ag9
(V1295 madison ave.
NNtRp2095
ag216
ag9
(Vst. hermosa beach
NNtRp2096
ag9
(V22nd street grill 25 22nd
NNtRp2097
ag2
(Vhttp://www.okkam.org/oaie/restaurant2-Restaurant743
tRp2098
ag2
(Vhttp://www.okkam.org/oaie/restaurant2-restaurant212
tRp2099
ag2
(Vhttp://www.okkam.org/oaie/restaurant2-Category112
tRp2100
ag2
(Vhttp://www.okkam.org/oaie/restaurant2-Address246
tRp2101
ag2
(Vhttp://www.okkam.org/oaie/restaurant2-Category558
tRp2102
ag2
(Vhttp://www.okkam.org/oaie/restaurant2-Restaurant700
tRp2103
ag9
(V3131 webster st.
NNtRp2104
ag19
ag2
(Vhttp://www.okkam.org/oaie/restaurant2-Category201
tRp2105
ag2
(Vhttp://www.okkam.org/oaie/restaurant2-Restaurant46
tRp2106
ag2
(Vhttp://www.okkam.org/oaie/restaurant2-Address44
tRp2107
ag2
(Vhttp://www.okkam.org/oaie/restaurant2-Address100
tRp2108
ag19
ag9
(V777 sutter st.
NNtRp2109
ag2
(Vhttp://www.okkam.org/oaie/restaurant2-Category278
tRp2110
ag2
(Vhttp://www.okkam.org/oaie/restaurant2-Restaurant336
tRp2111
ag2
(Vhttp://www.okkam.org/oaie/restaurant2-Address336
tRp2112
ag54
ag9
(V126 e. 7th st.  between 1st ave. and ave. a
NNtRp2113
ag2
(Vhttp://www.okkam.org/oaie/restaurant2-restaurant287
tRp2114
ag2
(Vhttp://www.okkam.org/oaie/restaurant2-Category187
tRp2115
ag2
(Vhttp://www.okkam.org/oaie/restaurant2-restaurant2
tRp2116
ag373
ag9
(V12224 ventura blvd.
NNtRp2117
ag2
(Vhttp://www.okkam.org/oaie/restaurant2-Category194
tRp2118
ag2
(Vhttp://www.okkam.org/oaie/restaurant2-Category153
tRp2119
ag2
(Vhttp://www.okkam.org/oaie/restaurant2-Category696
tRp2120
ag2
(Vhttp://www.okkam.org/oaie/restaurant2-Address70
tRp2121
ag2
(Vhttp://www.okkam.org/oaie/restaurant2-Category626
tRp2122
ag2
(Vhttp://www.okkam.org/oaie/restaurant2-Address368
tRp2123
ag9
(V420 e. 59th st.  off 1st ave.
NNtRp2124
ag54
ag2
(Vhttp://www.okkam.org/oaie/restaurant2-Address346
tRp2125
ag9
(V3 225 e. 60th st.
NNtRp2126
ag54
ag2
(Vhttp://www.okkam.org/oaie/restaurant2-Category380
tRp2127
ag2
(Vhttp://www.okkam.org/oaie/restaurant2-Restaurant573
tRp2128
ag2
(Vhttp://www.okkam.org/oaie/restaurant2-restaurant25
tRp2129
ag9
(V9001 santa monica blvd.
NNtRp2130
ag469
ag2
(Vhttp://www.okkam.org/oaie/restaurant2-Address398
tRp2131
ag2
(Vhttp://www.okkam.org/oaie/restaurant2-Address264
tRp2132
ag2
(Vhttp://www.okkam.org/oaie/restaurant2-Category721
tRp2133
ag2
(Vhttp://www.okkam.org/oaie/restaurant2-Category561
tRp2134
ag2
(Vhttp://www.okkam.org/oaie/restaurant2-Restaurant402
tRp2135
ag2
(Vhttp://www.okkam.org/oaie/restaurant2-Category274
tRp2136
ag28
ag9
(V3393 peachtree rd.
NNtRp2137
ag2
(Vhttp://www.okkam.org/oaie/restaurant2-Restaurant416
tRp2138
ag2
(Vhttp://www.okkam.org/oaie/restaurant2-Restaurant313
tRp2139
ag2
(Vhttp://www.okkam.org/oaie/restaurant2-Category221
tRp2140
ag2
(Vhttp://www.okkam.org/oaie/restaurant2-Category208
tRp2141
ag2
(Vhttp://www.okkam.org/oaie/restaurant2-Address25
tRp2142
ag216
ag9
(V34 e. 61st st.
NNtRp2143
ag2
(Vhttp://www.okkam.org/oaie/restaurant2-Address747
tRp2144
ag2
(Vhttp://www.okkam.org/oaie/restaurant2-Address534
tRp2145
ag1545
ag9
(V10801 w. pico blvd.
NNtRp2146
ag2
(Vhttp://www.okkam.org/oaie/restaurant2-Restaurant269
tRp2147
ag2
(Vhttp://www.okkam.org/oaie/restaurant2-Address58
tRp2148
ag9
(V156 second ave.
NNtRp2149
ag216
ag2
(Vhttp://www.okkam.org/oaie/restaurant2-Restaurant368
tRp2150
ag2
(Vhttp://www.okkam.org/oaie/restaurant2-Category368
tRp2151
ag2
(Vhttp://www.okkam.org/oaie/restaurant2-Category732
tRp2152
ag2
(Vhttp://www.okkam.org/oaie/restaurant2-Address724
tRp2153
ag2
(Vhttp://www.okkam.org/oaie/restaurant2-Category272
tRp2154
ag2
(Vhttp://www.okkam.org/oaie/restaurant2-Category68
tRp2155
ag2
(Vhttp://www.okkam.org/oaie/restaurant2-Restaurant43
tRp2156
ag2
(Vhttp://www.okkam.org/oaie/restaurant2-Category43
tRp2157
ag2
(Vhttp://www.okkam.org/oaie/restaurant2-Category135
tRp2158
ag2
(Vhttp://www.okkam.org/oaie/restaurant2-Address203
tRp2159
ag2
(Vhttp://www.okkam.org/oaie/restaurant2-Category670
tRp2160
ag2
(Vhttp://www.okkam.org/oaie/restaurant2-Restaurant576
tRp2161
ag2
(Vhttp://www.okkam.org/oaie/restaurant2-Restaurant568
tRp2162
ag120
ag9
(V4111 boulder hwy.
NNtRp2163
ag2
(Vhttp://www.okkam.org/oaie/restaurant2-Category424
tRp2164
ag2
(Vhttp://www.okkam.org/oaie/restaurant2-Category326
tRp2165
ag9
(V4320 powers ferry rd.
NNtRp2166
ag28
ag2
(Vhttp://www.okkam.org/oaie/restaurant2-restaurant290
tRp2167
ag9
(V2317 chestnut st.
NNtRp2168
ag19
ag2
(Vhttp://www.okkam.org/oaie/restaurant2-Category634
tRp2169
ag2
(Vhttp://www.okkam.org/oaie/restaurant2-Category745
tRp2170
ag2
(Vhttp://www.okkam.org/oaie/restaurant2-Restaurant620
tRp2171
ag9
(V3000 las vegas blvd. s
NNtRp2172
ag120
ag2
(Vhttp://www.okkam.org/oaie/restaurant2-Address574
tRp2173
ag290
ag9
(V519 s. fairfax ave.
NNtRp2174
ag9
(V400 waller st.
NNtRp2175
ag19
ag2
(Vhttp://www.okkam.org/oaie/restaurant2-Restaurant724
tRp2176
ag2
(Vhttp://www.okkam.org/oaie/restaurant2-restaurant286
tRp2177
ag28
ag9
(V3125 piedmont rd.
NNtRp2178
ag2
(Vhttp://www.okkam.org/oaie/restaurant2-Category344
tRp2179
ag2
(Vhttp://www.okkam.org/oaie/restaurant2-Address687
tRp2180
ag2
(Vhttp://www.okkam.org/oaie/restaurant2-Address474
tRp2181
ag9
(Vbldg. a fort mason
NNtRp2182
ag19
ag2
(Vhttp://www.okkam.org/oaie/restaurant2-Address364
tRp2183
ag9
(Vencino
NNtRp2184
ag9
(V15322 ventura blvd.
NNtRp2185
ag2
(Vhttp://www.okkam.org/oaie/restaurant2-Address598
tRp2186
ag2
(Vhttp://www.okkam.org/oaie/restaurant2-Category330
tRp2187
ag2
(Vhttp://www.okkam.org/oaie/restaurant2-Category181
tRp2188
ag9
(V3384 shallowford rd.  chamblee
NNtRp2189
ag28
ag2
(Vhttp://www.okkam.org/oaie/restaurant2-Restaurant228
tRp2190
ag9
(V10516 w. pico blvd.
NNtRp2191
ag1545
ag2
(Vhttp://www.okkam.org/oaie/restaurant2-Category362
tRp2192
ag2
(Vhttp://www.okkam.org/oaie/restaurant2-Restaurant64
tRp2193
ag9
(V747 ninth ave.
NNtRp2194
ag216
ag2
(Vhttp://www.okkam.org/oaie/restaurant2-Category189
tRp2195
ag2
(Vhttp://www.okkam.org/oaie/restaurant2-Address484
tRp2196
ag2
(Vhttp://www.okkam.org/oaie/restaurant2-Address71
tRp2197
ag2
(Vhttp://www.okkam.org/oaie/restaurant2-restaurant255
tRp2198
ag2
(Vhttp://www.okkam.org/oaie/restaurant2-Category155
tRp2199
ag9
(V1448 n. gower st.
NNtRp2200
ag204
ag2
(Vhttp://www.okkam.org/oaie/restaurant2-Restaurant648
tRp2201
ag2
(Vhttp://www.okkam.org/oaie/restaurant2-Address648
tRp2202
ag9
(V151 hudson st.
NNtRp2203
ag216
ag2
(Vhttp://www.okkam.org/oaie/restaurant2-Restaurant405
tRp2204
ag2
(Vhttp://www.okkam.org/oaie/restaurant2-Category405
tRp2205
ag2
(Vhttp://www.okkam.org/oaie/restaurant2-Address458
tRp2206
ag2
(Vhttp://www.okkam.org/oaie/restaurant2-Category419
tRp2207
ag2
(Vhttp://www.okkam.org/oaie/restaurant2-Category376
tRp2208
ag2
(Vhttp://www.okkam.org/oaie/restaurant2-Restaurant513
tRp2209
ag2058
ag9
(V510 s. arroyo pkwy.
NNtRp2210
ag2
(Vhttp://www.okkam.org/oaie/restaurant2-Restaurant286
tRp2211
ag54
ag9
(V149 e. 57th st.
NNtRp2212
ag2
(Vhttp://www.okkam.org/oaie/restaurant2-Category703
tRp2213
ag2
(Vhttp://www.okkam.org/oaie/restaurant2-restaurant266
tRp2214
ag2
(Vhttp://www.okkam.org/oaie/restaurant2-Category233
tRp2215
ag9
(V41 14th st.
NNtRp2216
ag28
ag2
(Vhttp://www.okkam.org/oaie/restaurant2-Restaurant441
tRp2217
ag9
(V635 9th ave.  between 44th and 45th sts.
NNtRp2218
ag54
ag2
(Vhttp://www.okkam.org/oaie/restaurant2-Restaurant452
tRp2219
ag2
(Vhttp://www.okkam.org/oaie/restaurant2-Address452
tRp2220
ag9
(V3900 paradise rd.
NNtRp2221
ag120
ag216
ag9
(V60 w. 55th st.
NNtRp2222
ag2
(Vhttp://www.okkam.org/oaie/restaurant2-Category206
tRp2223
ag2
(Vhttp://www.okkam.org/oaie/restaurant2-Restaurant572
tRp2224
ag2
(Vhttp://www.okkam.org/oaie/restaurant2-Category572
tRp2225
ag28
ag9
(V490 e. paces ferry rd. ne
NNtRp2226
ag2
(Vhttp://www.okkam.org/oaie/restaurant2-Restaurant687
tRp2227
ag2
(Vhttp://www.okkam.org/oaie/restaurant2-Restaurant669
tRp2228
ag2
(Vhttp://www.okkam.org/oaie/restaurant2-Address505
tRp2229
ag2
(Vhttp://www.okkam.org/oaie/restaurant2-Restaurant274
tRp2230
ag2
(Vhttp://www.okkam.org/oaie/restaurant2-Address496
tRp2231
ag54
ag9
(V69 w. 71st st.
NNtRp2232
ag2
(Vhttp://www.okkam.org/oaie/restaurant2-Address446
tRp2233
ag2
(Vhttp://www.okkam.org/oaie/restaurant2-Restaurant690
tRp2234
ag2
(Vhttp://www.okkam.org/oaie/restaurant2-Address3
tRp2235
ag2
(Vhttp://www.okkam.org/oaie/restaurant2-Address338
tRp2236
ag54
ag9
(V350 9th ave. at 49th st.
NNtRp2237
ag2
(Vhttp://www.okkam.org/oaie/restaurant2-Address237
tRp2238
ag2
(Vhttp://www.okkam.org/oaie/restaurant2-Restaurant390
tRp2239
ag2
(Vhttp://www.okkam.org/oaie/restaurant2-Category390
tRp2240
ag2
(Vhttp://www.okkam.org/oaie/restaurant2-Address313
tRp2241
ag2
(Vhttp://www.okkam.org/oaie/restaurant2-Address340
tRp2242
ag9
(V160 e. 64th st.
NNtRp2243
ag216
ag2
(Vhttp://www.okkam.org/oaie/restaurant2-Category612
tRp2244
ag2
(Vhttp://www.okkam.org/oaie/restaurant2-Restaurant543
tRp2245
ag9
(V1570 rosecrans ave. s.
NNtRp2246
ag2058
ag2
(Vhttp://www.okkam.org/oaie/restaurant2-Category319
tRp2247
ag2
(Vhttp://www.okkam.org/oaie/restaurant2-restaurant216
tRp2248
ag2
(Vhttp://www.okkam.org/oaie/restaurant2-Address306
tRp2249
ag9
(V1931 peachtree rd.
NNtRp2250
ag28
ag2
(Vhttp://www.okkam.org/oaie/restaurant2-Restaurant209
tRp2251
ag2
(Vhttp://www.okkam.org/oaie/restaurant2-Address730
tRp2252
ag9
(V1550 california st.
NNtRp2253
ag19
ag216
ag9
(V240 central park s.
NNtRp2254
ag2
(Vhttp://www.okkam.org/oaie/restaurant2-Restaurant358
tRp2255
ag2
(Vhttp://www.okkam.org/oaie/restaurant2-Restaurant61
tRp2256
ag2
(Vhttp://www.okkam.org/oaie/restaurant2-Address61
tRp2257
ag216
ag9
(V1110 third ave.
NNtRp2258
ag2
(Vhttp://www.okkam.org/oaie/restaurant2-Restaurant244
tRp2259
ag9
(V4 embarcadero center
NNtRp2260
ag19
ag2
(Vhttp://www.okkam.org/oaie/restaurant2-Address403
tRp2261
ag54
ag9
(V371 w. 46th st.  off 9th ave.
NNtRp2262
ag2
(Vhttp://www.okkam.org/oaie/restaurant2-Restaurant323
tRp2263
ag9
(V250 park ave. s at 20th st.
NNtRp2264
ag54
ag2
(Vhttp://www.okkam.org/oaie/restaurant2-Address609
tRp2265
ag2
(Vhttp://www.okkam.org/oaie/restaurant2-Category530
tRp2266
ag2
(Vhttp://www.okkam.org/oaie/restaurant2-Category651
tRp2267
ag2
(Vhttp://www.okkam.org/oaie/restaurant2-Category677
tRp2268
ag2
(Vhttp://www.okkam.org/oaie/restaurant2-Category738
tRp2269
ag2
(Vhttp://www.okkam.org/oaie/restaurant2-Category29
tRp2270
ag216
ag9
(V402 w. 44th st.
NNtRp2271
ag2
(Vhttp://www.okkam.org/oaie/restaurant2-Category54
tRp2272
ag2
(Vhttp://www.okkam.org/oaie/restaurant2-Restaurant497
tRp2273
ag28
ag9
(V7050 jimmy carter blvd.  norcross
NNtRp2274
ag2
(Vhttp://www.okkam.org/oaie/restaurant2-Category502
tRp2275
ag2
(Vhttp://www.okkam.org/oaie/restaurant2-Address127
tRp2276
ag2
(Vhttp://www.okkam.org/oaie/restaurant2-Restaurant71
tRp2277
ag120
ag9
(V200 e. fremont st.
NNtRp2278
ag2
(Vhttp://www.okkam.org/oaie/restaurant2-Category648
tRp2279
ag2
(Vhttp://www.okkam.org/oaie/restaurant2-Address727
tRp2280
ag2
(Vhttp://www.okkam.org/oaie/restaurant2-Category706
tRp2281
ag2
(Vhttp://www.okkam.org/oaie/restaurant2-Address716
tRp2282
ag2
(Vhttp://www.okkam.org/oaie/restaurant2-Category38
tRp2283
ag2
(Vhttp://www.okkam.org/oaie/restaurant2-Category292
tRp2284
ag54
ag9
(V361 w. 46th st.
NNtRp2285
ag2
(Vhttp://www.okkam.org/oaie/restaurant2-Address303
tRp2286
ag9
(V15 e. 12th st.  between 5th ave. and university pl.
NNtRp2287
ag54
ag2
(Vhttp://www.okkam.org/oaie/restaurant2-Category210
tRp2288
ag2
(Vhttp://www.okkam.org/oaie/restaurant2-Restaurant685
tRp2289
ag2
(Vhttp://www.okkam.org/oaie/restaurant2-Address685
tRp2290
ag1777
ag9
(V1021 cobb pkwy. se
NNtRp2291
ag2
(Vhttp://www.okkam.org/oaie/restaurant2-Category143
tRp2292
ag2
(Vhttp://www.okkam.org/oaie/restaurant2-Restaurant3
tRp2293
ag9
(V14016 ventura blvd.
NNtRp2294
ag9
(Vsherman oaks
NNtRp2295
ag2
(Vhttp://www.okkam.org/oaie/restaurant2-Category704
tRp2296
ag9
(V3570 las vegas blvd. s.
NNtRp2297
ag120
ag1571
ag120
ag2
(Vhttp://www.okkam.org/oaie/restaurant2-Category497
tRp2298
ag2
(Vhttp://www.okkam.org/oaie/restaurant2-Address386
tRp2299
ag2
(Vhttp://www.okkam.org/oaie/restaurant2-Address554
tRp2300
ag290
ag9
(V6333 w. third st.
NNtRp2301
ag2
(Vhttp://www.okkam.org/oaie/restaurant2-Address189
tRp2302
ag9
(V948 1st ave.  between 52nd and 53rd sts.
NNtRp2303
ag54
ag119
ag120
ag54
ag9
(V222 w. 79th st.
NNtRp2304
ag2
(Vhttp://www.okkam.org/oaie/restaurant2-Category48
tRp2305
ag2
(Vhttp://www.okkam.org/oaie/restaurant2-Restaurant365
tRp2306
ag9
(V154 e. 79th st.  between lexington and 3rd aves.
NNtRp2307
ag54
ag2
(Vhttp://www.okkam.org/oaie/restaurant2-Address271
tRp2308
ag2
(Vhttp://www.okkam.org/oaie/restaurant2-Category216
tRp2309
ag2
(Vhttp://www.okkam.org/oaie/restaurant2-Category200
tRp2310
ag2
(Vhttp://www.okkam.org/oaie/restaurant2-Restaurant231
tRp2311
ag2
(Vhttp://www.okkam.org/oaie/restaurant2-Category596
tRp2312
ag2
(Vhttp://www.okkam.org/oaie/restaurant2-Category195
tRp2313
ag2
(Vhttp://www.okkam.org/oaie/restaurant2-Restaurant459
tRp2314
ag19
ag9
(V598 fourth st.
NNtRp2315
ag2
(Vhttp://www.okkam.org/oaie/restaurant2-Restaurant299
tRp2316
ag2
(Vhttp://www.okkam.org/oaie/restaurant2-Category524
tRp2317
ag2
(Vhttp://www.okkam.org/oaie/restaurant2-Category31
tRp2318
ag2
(Vhttp://www.okkam.org/oaie/restaurant2-Restaurant744
tRp2319
ag9
(V1328 18th st.
NNtRp2320
ag19
ag2
(Vhttp://www.okkam.org/oaie/restaurant2-Address441
tRp2321
ag54
ag9
(V458 6th ave. at 11th st.
NNtRp2322
ag2
(Vhttp://www.okkam.org/oaie/restaurant2-Category70
tRp2323
ag2
(Vhttp://www.okkam.org/oaie/restaurant2-Restaurant697
tRp2324
ag2
(Vhttp://www.okkam.org/oaie/restaurant2-Address697
tRp2325
ag1940
ag9
(V3675 satellite blvd.
NNtRp2326
ag2
(Vhttp://www.okkam.org/oaie/restaurant2-Restaurant546
tRp2327
ag2
(Vhttp://www.okkam.org/oaie/restaurant2-Category680
tRp2328
ag2
(Vhttp://www.okkam.org/oaie/restaurant2-restaurant243
tRp2329
ag2
(Vhttp://www.okkam.org/oaie/restaurant2-Restaurant418
tRp2330
ag2
(Vhttp://www.okkam.org/oaie/restaurant2-Address418
tRp2331
ag9
(V2345 cheshire bridge rd.
NNtRp2332
ag28
ag2
(Vhttp://www.okkam.org/oaie/restaurant2-Address345
tRp2333
ag54
ag9
(V7 w. 20th st.
NNtRp2334
ag2
(Vhttp://www.okkam.org/oaie/restaurant2-Address60
tRp2335
ag2
(Vhttp://www.okkam.org/oaie/restaurant2-Address457
tRp2336
ag19
ag9
(V155 steuart st.
NNtRp2337
ag54
ag9
(V937 broadway at 22nd st.
NNtRp2338
ag2
(Vhttp://www.okkam.org/oaie/restaurant2-Category742
tRp2339
ag2
(Vhttp://www.okkam.org/oaie/restaurant2-Category282
tRp2340
ag2
(Vhttp://www.okkam.org/oaie/restaurant2-Restaurant502
tRp2341
ag9
(V500 post st.
NNtRp2342
ag19
ag2
(Vhttp://www.okkam.org/oaie/restaurant2-Address175
tRp2343
ag9
(V322 e. 14 st.  between 1st and 2nd aves.
NNtRp2344
ag54
ag2
(Vhttp://www.okkam.org/oaie/restaurant2-Category295
tRp2345
ag2
(Vhttp://www.okkam.org/oaie/restaurant2-Address245
tRp2346
ag54
ag9
(V348 e. 62nd st.
NNtRp2347
ag9
(V1023 abbot kinney blvd.
NNtRp2348
ag10
ag2
(Vhttp://www.okkam.org/oaie/restaurant2-Category576
tRp2349
ag2
(Vhttp://www.okkam.org/oaie/restaurant2-Category658
tRp2350
ag2
(Vhttp://www.okkam.org/oaie/restaurant2-Restaurant266
tRp2351
ag2
(Vhttp://www.okkam.org/oaie/restaurant2-Restaurant521
tRp2352
ag54
ag9
(V1288 1st ave. at 69th st.
NNtRp2353
ag2
(Vhttp://www.okkam.org/oaie/restaurant2-Restaurant745
tRp2354
ag28
ag9
(V790 ponce de leon ave.
NNtRp2355
ag2
(Vhttp://www.okkam.org/oaie/restaurant2-Restaurant392
tRp2356
ag28
ag9
(V1879 cheshire bridge rd.
NNtRp2357
ag54
ag9
(V24 e. 81st st.
NNtRp2358
ag2
(Vhttp://www.okkam.org/oaie/restaurant2-Category471
tRp2359
ag54
ag9
(V60 e. 54th st.
NNtRp2360
ag9
(V1030 3rd ave. at 61st st.
NNtRp2361
ag54
ag2
(Vhttp://www.okkam.org/oaie/restaurant2-Address90
tRp2362
ag2
(Vhttp://www.okkam.org/oaie/restaurant2-Restaurant510
tRp2363
ag9
(V322 w. 46th st.
NNtRp2364
ag54
ag9
(V134 n. la cienega
NNtRp2365
ag204
ag2
(Vhttp://www.okkam.org/oaie/restaurant2-Restaurant433
tRp2366
ag2
(Vhttp://www.okkam.org/oaie/restaurant2-Restaurant378
tRp2367
ag2
(Vhttp://www.okkam.org/oaie/restaurant2-Category662
tRp2368
ag2
(Vhttp://www.okkam.org/oaie/restaurant2-Restaurant501
tRp2369
ag2
(Vhttp://www.okkam.org/oaie/restaurant2-Address667
tRp2370
ag2
(Vhttp://www.okkam.org/oaie/restaurant2-Category225
tRp2371
ag2
(Vhttp://www.okkam.org/oaie/restaurant2-Address620
tRp2372
ag9
(V117 second ave.
NNtRp2373
ag216
ag2
(Vhttp://www.okkam.org/oaie/restaurant2-Address625
tRp2374
ag2
(Vhttp://www.okkam.org/oaie/restaurant2-Category429
tRp2375
ag2
(Vhttp://www.okkam.org/oaie/restaurant2-Address6
tRp2376
ag54
ag9
(V386 3rd ave.  between 27th and 28th sts.
NNtRp2377
ag9
(V3rd st.
NNtRp2378
ag204
ag2
(Vhttp://www.okkam.org/oaie/restaurant2-Address179
tRp2379
ag54
ag9
(V1 united nations plaza at 44th st.
NNtRp2380
ag2
(Vhttp://www.okkam.org/oaie/restaurant2-Category240
tRp2381
ag2
(Vhttp://www.okkam.org/oaie/restaurant2-restaurant227
tRp2382
ag9
(V470 green st.
NNtRp2383
ag19
ag2
(Vhttp://www.okkam.org/oaie/restaurant2-Address332
tRp2384
ag2
(Vhttp://www.okkam.org/oaie/restaurant2-Category567
tRp2385
ag2
(Vhttp://www.okkam.org/oaie/restaurant2-Address280
tRp2386
ag9
(V432 lafayette st.  near astor pl.
NNtRp2387
ag54
ag9
(V320 hayes st.
NNtRp2388
ag19
ag2
(Vhttp://www.okkam.org/oaie/restaurant2-Address238
tRp2389
ag9
(V29 e. 65th st.
NNtRp2390
ag54
ag2
(Vhttp://www.okkam.org/oaie/restaurant2-Restaurant635
tRp2391
ag2
(Vhttp://www.okkam.org/oaie/restaurant2-Category655
tRp2392
ag2
(Vhttp://www.okkam.org/oaie/restaurant2-Category606
tRp2393
ag54
ag9
(V310 w. 4th st.  between w. 12th and bank sts.
NNtRp2394
ag54
ag9
(V52 236 w. 52nd st.
NNtRp2395
ag2
(Vhttp://www.okkam.org/oaie/restaurant2-Address479
tRp2396
ag9
(V45 mercer st.  between broome and grand sts.
NNtRp2397
ag54
ag2
(Vhttp://www.okkam.org/oaie/restaurant2-Category249
tRp2398
ag216
ag9
(V44 w. 56th st.
NNtRp2399
ag2
(Vhttp://www.okkam.org/oaie/restaurant2-Category435
tRp2400
ag2
(Vhttp://www.okkam.org/oaie/restaurant2-Category94
tRp2401
ag2
(Vhttp://www.okkam.org/oaie/restaurant2-Address247
tRp2402
ag2
(Vhttp://www.okkam.org/oaie/restaurant2-Category685
tRp2403
ag2
(Vhttp://www.okkam.org/oaie/restaurant2-Category452
tRp2404
ag216
ag9
(V86 w. third st.
NNtRp2405
ag9
(V2 new montgomery st.  at market st.
NNtRp2406
ag19
ag45
ag9
(V19 old fulton st.
NNtRp2407
ag2
(Vhttp://www.okkam.org/oaie/restaurant2-Category731
tRp2408
ag2
(Vhttp://www.okkam.org/oaie/restaurant2-Address260
tRp2409
ag9
(V151 w. 54th st.  in the rihga royal hotel
NNtRp2410
ag54
ag2
(Vhttp://www.okkam.org/oaie/restaurant2-Restaurant515
tRp2411
ag9
(V500 van ness ave.
NNtRp2412
ag19
ag2
(Vhttp://www.okkam.org/oaie/restaurant2-Restaurant525
tRp2413
ag2
(Vhttp://www.okkam.org/oaie/restaurant2-Address576
tRp2414
ag9
(V13329 washington blvd.
NNtRp2415
ag9
(Vmarina del rey
NNtRp2416
ag2
(Vhttp://www.okkam.org/oaie/restaurant2-Category76
tRp2417
ag9
(V103 1st ave.  between 6th and 7th sts.
NNtRp2418
ag54
ag2
(Vhttp://www.okkam.org/oaie/restaurant2-Category439
tRp2419
ag2
(Vhttp://www.okkam.org/oaie/restaurant2-Category656
tRp2420
ag9
(V1325 5th ave. at 111th st.
NNtRp2421
ag54
ag2
(Vhttp://www.okkam.org/oaie/restaurant2-Category433
tRp2422
ag2
(Vhttp://www.okkam.org/oaie/restaurant2-Address118
tRp2423
ag2
(Vhttp://www.okkam.org/oaie/restaurant2-Category635
tRp2424
ag2
(Vhttp://www.okkam.org/oaie/restaurant2-Category1
tRp2425
ag2
(Vhttp://www.okkam.org/oaie/restaurant2-Category188
tRp2426
ag2
(Vhttp://www.okkam.org/oaie/restaurant2-Address84
tRp2427
ag28
ag9
(V1397 n. highland ave.
NNtRp2428
ag2
(Vhttp://www.okkam.org/oaie/restaurant2-Category400
tRp2429
ag2
(Vhttp://www.okkam.org/oaie/restaurant2-Address315
tRp2430
ag54
ag9
(V25 w. 40th st.  between 5th and 6th aves.
NNtRp2431
ag19
ag9
(V101 spear st.
NNtRp2432
ag2
(Vhttp://www.okkam.org/oaie/restaurant2-Address43
tRp2433
ag216
ag9
(V2 e. 55th st.
NNtRp2434
ag2
(Vhttp://www.okkam.org/oaie/restaurant2-Restaurant77
tRp2435
ag2
(Vhttp://www.okkam.org/oaie/restaurant2-Address310
tRp2436
ag2
(Vhttp://www.okkam.org/oaie/restaurant2-Address250
tRp2437
ag9
(V119 macdougal st.  between 3rd and bleecker sts.
NNtRp2438
ag54
ag2
(Vhttp://www.okkam.org/oaie/restaurant2-Address512
tRp2439
ag2
(Vhttp://www.okkam.org/oaie/restaurant2-Address116
tRp2440
ag2
(Vhttp://www.okkam.org/oaie/restaurant2-Category491
tRp2441
ag2
(Vhttp://www.okkam.org/oaie/restaurant2-Category361
tRp2442
ag2
(Vhttp://www.okkam.org/oaie/restaurant2-Category215
tRp2443
ag2
(Vhttp://www.okkam.org/oaie/restaurant2-Address401
tRp2444
ag9
(V45 s. mentor ave.
NNtRp2445
ag2058
ag2
(Vhttp://www.okkam.org/oaie/restaurant2-Address266
tRp2446
ag9
(V2340 broadway at 85th st.
NNtRp2447
ag54
ag2
(Vhttp://www.okkam.org/oaie/restaurant2-Category434
tRp2448
ag9
(V3645 las vegas blvd. s
NNtRp2449
ag120
ag2
(Vhttp://www.okkam.org/oaie/restaurant2-Address88
tRp2450
ag2
(Vhttp://www.okkam.org/oaie/restaurant2-Address166
tRp2451
ag204
ag9
(V430 n. camden dr.
NNtRp2452
ag2
(Vhttp://www.okkam.org/oaie/restaurant2-Address191
tRp2453
ag2
(Vhttp://www.okkam.org/oaie/restaurant2-Address624
tRp2454
ag9
(V4279 roswell rd.
NNtRp2455
ag28
ag2
(Vhttp://www.okkam.org/oaie/restaurant2-Restaurant458
tRp2456
ag2
(Vhttp://www.okkam.org/oaie/restaurant2-Category458
tRp2457
ag2
(Vhttp://www.okkam.org/oaie/restaurant2-Restaurant638
tRp2458
ag216
ag9
(V55 e. 54th st.
NNtRp2459
ag9
(V50 macdougal st.  between houston and prince sts.
NNtRp2460
ag54
ag9
(V340 w. broadway at grand st.
NNtRp2461
ag54
ag9
(V46 greenwich ave.
NNtRp2462
ag54
ag2
(Vhttp://www.okkam.org/oaie/restaurant2-Category719
tRp2463
ag2
(Vhttp://www.okkam.org/oaie/restaurant2-Restaurant718
tRp2464
ag54
ag9
(V104 w. 57th st.  near 6th ave.
NNtRp2465
ag2
(Vhttp://www.okkam.org/oaie/restaurant2-Restaurant284
tRp2466
ag2
(Vhttp://www.okkam.org/oaie/restaurant2-Category697
tRp2467
ag2
(Vhttp://www.okkam.org/oaie/restaurant2-Address463
tRp2468
ag2
(Vhttp://www.okkam.org/oaie/restaurant2-Category422
tRp2469
ag2
(Vhttp://www.okkam.org/oaie/restaurant2-Category283
tRp2470
ag2
(Vhttp://www.okkam.org/oaie/restaurant2-Category164
tRp2471
ag2
(Vhttp://www.okkam.org/oaie/restaurant2-Address582
tRp2472
ag9
(Vmonterey park
NNtRp2473
ag9
(V145 n. atlantic blvd.
NNtRp2474
ag2
(Vhttp://www.okkam.org/oaie/restaurant2-Address525
tRp2475
ag2
(Vhttp://www.okkam.org/oaie/restaurant2-Category545
tRp2476
ag2
(Vhttp://www.okkam.org/oaie/restaurant2-Address233
tRp2477
ag9
(V10428 1/2 national blvd.
NNtRp2478
ag290
ag204
ag9
(V6th st.
NNtRp2479
ag9
(V55 irving pl.
NNtRp2480
ag54
ag2
(Vhttp://www.okkam.org/oaie/restaurant2-Restaurant529
tRp2481
ag2
(Vhttp://www.okkam.org/oaie/restaurant2-Address529
tRp2482
ag19
ag9
(V1220 9th ave.
NNtRp2483
ag2
(Vhttp://www.okkam.org/oaie/restaurant2-Restaurant370
tRp2484
ag2
(Vhttp://www.okkam.org/oaie/restaurant2-Address344
tRp2485
ag216
ag9
(V21 e. 62nd st.
NNtRp2486
ag120
ag9
(V3645 las vegas blvd. s.
NNtRp2487
ag2
(Vhttp://www.okkam.org/oaie/restaurant2-Restaurant593
tRp2488
ag2
(Vhttp://www.okkam.org/oaie/restaurant2-Category660
tRp2489
ag2
(Vhttp://www.okkam.org/oaie/restaurant2-Category543
tRp2490
ag2
(Vhttp://www.okkam.org/oaie/restaurant2-Category718
tRp2491
ag9
(V3595 las vegas blvd. s.
NNtRp2492
ag120
ag2
(Vhttp://www.okkam.org/oaie/restaurant2-Restaurant267
tRp2493
ag9
(V251 e. 53rd st.
NNtRp2494
ag54
ag2
(Vhttp://www.okkam.org/oaie/restaurant2-Address347
tRp2495
ag28
ag9
(V1100 peachtree st.
NNtRp2496
ag2
(Vhttp://www.okkam.org/oaie/restaurant2-Category521
tRp2497
ag2
(Vhttp://www.okkam.org/oaie/restaurant2-Category80
tRp2498
ag2
(Vhttp://www.okkam.org/oaie/restaurant2-Category527
tRp2499
ag2
(Vhttp://www.okkam.org/oaie/restaurant2-Address205
tRp2500
ag54
ag9
(V246 w. 4th st. at charles st.
NNtRp2501
ag2
(Vhttp://www.okkam.org/oaie/restaurant2-Category442
tRp2502
ag2
(Vhttp://www.okkam.org/oaie/restaurant2-Address301
tRp2503
ag9
(V37a union sq. w  between 16th and 17th sts.
NNtRp2504
ag54
ag9
(V125 mulberry st.  between canal and hester sts.
NNtRp2505
ag54
ag2
(Vhttp://www.okkam.org/oaie/restaurant2-Category231
tRp2506
ag2
(Vhttp://www.okkam.org/oaie/restaurant2-Category618
tRp2507
ag2
(Vhttp://www.okkam.org/oaie/restaurant2-Category212
tRp2508
ag9
(V37-03 74th st.
NNtRp2509
ag50
ag2001
ag9
(V30869 thousand oaks blvd.
NNtRp2510
ag1277
ag9
(V23725 w. malibu rd.
NNtRp2511
ag2
(Vhttp://www.okkam.org/oaie/restaurant2-Address402
tRp2512
ag2
(Vhttp://www.okkam.org/oaie/restaurant2-Category45
tRp2513
ag19
ag9
(V1915 fillmore st.
NNtRp2514
ag2
(Vhttp://www.okkam.org/oaie/restaurant2-Address158
tRp2515
ag9
(V252 n. beverly dr.
NNtRp2516
ag204
ag9
(V670 golden gate ave.
NNtRp2517
ag19
ag9
(V35 w. 64th st.
NNtRp2518
ag216
ag2
(Vhttp://www.okkam.org/oaie/restaurant2-Category473
tRp2519
ag2
(Vhttp://www.okkam.org/oaie/restaurant2-Category131
tRp2520
ag2
(Vhttp://www.okkam.org/oaie/restaurant2-Address444
tRp2521
ag2
(Vhttp://www.okkam.org/oaie/restaurant2-Category384
tRp2522
ag2
(Vhttp://www.okkam.org/oaie/restaurant2-Restaurant479
tRp2523
ag2
(Vhttp://www.okkam.org/oaie/restaurant2-Category37
tRp2524
ag2
(Vhttp://www.okkam.org/oaie/restaurant2-Address654
tRp2525
ag216
ag9
(V122 e. 17th st.
NNtRp2526
ag120
ag809
ag2
(Vhttp://www.okkam.org/oaie/restaurant2-Category601
tRp2527
ag2
(Vhttp://www.okkam.org/oaie/restaurant2-Category102
tRp2528
ag2
(Vhttp://www.okkam.org/oaie/restaurant2-Address190
tRp2529
ag54
ag9
(V13 1st ave.  near 1st st.
NNtRp2530
ag2
(Vhttp://www.okkam.org/oaie/restaurant2-Category664
tRp2531
ag2
(Vhttp://www.okkam.org/oaie/restaurant2-Address635
tRp2532
ag2
(Vhttp://www.okkam.org/oaie/restaurant2-Category79
tRp2533
ag2
(Vhttp://www.okkam.org/oaie/restaurant2-Category489
tRp2534
ag2
(Vhttp://www.okkam.org/oaie/restaurant2-Category254
tRp2535
ag2
(Vhttp://www.okkam.org/oaie/restaurant2-Restaurant301
tRp2536
ag2
(Vhttp://www.okkam.org/oaie/restaurant2-Category570
tRp2537
ag2
(Vhttp://www.okkam.org/oaie/restaurant2-Category410
tRp2538
ag2
(Vhttp://www.okkam.org/oaie/restaurant2-Category366
tRp2539
ag54
ag9
(V500 e. 30th st.
NNtRp2540
ag2
(Vhttp://www.okkam.org/oaie/restaurant2-Restaurant596
tRp2541
ag1998
ag120
ag2
(Vhttp://www.okkam.org/oaie/restaurant2-Address490
tRp2542
ag2
(Vhttp://www.okkam.org/oaie/restaurant2-Address85
tRp2543
ag28
ag9
(V2637 peachtree rd. ne
NNtRp2544
ag2
(Vhttp://www.okkam.org/oaie/restaurant2-restaurant268
tRp2545
ag2
(Vhttp://www.okkam.org/oaie/restaurant2-Category214
tRp2546
ag2
(Vhttp://www.okkam.org/oaie/restaurant2-Restaurant251
tRp2547
ag54
ag9
(V439 e. 75th st.
NNtRp2548
ag2
(Vhttp://www.okkam.org/oaie/restaurant2-Category303
tRp2549
ag891
ag9
(V224 s. beverly dr.
NNtRp2550
ag2
(Vhttp://www.okkam.org/oaie/restaurant2-Category86
tRp2551
ag2
(Vhttp://www.okkam.org/oaie/restaurant2-Category444
tRp2552
ag2
(Vhttp://www.okkam.org/oaie/restaurant2-Category365
tRp2553
ag2
(Vhttp://www.okkam.org/oaie/restaurant2-Category175
tRp2554
ag2
(Vhttp://www.okkam.org/oaie/restaurant2-Category593
tRp2555
ag2
(Vhttp://www.okkam.org/oaie/restaurant2-Address370
tRp2556
ag2
(Vhttp://www.okkam.org/oaie/restaurant2-Address535
tRp2557
ag2
(Vhttp://www.okkam.org/oaie/restaurant2-Address10
tRp2558
ag9
(V1972 hillhurst ave.
NNtRp2559
ag1191
ag2
(Vhttp://www.okkam.org/oaie/restaurant2-Category455
tRp2560
ag9
(V432 powell st.
NNtRp2561
ag19
ag2
(Vhttp://www.okkam.org/oaie/restaurant2-Address145
tRp2562
ag2
(Vhttp://www.okkam.org/oaie/restaurant2-Category650
tRp2563
ag2
(Vhttp://www.okkam.org/oaie/restaurant2-Restaurant630
tRp2564
ag45
ag9
(V405 atlantic ave.
NNtRp2565
ag9
(V689 ninth ave.
NNtRp2566
ag216
ag2
(Vhttp://www.okkam.org/oaie/restaurant2-Address746
tRp2567
ag9
(V1510 e. flamingo rd.
NNtRp2568
ag120
ag9
(V346 s. la brea ave.
NNtRp2569
ag204
ag9
(V1415 e. colorado st.
NNtRp2570
ag9
(Vglendale
NNtRp2571
ag2
(Vhttp://www.okkam.org/oaie/restaurant2-Category482
tRp2572
ag2
(Vhttp://www.okkam.org/oaie/restaurant2-Address55
tRp2573
ag19
ag9
(V427 battery st.
NNtRp2574
ag45
ag9
(V61a seventh ave.
NNtRp2575
ag2
(Vhttp://www.okkam.org/oaie/restaurant2-Category69
tRp2576
ag2
(Vhttp://www.okkam.org/oaie/restaurant2-Address706
tRp2577
ag9
(V106 bayard st.
NNtRp2578
ag216
ag2
(Vhttp://www.okkam.org/oaie/restaurant2-Category358
tRp2579
ag2
(Vhttp://www.okkam.org/oaie/restaurant2-Category9
tRp2580
ag9
(V308 w. sahara ave.
NNtRp2581
ag120
ag9
(V56 gold st.
NNtRp2582
ag19
ag19
ag220
ag2
(Vhttp://www.okkam.org/oaie/restaurant2-Category276
tRp2583
ag2
(Vhttp://www.okkam.org/oaie/restaurant2-Address638
tRp2584
ag2
(Vhttp://www.okkam.org/oaie/restaurant2-Address244
tRp2585
ag54
ag9
(V73 w. 71st st.
NNtRp2586
ag9
(V900 7th ave.  between 56th and 57th sts.
NNtRp2587
ag54
ag2
(Vhttp://www.okkam.org/oaie/restaurant2-Address456
tRp2588
ag2
(Vhttp://www.okkam.org/oaie/restaurant2-Category374
tRp2589
ag9
(V3172 peachtree rd. ne
NNtRp2590
ag28
ag9
(V1013 3rd ave.  between 60th and 61st sts.
NNtRp2591
ag54
ag2
(Vhttp://www.okkam.org/oaie/restaurant2-Category218
tRp2592
ag2
(Vhttp://www.okkam.org/oaie/restaurant2-Category394
tRp2593
ag2
(Vhttp://www.okkam.org/oaie/restaurant2-Address539
tRp2594
ag9
(V607 front st.
NNtRp2595
ag19
ag9
(V2424 main st.
NNtRp2596
ag786
ag2
(Vhttp://www.okkam.org/oaie/restaurant2-Category265
tRp2597
ag9
(V6703 melrose ave.
NNtRp2598
ag204
ag2
(Vhttp://www.okkam.org/oaie/restaurant2-Address219
tRp2599
ag2
(Vhttp://www.okkam.org/oaie/restaurant2-Category342
tRp2600
ag2
(Vhttp://www.okkam.org/oaie/restaurant2-Address537
tRp2601
ag54
ag9
(V34 union sq. e at 16th st.
NNtRp2602
ag19
ag9
(V1652 stockton st.
NNtRp2603
ag2
(Vhttp://www.okkam.org/oaie/restaurant2-Address187
tRp2604
ag2
(Vhttp://www.okkam.org/oaie/restaurant2-Category190
tRp2605
ag9
(V700 5th ave. at 55th st.
NNtRp2606
ag54
ag2
(Vhttp://www.okkam.org/oaie/restaurant2-Address580
tRp2607
ag9
(V161 steuart st.
NNtRp2608
ag19
ag54
ag9
(V1191 1st ave.  between 64th and 65th sts.
NNtRp2609
ag2
(Vhttp://www.okkam.org/oaie/restaurant2-Category720
tRp2610
ag2
(Vhttp://www.okkam.org/oaie/restaurant2-Address157
tRp2611
ag2
(Vhttp://www.okkam.org/oaie/restaurant2-Address101
tRp2612
ag2
(Vhttp://www.okkam.org/oaie/restaurant2-Category61
tRp2613
ag2
(Vhttp://www.okkam.org/oaie/restaurant2-Address729
tRp2614
ag2
(Vhttp://www.okkam.org/oaie/restaurant2-Category744
tRp2615
ag2
(Vhttp://www.okkam.org/oaie/restaurant2-Category323
tRp2616
ag2
(Vhttp://www.okkam.org/oaie/restaurant2-Address423
tRp2617
ag19
ag9
(V2209 polk st.
NNtRp2618
ag2
(Vhttp://www.okkam.org/oaie/restaurant2-Category690
tRp2619
ag28
ag9
(V181 peachtree st.
NNtRp2620
ag28
ag9
(V595 piedmont ave.
NNtRp2621
ag54
ag9
(V1900 broadway  between 63rd and 64th sts.
NNtRp2622
ag9
(V1283 ninth ave.
NNtRp2623
ag19
ag2
(Vhttp://www.okkam.org/oaie/restaurant2-Category629
tRp2624
ag2
(Vhttp://www.okkam.org/oaie/restaurant2-Restaurant28
tRp2625
ag2
(Vhttp://www.okkam.org/oaie/restaurant2-Category418
tRp2626
ag19
ag9
(V570 fourth st.
NNtRp2627
ag54
ag9
(V2 e. 61st st.
NNtRp2628
ag2
(Vhttp://www.okkam.org/oaie/restaurant2-Address661
tRp2629
ag9
(V202 e. fremont st.
NNtRp2630
ag120
ag2
(Vhttp://www.okkam.org/oaie/restaurant2-Category416
tRp2631
ag2
(Vhttp://www.okkam.org/oaie/restaurant2-Address691
tRp2632
ag28
ag9
(V1655 mclendon ave.
NNtRp2633
ag54
ag9
(V28 1/2 bowery at bayard st.
NNtRp2634
ag2
(Vhttp://www.okkam.org/oaie/restaurant2-Restaurant246
tRp2635
ag9
(V56 e. andrews dr. nw
NNtRp2636
ag28
ag45
ag9
(V1 water st.
NNtRp2637
ag2
(Vhttp://www.okkam.org/oaie/restaurant2-Category230
tRp2638
ag216
ag9
(V107th fl.
NNtRp2639
ag2
(Vhttp://www.okkam.org/oaie/restaurant2-Address404
tRp2640
ag2
(Vhttp://www.okkam.org/oaie/restaurant2-Category535
tRp2641
ag2
(Vhttp://www.okkam.org/oaie/restaurant2-Category383
tRp2642
ag2
(Vhttp://www.okkam.org/oaie/restaurant2-Category2
tRp2643
ag786
ag9
(V3rd st. promenade
NNtRp2644
ag2
(Vhttp://www.okkam.org/oaie/restaurant2-Category67
tRp2645
ag9
(V17 barrow st.
NNtRp2646
ag216
ag9
(V1600 powell st.
NNtRp2647
ag19
ag2
(Vhttp://www.okkam.org/oaie/restaurant2-Category592
tRp2648
ag2
(Vhttp://www.okkam.org/oaie/restaurant2-Category246
tRp2649
ag9
(V246 mcallister st.
NNtRp2650
ag19
ag54
ag9
(V522 columbus ave.  between 85th and 86th sts.
NNtRp2651
ag28
ag9
(V4330 peachtree rd.
NNtRp2652
ag2
(Vhttp://www.okkam.org/oaie/restaurant2-Address594
tRp2653
ag2058
ag9
(V1505 mission st. s.
NNtRp2654
ag2
(Vhttp://www.okkam.org/oaie/restaurant2-Category463
tRp2655
ag2
(Vhttp://www.okkam.org/oaie/restaurant2-Address108
tRp2656
ag28
ag9
(Vc buford hwy.  northwoods plaza  doraville
NNtRp2657
ag2
(Vhttp://www.okkam.org/oaie/restaurant2-Category320
tRp2658
ag2
(Vhttp://www.okkam.org/oaie/restaurant2-Category302
tRp2659
ag9
(V57 e. 57th st.
NNtRp2660
ag54
ag2
(Vhttp://www.okkam.org/oaie/restaurant2-Address699
tRp2661
ag2
(Vhttp://www.okkam.org/oaie/restaurant2-Category427
tRp2662
ag2
(Vhttp://www.okkam.org/oaie/restaurant2-Category498
tRp2663
ag9
(Vcentury city
NNtRp2664
ag9
(V10506 little santa monica blvd.
NNtRp2665
ag2
(Vhttp://www.okkam.org/oaie/restaurant2-Category617
tRp2666
ag2
(Vhttp://www.okkam.org/oaie/restaurant2-Address188
tRp2667
ag54
ag9
(V228 8th ave.  between 21st and 22nd sts.
NNtRp2668
ag204
ag9
(V923 e. third st.
NNtRp2669
ag2
(Vhttp://www.okkam.org/oaie/restaurant2-Category666
tRp2670
ag2
(Vhttp://www.okkam.org/oaie/restaurant2-Category392
tRp2671
ag9
(V80 montague st.
NNtRp2672
ag50
ag2
(Vhttp://www.okkam.org/oaie/restaurant2-Address510
tRp2673
ag9
(V148 w. 51st st.
NNtRp2674
ag54
ag2
(Vhttp://www.okkam.org/oaie/restaurant2-Category454
tRp2675
ag54
ag9
(V18 e. 54th st.
NNtRp2676
ag2
(Vhttp://www.okkam.org/oaie/restaurant2-Category735
tRp2677
ag2
(Vhttp://www.okkam.org/oaie/restaurant2-Category329
tRp2678
ag2
(Vhttp://www.okkam.org/oaie/restaurant2-Category352
tRp2679
ag2
(Vhttp://www.okkam.org/oaie/restaurant2-Address21
tRp2680
ag2
(Vhttp://www.okkam.org/oaie/restaurant2-Category550
tRp2681
ag9
(V600 stockton st.
NNtRp2682
ag19
ag2
(Vhttp://www.okkam.org/oaie/restaurant2-Address230
tRp2683
ag204
ag9
(V679 n. spring st.
NNtRp2684
ag2
(Vhttp://www.okkam.org/oaie/restaurant2-Category209
tRp2685
ag2
(Vhttp://www.okkam.org/oaie/restaurant2-Address745
tRp2686
ag2
(Vhttp://www.okkam.org/oaie/restaurant2-Category387
tRp2687
ag2
(Vhttp://www.okkam.org/oaie/restaurant2-Category726
tRp2688
ag216
ag9
(V155 e. 55th st.
NNtRp2689
ag2
(Vhttp://www.okkam.org/oaie/restaurant2-Category684
tRp2690
ag9
(V1495 chattahoochee ave. nw
NNtRp2691
ag28
ag9
(V430 lafayette st.  between 4th st. and astor pl.
NNtRp2692
ag54
ag9
(V625 polk st.
NNtRp2693
ag19
ag2
(Vhttp://www.okkam.org/oaie/restaurant2-Category638
tRp2694
ag19
ag9
(V1 market st.
NNtRp2695
ag2
(Vhttp://www.okkam.org/oaie/restaurant2-Address12
tRp2696
ag28
ag9
(V3060 peachtree rd.
NNtRp2697
ag2
(Vhttp://www.okkam.org/oaie/restaurant2-Category676
tRp2698
ag9
(V9255 sunset blvd.
NNtRp2699
ag204
ag2
(Vhttp://www.okkam.org/oaie/restaurant2-Category15
tRp2700
ag19
ag9
(V2298 market st.
NNtRp2701
ag2
(Vhttp://www.okkam.org/oaie/restaurant2-Category13
tRp2702
ag9
(V430 broadway
NNtRp2703
ag19
ag9
(V1702 post st.
NNtRp2704
ag19
ag2
(Vhttp://www.okkam.org/oaie/restaurant2-Address711
tRp2705
ag2
(Vhttp://www.okkam.org/oaie/restaurant2-Category266
tRp2706
ag2137
ag28
ag2
(Vhttp://www.okkam.org/oaie/restaurant2-Category101
tRp2707
ag2
(Vhttp://www.okkam.org/oaie/restaurant2-Address595
tRp2708
ag9
(V11288 ventura blvd.
NNtRp2709
ag373
ag2
(Vhttp://www.okkam.org/oaie/restaurant2-Category564
tRp2710
ag2
(Vhttp://www.okkam.org/oaie/restaurant2-Address112
tRp2711
ag2
(Vhttp://www.okkam.org/oaie/restaurant2-Category315
tRp2712
ag2
(Vhttp://www.okkam.org/oaie/restaurant2-Category375
tRp2713
ag2
(Vhttp://www.okkam.org/oaie/restaurant2-Category715
tRp2714
ag9
(V1015 battery st.
NNtRp2715
ag19
ag2
(Vhttp://www.okkam.org/oaie/restaurant2-Category483
tRp2716
ag54
ag9
(V1063 1st ave. at 58th st.
NNtRp2717
ag2
(Vhttp://www.okkam.org/oaie/restaurant2-Address202
tRp2718
ag2
(Vhttp://www.okkam.org/oaie/restaurant2-Address29
tRp2719
ag2
(Vhttp://www.okkam.org/oaie/restaurant2-Restaurant415
tRp2720
ag2
(Vhttp://www.okkam.org/oaie/restaurant2-Category415
tRp2721
ag2
(Vhttp://www.okkam.org/oaie/restaurant2-Address646
tRp2722
ag2
(Vhttp://www.okkam.org/oaie/restaurant2-Restaurant295
tRp2723
ag54
ag9
(V87 1st ave.  between 5th and 6th sts.
NNtRp2724
ag2
(Vhttp://www.okkam.org/oaie/restaurant2-Address151
tRp2725
ag786
ag9
(V1401 ocean ave.
NNtRp2726
ag9
(V6 w. 24th st.
NNtRp2727
ag54
ag2
(Vhttp://www.okkam.org/oaie/restaurant2-Category602
tRp2728
ag2
(Vhttp://www.okkam.org/oaie/restaurant2-Category492
tRp2729
ag2
(Vhttp://www.okkam.org/oaie/restaurant2-Category127
tRp2730
ag216
ag9
(V39 w. 55th st.
NNtRp2731
ag2
(Vhttp://www.okkam.org/oaie/restaurant2-Category674
tRp2732
ag2
(Vhttp://www.okkam.org/oaie/restaurant2-Category370
tRp2733
ag2
(Vhttp://www.okkam.org/oaie/restaurant2-Address165
tRp2734
ag2
(Vhttp://www.okkam.org/oaie/restaurant2-Category52
tRp2735
ag28
ag9
(V2905 buford hwy.
NNtRp2736
ag2
(Vhttp://www.okkam.org/oaie/restaurant2-Restaurant549
tRp2737
ag9
(V1020 n. san vicente blvd.
NNtRp2738
ag469
ag9
(V111 s. san pedro st.
NNtRp2739
ag204
ag2
(Vhttp://www.okkam.org/oaie/restaurant2-Category640
tRp2740
ag9
(V219 w. broadway  between franklin and white sts.
NNtRp2741
ag54
ag2
(Vhttp://www.okkam.org/oaie/restaurant2-Category716
tRp2742
ag9
(V23 e. 22nd st.
NNtRp2743
ag54
ag2
(Vhttp://www.okkam.org/oaie/restaurant2-Category322
tRp2744
ag1314
ag9
(V642 broadway
NNtRp2745
ag9
(V1811 piedmont ave.  near cheshire bridge rd.
NNtRp2746
ag28
ag9
(V13 w. 54th st.
NNtRp2747
ag216
ag2
(Vhttp://www.okkam.org/oaie/restaurant2-Category426
tRp2748
ag28
ag9
(V1031 ponce de leon ave.
NNtRp2749
ag2
(Vhttp://www.okkam.org/oaie/restaurant2-Category459
tRp2750
ag9
(V129 n. la cienega blvd.
NNtRp2751
ag891
ag2064
ag120
ag54
ag9
(V2150 broadway  between 75th and 76th sts.
NNtRp2752
ag2
(Vhttp://www.okkam.org/oaie/restaurant2-Category317
tRp2753
ag2
(Vhttp://www.okkam.org/oaie/restaurant2-Restaurant206
tRp2754
ag28
ag9
(Vunderground underground mall  underground atlanta
NNtRp2755
ag9
(V515 s. olive st.
NNtRp2756
ag204
ag2
(Vhttp://www.okkam.org/oaie/restaurant2-Category752
tRp2757
ag9
(V1500 church st.
NNtRp2758
ag19
ag2
(Vhttp://www.okkam.org/oaie/restaurant2-Category77
tRp2759
ag2
(Vhttp://www.okkam.org/oaie/restaurant2-Category711
tRp2760
ag9
(V854 seventh ave.
NNtRp2761
ag216
ag204
ag9
(V439 n. beverly drive
NNtRp2762
ag119
ag120
ag2
(Vhttp://www.okkam.org/oaie/restaurant2-Category511
tRp2763
ag2
(Vhttp://www.okkam.org/oaie/restaurant2-Category313
tRp2764
ag2
(Vhttp://www.okkam.org/oaie/restaurant2-Category28
tRp2765
ag19
ag9
(V288 noe st.
NNtRp2766
ag891
ag9
(V9882 little santa monica blvd.
NNtRp2767
ag28
ag9
(V50 hurt plaza
NNtRp2768
ag2
(Vhttp://www.okkam.org/oaie/restaurant2-Category314
tRp2769
ag2
(Vhttp://www.okkam.org/oaie/restaurant2-Address73
tRp2770
ag2
(Vhttp://www.okkam.org/oaie/restaurant2-Category699
tRp2771
ag19
ag9
(V1944 union st.
NNtRp2772
ag2
(Vhttp://www.okkam.org/oaie/restaurant2-Address591
tRp2773
ag216
ag9
(V33 w. 55th st.
NNtRp2774
ag2
(Vhttp://www.okkam.org/oaie/restaurant2-Address488
tRp2775
ag2
(Vhttp://www.okkam.org/oaie/restaurant2-Address557
tRp2776
ag290
ag9
(V8424 beverly blvd.
NNtRp2777
ag9
(V423 amsterdam ave.  between 80th and 81st sts.
NNtRp2778
ag54
ag2
(Vhttp://www.okkam.org/oaie/restaurant2-Category517
tRp2779
ag28
ag9
(V774 ponce de leon ave. ne
NNtRp2780
ag2
(Vhttp://www.okkam.org/oaie/restaurant2-Category5
tRp2781
ag2
(Vhttp://www.okkam.org/oaie/restaurant2-Category277
tRp2782
ag54
ag9
(V57 w. 48th st.
NNtRp2783
ag9
(V1611 post st.
NNtRp2784
ag19
ag9
(V81 macdougal st.  between houston and bleeker sts.
NNtRp2785
ag54
ag19
ag9
(V615 sacramento st.
NNtRp2786
ag204
ag9
(V11705 national blvd.
NNtRp2787
ag54
ag9
(V228 thompson st.  between w. 3rd and bleecker sts.
NNtRp2788
ag9
(V1393a 2nd ave.  between 72nd and 73rd sts.
NNtRp2789
ag54
ag290
ag2301
ag9
(V551 5th ave. at 45th st.
NNtRp2790
ag54
ag290
ag9
(V704 s. alvarado st.
NNtRp2791
ag28
ag158
ag627
ag9
(V1248 clairmont rd.
NNtRp2792
ag9
(V30 rockefeller plaza
NNtRp2793
ag216
ag204
ag9
(V2930 beverly glen circle
NNtRp2794
ag2
(Vhttp://www.okkam.org/oaie/restaurant2-Address298
tRp2795
ag28
ag9
(V1144 crescent ave.
NNtRp2796
ag2
(Vhttp://www.okkam.org/oaie/restaurant2-Category75
tRp2797
ag54
ag9
(V467 columbus ave.  between 82nd and 83rd sts.
NNtRp2798
ag2
(Vhttp://www.okkam.org/oaie/restaurant2-Category481
tRp2799
ag9
(V428 amsterdam ave.  between 80th and 81st sts.
NNtRp2800
ag54
ag216
ag9
(V1460 first ave.
NNtRp2801
ag2
(Vhttp://www.okkam.org/oaie/restaurant2-Address251
tRp2802
ag2
(Vhttp://www.okkam.org/oaie/restaurant2-Address606
tRp2803
ag54
ag9
(V402 w. 43rd st.  off 9th ave.
NNtRp2804
ag9
(V2 w. 19th st.
NNtRp2805
ag54
ag9
(V106 e. 57th st.
NNtRp2806
ag54
ag19
ag9
(V2315 clement st.
NNtRp2807
ag2
(Vhttp://www.okkam.org/oaie/restaurant2-Category457
tRp2808
ag9
(V3 e. 52nd st.
NNtRp2809
ag216
ag2
(Vhttp://www.okkam.org/oaie/restaurant2-Address674
tRp2810
ag2
(Vhttp://www.okkam.org/oaie/restaurant2-Category633
tRp2811
ag2184
ag9
(V17040 ventura blvd.
NNtRp2812
ag9
(V142 w. 44th st.
NNtRp2813
ag54
ag2
(Vhttp://www.okkam.org/oaie/restaurant2-Category695
tRp2814
ag2
(Vhttp://www.okkam.org/oaie/restaurant2-Category85
tRp2815
ag9
(V617 s. olive st.
NNtRp2816
ag204
ag2
(Vhttp://www.okkam.org/oaie/restaurant2-Category154
tRp2817
ag2
(Vhttp://www.okkam.org/oaie/restaurant2-Category462
tRp2818
ag2
(Vhttp://www.okkam.org/oaie/restaurant2-Address420
tRp2819
ag2
(Vhttp://www.okkam.org/oaie/restaurant2-Category544
tRp2820
ag2
(Vhttp://www.okkam.org/oaie/restaurant2-Category114
tRp2821
ag2
(Vhttp://www.okkam.org/oaie/restaurant2-Address451
tRp2822
ag9
(V8795 sunset blvd.
NNtRp2823
ag469
ag2
(Vhttp://www.okkam.org/oaie/restaurant2-Category105
tRp2824
ag2
(Vhttp://www.okkam.org/oaie/restaurant2-Category299
tRp2825
ag2
(Vhttp://www.okkam.org/oaie/restaurant2-Category44
tRp2826
ag2
(Vhttp://www.okkam.org/oaie/restaurant2-Category138
tRp2827
ag2
(Vhttp://www.okkam.org/oaie/restaurant2-Address714
tRp2828
ag9
(V3330 piedmont rd.
NNtRp2829
ag28
ag2
(Vhttp://www.okkam.org/oaie/restaurant2-Address130
tRp2830
ag2
(Vhttp://www.okkam.org/oaie/restaurant2-Category698
tRp2831
ag120
ag9
(V2411 w. sahara ave.
NNtRp2832
ag2
(Vhttp://www.okkam.org/oaie/restaurant2-Category100
tRp2833
ag2
(Vhttp://www.okkam.org/oaie/restaurant2-Category395
tRp2834
ag9
(V168 w. 18th st.
NNtRp2835
ag54
ag28
ag9
(V555 peachtree st.  at linden ave.
NNtRp2836
ag2
(Vhttp://www.okkam.org/oaie/restaurant2-Category369
tRp2837
ag9
(V1305 highland ave.
NNtRp2838
ag9
(Vmanhattan beach
NNtRp2839
ag469
ag9
(V903 n. la cienega blvd.
NNtRp2840
ag2
(Vhttp://www.okkam.org/oaie/restaurant2-Category298
tRp2841
ag2
(Vhttp://www.okkam.org/oaie/restaurant2-Category630
tRp2842
ag2
(Vhttp://www.okkam.org/oaie/restaurant2-Category129
tRp2843
ag54
ag9
(V240 e. 58th st.
NNtRp2844
ag786
ag2644
ag2
(Vhttp://www.okkam.org/oaie/restaurant2-Address564
tRp2845
ag2
(Vhttp://www.okkam.org/oaie/restaurant2-Category46
tRp2846
ag9
(V375 greenwich st.  near franklin st.
NNtRp2847
ag54
ag2
(Vhttp://www.okkam.org/oaie/restaurant2-Restaurant256
tRp2848
ag2
(Vhttp://www.okkam.org/oaie/restaurant2-Category27
tRp2849
ag2
(Vhttp://www.okkam.org/oaie/restaurant2-Category503
tRp2850
ag2
(Vhttp://www.okkam.org/oaie/restaurant2-Address163
tRp2851
ag54
ag9
(V211 w. broadway at franklin st.
NNtRp2852
ag2
(Vhttp://www.okkam.org/oaie/restaurant2-Category449
tRp2853
ag2
(Vhttp://www.okkam.org/oaie/restaurant2-Category453
tRp2854
ag54
ag9
(V342 e. 11th st.  near 1st ave.
NNtRp2855
ag2
(Vhttp://www.okkam.org/oaie/restaurant2-Category595
tRp2856
ag9
(V301 n. beverly dr.
NNtRp2857
ag204
ag28
ag9
(Vholiday inn/crowne plaza at ravinia  dunwoody
NNtRp2858
ag28
ag9
(V70 w. paces ferry rd.
NNtRp2859
ag2
(Vhttp://www.okkam.org/oaie/restaurant2-Address275
tRp2860
ag9
(V298 gough st.
NNtRp2861
ag19
ag2
(Vhttp://www.okkam.org/oaie/restaurant2-Category25
tRp2862
ag2
(Vhttp://www.okkam.org/oaie/restaurant2-Category654
tRp2863
ag2
(Vhttp://www.okkam.org/oaie/restaurant2-Category16
tRp2864
ag9
(V643 park ave. at 66th st.
NNtRp2865
ag54
ag2
(Vhttp://www.okkam.org/oaie/restaurant2-Category24
tRp2866
ag9
(V208 e. 58th st.  between 2nd and 3rd aves.
NNtRp2867
ag54
ag216
ag9
(V308 e. sixth st.
NNtRp2868
ag9
(V21 w. 52nd st.
NNtRp2869
ag216
ag54
ag9
(V405 e. 52nd st.
NNtRp2870
ag19
ag9
(V1870 fillmore st.
NNtRp2871
ag2
(Vhttp://www.okkam.org/oaie/restaurant2-Category510
tRp2872
ag2
(Vhttp://www.okkam.org/oaie/restaurant2-Category414
tRp2873
ag9
(V32 spring st.
NNtRp2874
ag216
ag28
ag9
(V600 ponce de leon ave.
NNtRp2875
ag2
(Vhttp://www.okkam.org/oaie/restaurant2-Address494
tRp2876
ag9
(V325 e. 14th st.  between 1st and 2nd aves.
NNtRp2877
ag54
ag2
(Vhttp://www.okkam.org/oaie/restaurant2-Category549
tRp2878
ag2
(Vhttp://www.okkam.org/oaie/restaurant2-Category580
tRp2879
ag9
(V3700 w. flamingo
NNtRp2880
ag120
ag2
(Vhttp://www.okkam.org/oaie/restaurant2-Category56
tRp2881
ag2
(Vhttp://www.okkam.org/oaie/restaurant2-Address51
tRp2882
ag1545
ag9
(V2027 sawtelle blvd.
NNtRp2883
ag2
(Vhttp://www.okkam.org/oaie/restaurant2-Address743
tRp2884
ag9
(V68 e. 56th st.
NNtRp2885
ag54
ag19
ag9
(V4
NNtRp2886
ag28
ag9
(V5975 roswell rd.
NNtRp2887
ag469
ag9
(V8358 sunset blvd.
NNtRp2888
ag2
(Vhttp://www.okkam.org/oaie/restaurant2-Restaurant699
tRp2889
ag9
(V225 varick st. at clarkston st.
NNtRp2890
ag54
ag9
(V502 santa monica blvd
NNtRp2891
ag786
ag19
ag9
(V3127 fillmore st.
NNtRp2892
ag54
ag9
(V157 chrystie st. at delancey st.
NNtRp2893
ag9
(V2450 broadway
NNtRp2894
ag216
ag2
(Vhttp://www.okkam.org/oaie/restaurant2-Category525
tRp2895
ag9
(V133 mulberry st.  between hester and grand sts.
NNtRp2896
ag54
ag54
ag9
(V138 lafayette st.  between canal and howard sts.
NNtRp2897
ag2
(Vhttp://www.okkam.org/oaie/restaurant2-Category710
tRp2898
ag19
ag9
(V240 columbus ave.
NNtRp2899
ag54
ag9
(V62 spring st. at lafayette st.
NNtRp2900
ag28
ag9
(V220 sandy springs circle
NNtRp2901
ag9
(V6182 w. flamingo rd.
NNtRp2902
ag120
ag9
(V435 amsterdam ave.
NNtRp2903
ag216
ag2
(Vhttp://www.okkam.org/oaie/restaurant2-Category499
tRp2904
ag9
(V8284 melrose ave.
NNtRp2905
ag204
ag28
ag9
(V764 marietta st. nw
NNtRp2906
ag28
ag1771
ag9
(V1772 market st.
NNtRp2907
ag19
ag9
(V122 e. 27th st.  between lexington and park aves.
NNtRp2908
ag54
ag9
(V840 second ave.
NNtRp2909
ag216
ag2
(Vhttp://www.okkam.org/oaie/restaurant2-Category251
tRp2910
ag28
ag9
(V1529 piedmont ave.
NNtRp2911
ag9
(V2970 cobb pkwy.
NNtRp2912
ag28
ag28
ag9
(V6050 peachtree pkwy.  norcross
NNtRp2913
ag9
(V4th st.
NNtRp2914
ag204
ag9
(V48 w. 65th st.
NNtRp2915
ag216
ag216
ag9
(V243 e. 58th st.
NNtRp2916
ag28
ag2792
ag9
(V3209 maple dr.
NNtRp2917
ag28
ag2
(Vhttp://www.okkam.org/oaie/restaurant2-Category451
tRp2918
ag2
(Vhttp://www.okkam.org/oaie/restaurant2-Category122
tRp2919
ag19
ag9
(V2332 clement st.
NNtRp2920
ag9
(V522 jones st.
NNtRp2921
ag19
ag9
(V8720 sunset blvd.
NNtRp2922
ag204
ag2
(Vhttp://www.okkam.org/oaie/restaurant2-Category234
tRp2923
ag9
(V54 irving pl. at 17th st.
NNtRp2924
ag54
ag54
ag9
(V685 amsterdam ave. at 93rd st.
NNtRp2925
ag54
ag9
(V181 w. 10th st.
NNtRp2926
ag216
ag9
(V2 harrison st.
NNtRp2927
ag54
ag9
(V160 mercer st.  between houston and prince sts.
NNtRp2928
ag19
ag9
(V453 bush st.
NNtRp2929
ag290
ag9
(V2575 beverly blvd.
NNtRp2930
ag9
(V1265 battery st.
NNtRp2931
ag19
ag2
(Vhttp://www.okkam.org/oaie/restaurant2-Category743
tRp2932
ag54
ag9
(V60 w. 53rd st.
NNtRp2933
ag28
ag2620
ag9
(V9777 little santa monica blvd.
NNtRp2934
ag891
ag686
ag120
ag54
ag9
(V446 columbus ave.  between 81st and 82nd sts.
NNtRp2935
ag204
ag9
(V9500 wilshire blvd.
NNtRp2936
ag9
(V157 duane st.  between w. broadway and hudson st.
NNtRp2937
ag54
ag9
(V7507 melrose ave.
NNtRp2938
ag290
ag2
(Vhttp://www.okkam.org/oaie/restaurant2-Category672
tRp2939
ag216
ag9
(V2090 broadway
NNtRp2940
ag2
(Vhttp://www.okkam.org/oaie/restaurant2-Address604
tRp2941
ag9
(V93 ave. a
NNtRp2942
ag216
ag204
ag9
(V730 n. la cienega blvd.
NNtRp2943
ag216
ag9
(V2nd fl.
NNtRp2944
ag9
(V656 n. virgil ave.
NNtRp2945
ag204
ag9
(V2030 union st.
NNtRp2946
ag19
ag9
(V10509 w. pico blvd.
NNtRp2947
ag9
(Vrancho park
NNtRp2948
ag19
ag9
(V519 columbus ave.
NNtRp2949
ag9
(V1029 edgewood ave. se
NNtRp2950
ag28
ag9
(V355 convention center dr.
NNtRp2951
ag120
ag2295
ag9
(V14928 ventura blvd.
NNtRp2952
ag9
(V2901 pico blvd.
NNtRp2953
ag786
ag9
(V1322 grant st.
NNtRp2954
ag19
ag2
(Vhttp://www.okkam.org/oaie/restaurant2-Category87
tRp2955
ag9
(V3120 las vegas blvd. s
NNtRp2956
ag120
ag9
(Vmar vista
NNtRp2957
ag9
(V3838 centinela ave.
NNtRp2958
ag120
ag1571
ag54
ag9
(V227 e. 67th st.
NNtRp2959
ag9
(V326 w. 46th st.
NNtRp2960
ag54
ag204
ag9
(V10250 santa monica blvd.
NNtRp2961
ag9
(V8 sixth st.
NNtRp2962
ag19
ag2
(Vhttp://www.okkam.org/oaie/restaurant2-Address46
tRp2963
ag9
(V200 e. 54th st.
NNtRp2964
ag54
ag19
ag9
(V300 de haro st.
NNtRp2965
ag9
(V405 e. 58th st.
NNtRp2966
ag216
ag9
(V100 w. 82nd st.
NNtRp2967
ag54
ag9
(V103 w. paces ferry rd.
NNtRp2968
ag28
ag54
ag9
(V13 w. 46th st.
NNtRp2969
ag204
ag9
(V362 n. camden dr.
NNtRp2970
ag216
ag9
(V424 amsterdam ave.
NNtRp2971
ag54
ag9
(V145 w. 53rd st.
NNtRp2972
ag9
(V200 w. 70th st.
NNtRp2973
ag54
ag216
ag9
(V249 e. 50th st.
NNtRp2974
ag19
ag9
(Vmarket and new montgomery sts.
NNtRp2975
ag9
(V6301 roswell rd.  sandy springs plaza  sandy springs
NNtRp2976
ag28
ag54
ag9
(V145 w. broadway at thomas st.
NNtRp2977
ag19
ag9
(V3226 mission st.
NNtRp2978
ag2
(Vhttp://www.okkam.org/oaie/restaurant2-Category264
tRp2979
ag19
ag9
(V1517 polk st.
NNtRp2980
ag54
ag9
(V54 pearl st. at broad st.
NNtRp2981
ag216
ag9
(V155 w. 58th st.
NNtRp2982
ag9
(V3345 steiner st.
NNtRp2983
ag19
ag786
ag9
(V3115 pico blvd.
NNtRp2984
ag9
(V411 third ave.
NNtRp2985
ag216
ag204
ag2378
ag204
ag9
(V601 s. figueroa st.
NNtRp2986
ag120
ag9
(V128 e. fremont st.
NNtRp2987
ag9
(V8360 melrose ave.
NNtRp2988
ag290
ag9
(V221 powell st.
NNtRp2989
ag19
ag216
ag9
(V331 w. fourth st.
NNtRp2990
ag9
(V4th and howard sts.
NNtRp2991
ag19
ag9
(V126 clement st.
NNtRp2992
ag19
ag54
ag9
(V800 9th ave. at 53rd st.
NNtRp2993
ag9
(V6 e. 32nd st.
NNtRp2994
ag54
ag9
(V3500 peachtree rd.  phipps plaza
NNtRp2995
ag28
ag9
(V247 buckhead ave.  east village sq.
NNtRp2996
ag28
ag9
(V2223 market st.
NNtRp2997
ag19
ag2025
ag9
(V1136 westwood blvd.
NNtRp2998
ag28
ag9
(V3043 buford hwy.
NNtRp2999
ag9
(V76 mott st. at canal st.
NNtRp3000
ag54
ag19
ag9
(V108 south park
NNtRp3001
ag9
(V601 hayes st.
NNtRp3002
ag19
ag120
ag9
(V2245 e. flamingo rd.
NNtRp3003
ag9
(V4 world financial center
NNtRp3004
ag54
ag54
ag9
(V411 park ave. s  between 28th and 29th sts.
NNtRp3005
ag9
(V30 west 22nd st.  between 5th and 6th ave.
NNtRp3006
ag54
ag2
(Vhttp://www.okkam.org/oaie/restaurant2-Category184
tRp3007
ag54
ag9
(V19 w. 49th st.
NNtRp3008
ag216
ag9
(V20 e. 76th st.
NNtRp3009
ag216
ag9
(V953 second ave.
NNtRp3010
ag9
(V219 e. 44th st.  between 2nd and 3rd aves.
NNtRp3011
ag54
ag54
ag9
(V111 e. 22nd st.  between park ave. s and lexington ave.
NNtRp3012
ag19
ag9
(V584 valencia st.
NNtRp3013
ag1609
ag120
ag54
ag9
(V123 w. 52nd st.
NNtRp3014
ag9
(V70 w. 68th st.
NNtRp3015
ag54
ag28
ag9
(V2165 cheshire bridge rd.
NNtRp3016
ag9
(V12 e. 12th st.
NNtRp3017
ag216
ag54
ag9
(V143 mercer st. at prince st.
NNtRp3018
ag54
ag9
(V46 e. 29th st.
NNtRp3019
ag9
(V7 claude ln.
NNtRp3020
ag19
ag2
(Vhttp://www.okkam.org/oaie/restaurant2-Category438
tRp3021
ag9
(Vburbank
NNtRp3022
ag9
(V2635 w. olive ave.
NNtRp3023
ag216
ag9
(V100 e. 63rd st.
NNtRp3024
ag204
ag9
(V1121 s. western ave.
NNtRp3025
ag686
ag120
ag28
ag9
(V3130 piedmont rd. ne
NNtRp3026
ag9
(V90 prince st.  between broadway and mercer st.
NNtRp3027
ag54
ag19
ag9
(V2100 van ness ave.
NNtRp3028
ag204
ag9
(V7371 melrose ave.
NNtRp3029
ag9
(V21 west 17th st.  between 5th and 6th aves.
NNtRp3030
ag54
ag9
(V544 s. grand ave.
NNtRp3031
ag204
ag891
ag9
(V9560 dayton way
NNtRp3032
ag54
ag9
(V321 w. 46th st.
NNtRp3033
ag9
(V45 s. fair oaks ave.
NNtRp3034
ag2058
ag9
(V201 moreno dr.
NNtRp3035
ag204
ag9
(V451 washington st.  near watts st.
NNtRp3036
ag54
ag204
ag9
(V3835 cross creek rd.
NNtRp3037
ag28
ag9
(V1232 w. paces ferry rd.
NNtRp3038
ag9
(Vnorthridge
NNtRp3039
ag9
(V19565 parthenia ave.
NNtRp3040
a.