(lp1
crdflib.term
URIRef
p2
(Vhttp://www.okkam.org/oaie/restaurant1-Restaurant89
tRp3
acrdflib.term
Literal
p4
(Vext 6108 international
NNtRp5
ag2
(Vhttp://www.okkam.org/oaie/restaurant1-Restaurant57
tRp6
ag2
(Vhttp://www.okkam.org/oaie/restaurant1-Address57
tRp7
ag2
(Vhttp://www.okkam.org/oaie/restaurant1-Address14
tRp8
ag4
(V129 n. la cienega blvd.
NNtRp9
ag2
(Vhttp://www.okkam.org/oaie/restaurant1-Restaurant87
tRp10
ag4
(V404/221-6362
NNtRp11
ag2
(Vhttp://www.okkam.org/oaie/restaurant1-Restaurant58
tRp12
ag4
(Vdelicatessen
NNtRp13
ag2
(Vhttp://www.okkam.org/oaie/restaurant1-Restaurant61
tRp14
ag2
(Vhttp://www.okkam.org/oaie/restaurant1-Address61
tRp15
ag2
(Vhttp://www.okkam.org/oaie/restaurant1-Address70
tRp16
ag2
(Vhttp://www.okkam.org/oaie/restaurant1-City70
tRp17
ag2
(Vhttp://www.okkam.org/oaie/restaurant1-City9
tRp18
ag4
(Vlos angeles
NNtRp19
ag2
(Vhttp://www.okkam.org/oaie/restaurant1-Restaurant103
tRp20
ag2
(Vhttp://www.okkam.org/oaie/restaurant1-Address103
tRp21
ag2
(Vhttp://www.okkam.org/oaie/restaurant1-Restaurant84
tRp22
ag2
(Vhttp://www.okkam.org/oaie/restaurant1-Address84
tRp23
ag2
(Vhttp://www.okkam.org/oaie/restaurant1-Restaurant74
tRp24
ag4
(Vabruzzi
NNtRp25
ag2
(Vhttp://www.okkam.org/oaie/restaurant1-Restaurant17
tRp26
ag4
(V213/628-3781
NNtRp27
ag2
(Vhttp://www.okkam.org/oaie/restaurant1-Restaurant25
tRp28
ag4
(Vaureole
NNtRp29
ag2
(Vhttp://www.okkam.org/oaie/restaurant1-Restaurant64
tRp30
ag4
(V212/315-1726
NNtRp31
ag2
(Vhttp://www.okkam.org/oaie/restaurant1-Address88
tRp32
ag4
(V1232 w. paces ferry rd.
NNtRp33
ag2
(Vhttp://www.okkam.org/oaie/restaurant1-Address17
tRp34
ag2
(Vhttp://www.okkam.org/oaie/restaurant1-City17
tRp35
ag2
(Vhttp://www.okkam.org/oaie/restaurant1-Address9
tRp36
ag4
(V9560 dayton way
NNtRp37
ag2
(Vhttp://www.okkam.org/oaie/restaurant1-Restaurant19
tRp38
ag4
(Vrex il ristorante
NNtRp39
ag2
(Vhttp://www.okkam.org/oaie/restaurant1-Restaurant112
tRp40
ag2
(Vhttp://www.okkam.org/oaie/restaurant1-Restaurant110
tRp41
ag4
(Vritz-carlton restaurant and dining room
NNtRp42
ag2
(Vhttp://www.okkam.org/oaie/restaurant1-Address24
tRp43
ag2
(Vhttp://www.okkam.org/oaie/restaurant1-City24
tRp44
ag2
(Vhttp://www.okkam.org/oaie/restaurant1-Restaurant15
tRp45
ag4
(V310/550-8811
NNtRp46
ag2
(Vhttp://www.okkam.org/oaie/restaurant1-City45
tRp47
ag2
(Vhttp://www.okkam.org/oaie/restaurant1-Restaurant68
tRp48
ag2
(Vhttp://www.okkam.org/oaie/restaurant1-Address68
tRp49
ag2
(Vhttp://www.okkam.org/oaie/restaurant1-Restaurant14
tRp50
ag4
(V310/659-9639
NNtRp51
ag2
(Vhttp://www.okkam.org/oaie/restaurant1-Restaurant109
tRp52
ag4
(V415/776-7825
NNtRp53
ag2
(Vhttp://www.okkam.org/oaie/restaurant1-City61
tRp54
ag2
(Vhttp://www.okkam.org/oaie/restaurant1-Restaurant67
tRp55
ag4
(V702/733-8899
NNtRp56
ag2
(Vhttp://www.okkam.org/oaie/restaurant1-Restaurant70
tRp57
ag2
(Vhttp://www.okkam.org/oaie/restaurant1-Restaurant78
tRp58
ag2
(Vhttp://www.okkam.org/oaie/restaurant1-Address78
tRp59
ag2
(Vhttp://www.okkam.org/oaie/restaurant1-Restaurant5
tRp60
ag4
(Vchinois on main
NNtRp61
ag2
(Vhttp://www.okkam.org/oaie/restaurant1-Address60
tRp62
ag2
(Vhttp://www.okkam.org/oaie/restaurant1-City60
tRp63
ag2
(Vhttp://www.okkam.org/oaie/restaurant1-Address19
tRp64
ag4
(V617 s. olive st.
NNtRp65
ag2
(Vhttp://www.okkam.org/oaie/restaurant1-Restaurant65
tRp66
ag4
(V212/243-4020
NNtRp67
ag2
(Vhttp://www.okkam.org/oaie/restaurant1-City66
tRp68
ag2
(Vhttp://www.okkam.org/oaie/restaurant1-City88
tRp69
ag2
(Vhttp://www.okkam.org/oaie/restaurant1-Restaurant26
tRp70
ag4
(V212/496-6031
NNtRp71
ag2
(Vhttp://www.okkam.org/oaie/restaurant1-Restaurant22
tRp72
ag2
(Vhttp://www.okkam.org/oaie/restaurant1-Address51
tRp73
ag4
(V100 e. 63rd st.
NNtRp74
ag2
(Vhttp://www.okkam.org/oaie/restaurant1-Restaurant2
tRp75
ag2
(Vhttp://www.okkam.org/oaie/restaurant1-Restaurant54
tRp76
ag4
(V212/260-6660
NNtRp77
ag4
(Vsouthwestern
NNtRp78
ag2
(Vhttp://www.okkam.org/oaie/restaurant1-Restaurant36
tRp79
ag4
(V212/477-0777
NNtRp80
ag2
(Vhttp://www.okkam.org/oaie/restaurant1-Address43
tRp81
ag2
(Vhttp://www.okkam.org/oaie/restaurant1-City43
tRp82
ag2
(Vhttp://www.okkam.org/oaie/restaurant1-Restaurant63
tRp83
ag4
(Vtavern on the green
NNtRp84
ag2
(Vhttp://www.okkam.org/oaie/restaurant1-Restaurant48
tRp85
ag4
(Vmi cocina
NNtRp86
ag2
(Vhttp://www.okkam.org/oaie/restaurant1-Address58
tRp87
ag2
(Vhttp://www.okkam.org/oaie/restaurant1-City96
tRp88
ag2
(Vhttp://www.okkam.org/oaie/restaurant1-Restaurant80
tRp89
ag2
(Vhttp://www.okkam.org/oaie/restaurant1-Address92
tRp90
ag4
(Vb peachtree rd.
NNtRp91
ag2
(Vhttp://www.okkam.org/oaie/restaurant1-Restaurant40
tRp92
ag2
(Vhttp://www.okkam.org/oaie/restaurant1-City52
tRp93
ag2
(Vhttp://www.okkam.org/oaie/restaurant1-Address4
tRp94
ag4
(V624 s. la brea ave.
NNtRp95
ag2
(Vhttp://www.okkam.org/oaie/restaurant1-Restaurant94
tRp96
ag2
(Vhttp://www.okkam.org/oaie/restaurant1-Address94
tRp97
ag2
(Vhttp://www.okkam.org/oaie/restaurant1-Address107
tRp98
ag4
(V1737 post st.
NNtRp99
ag2
(Vhttp://www.okkam.org/oaie/restaurant1-Restaurant4
tRp100
ag4
(Vcampanile
NNtRp101
ag4
(V415/387-0408
NNtRp102
ag2
(Vhttp://www.okkam.org/oaie/restaurant1-Address96
tRp103
ag2
(Vhttp://www.okkam.org/oaie/restaurant1-City103
tRp104
ag2
(Vhttp://www.okkam.org/oaie/restaurant1-Address35
tRp105
ag4
(V12 e. 12th st.
NNtRp106
ag2
(Vhttp://www.okkam.org/oaie/restaurant1-Address100
tRp107
ag2
(Vhttp://www.okkam.org/oaie/restaurant1-City100
tRp108
ag2
(Vhttp://www.okkam.org/oaie/restaurant1-Restaurant27
tRp109
ag4
(Vcafe des artistes
NNtRp110
ag2
(Vhttp://www.okkam.org/oaie/restaurant1-Address63
tRp111
ag4
(Vin central park at 67th st.
NNtRp112
ag2
(Vhttp://www.okkam.org/oaie/restaurant1-Restaurant56
tRp113
ag4
(Vriver cafe
NNtRp114
ag2
(Vhttp://www.okkam.org/oaie/restaurant1-Restaurant34
tRp115
ag4
(V212/754-9494
NNtRp116
ag2
(Vhttp://www.okkam.org/oaie/restaurant1-Address67
tRp117
ag4
(V3200 las vegas blvd. s
NNtRp118
ag2
(Vhttp://www.okkam.org/oaie/restaurant1-City110
tRp119
ag2
(Vhttp://www.okkam.org/oaie/restaurant1-Address54
tRp120
ag4
(V95 ave. a at 6th st.
NNtRp121
ag2
(Vhttp://www.okkam.org/oaie/restaurant1-Address110
tRp122
ag2
(Vhttp://www.okkam.org/oaie/restaurant1-Address7
tRp123
ag4
(V8358 sunset blvd. west
NNtRp124
ag2
(Vhttp://www.okkam.org/oaie/restaurant1-Address101
tRp125
ag4
(V570 4th st.
NNtRp126
ag2
(Vhttp://www.okkam.org/oaie/restaurant1-Restaurant98
tRp127
ag4
(Vcampton place
NNtRp128
ag2
(Vhttp://www.okkam.org/oaie/restaurant1-Address83
tRp129
ag4
(V595 piedmont ave.  rio shopping mall
NNtRp130
ag2
(Vhttp://www.okkam.org/oaie/restaurant1-Restaurant41
tRp131
ag2
(Vhttp://www.okkam.org/oaie/restaurant1-Restaurant107
tRp132
ag4
(Vmifune japan center  kintetsu building
NNtRp133
ag2
(Vhttp://www.okkam.org/oaie/restaurant1-City84
tRp134
ag2
(Vhttp://www.okkam.org/oaie/restaurant1-Address39
tRp135
ag2
(Vhttp://www.okkam.org/oaie/restaurant1-City39
tRp136
ag2
(Vhttp://www.okkam.org/oaie/restaurant1-Restaurant28
tRp137
ag4
(V212/362-2200
NNtRp138
ag2
(Vhttp://www.okkam.org/oaie/restaurant1-Restaurant95
tRp139
ag4
(Vaqua
NNtRp140
ag2
(Vhttp://www.okkam.org/oaie/restaurant1-Restaurant106
tRp141
ag4
(V415/989-7154
NNtRp142
ag2
(Vhttp://www.okkam.org/oaie/restaurant1-Address44
tRp143
ag2
(Vhttp://www.okkam.org/oaie/restaurant1-City44
tRp144
ag4
(V600 stockton st.
NNtRp145
ag4
(Vphilippe's the original
NNtRp146
ag4
(V212/877-3500
NNtRp147
ag2
(Vhttp://www.okkam.org/oaie/restaurant1-Address21
tRp148
ag2
(Vhttp://www.okkam.org/oaie/restaurant1-City21
tRp149
ag2
(Vhttp://www.okkam.org/oaie/restaurant1-Restaurant18
tRp150
ag4
(V818/990-0500
NNtRp151
ag2
(Vhttp://www.okkam.org/oaie/restaurant1-Address55
tRp152
ag2
(Vhttp://www.okkam.org/oaie/restaurant1-City55
tRp153
ag4
(V212/861-8080
NNtRp154
ag2
(Vhttp://www.okkam.org/oaie/restaurant1-City33
tRp155
ag2
(Vhttp://www.okkam.org/oaie/restaurant1-Address99
tRp156
ag2
(Vhttp://www.okkam.org/oaie/restaurant1-City99
tRp157
ag4
(V310/475-9807
NNtRp158
ag4
(V718/522-5200
NNtRp159
ag2
(Vhttp://www.okkam.org/oaie/restaurant1-City36
tRp160
ag2
(Vhttp://www.okkam.org/oaie/restaurant1-Address41
tRp161
ag4
(V155 w. 51st st.
NNtRp162
ag4
(V415/668-6654
NNtRp163
ag2
(Vhttp://www.okkam.org/oaie/restaurant1-Restaurant100
tRp164
ag2
(Vhttp://www.okkam.org/oaie/restaurant1-Restaurant96
tRp165
ag4
(Vboulevard
NNtRp166
ag2
(Vhttp://www.okkam.org/oaie/restaurant1-Restaurant75
tRp167
ag4
(Vinternational
NNtRp168
ag4
(Vindigo coastal grill
NNtRp169
ag2
(Vhttp://www.okkam.org/oaie/restaurant1-City18
tRp170
ag2
(Vhttp://www.okkam.org/oaie/restaurant1-City65
tRp171
ag2
(Vhttp://www.okkam.org/oaie/restaurant1-Address56
tRp172
ag4
(V1 water st. at the east river
NNtRp173
ag2
(Vhttp://www.okkam.org/oaie/restaurant1-City82
tRp174
ag2
(Vhttp://www.okkam.org/oaie/restaurant1-City41
tRp175
ag2
(Vhttp://www.okkam.org/oaie/restaurant1-City76
tRp176
ag4
(V777 sutter st.
NNtRp177
ag2
(Vhttp://www.okkam.org/oaie/restaurant1-City7
tRp178
ag2
(Vhttp://www.okkam.org/oaie/restaurant1-Address73
tRp179
ag2
(Vhttp://www.okkam.org/oaie/restaurant1-City73
tRp180
ag4
(Vcarmine's
NNtRp181
ag2
(Vhttp://www.okkam.org/oaie/restaurant1-Restaurant10
tRp182
ag4
(Vrestaurant katsu
NNtRp183
ag2
(Vhttp://www.okkam.org/oaie/restaurant1-Restaurant47
tRp184
ag4
(V212/807-7400
NNtRp185
ag2
(Vhttp://www.okkam.org/oaie/restaurant1-Restaurant55
tRp186
ag4
(Vrainbow room
NNtRp187
ag4
(Vpinot bistro
NNtRp188
ag2
(Vhttp://www.okkam.org/oaie/restaurant1-Address23
tRp189
ag2
(Vhttp://www.okkam.org/oaie/restaurant1-City23
tRp190
ag2
(Vhttp://www.okkam.org/oaie/restaurant1-Address18
tRp191
ag2
(Vhttp://www.okkam.org/oaie/restaurant1-Restaurant62
tRp192
ag4
(Vsmith & wollensky
NNtRp193
ag2
(Vhttp://www.okkam.org/oaie/restaurant1-Restaurant85
tRp194
ag2
(Vhttp://www.okkam.org/oaie/restaurant1-Address85
tRp195
ag2
(Vhttp://www.okkam.org/oaie/restaurant1-Address87
tRp196
ag2
(Vhttp://www.okkam.org/oaie/restaurant1-Address11
tRp197
ag4
(V903 n. la cienega blvd.
NNtRp198
ag4
(Vpostrio
NNtRp199
ag2
(Vhttp://www.okkam.org/oaie/restaurant1-Address25
tRp200
ag2
(Vhttp://www.okkam.org/oaie/restaurant1-Address109
tRp201
ag4
(V545 post st.
NNtRp202
ag2
(Vhttp://www.okkam.org/oaie/restaurant1-Restaurant43
tRp203
ag4
(V212/339-6719
NNtRp204
ag4
(V2 e. 55th st.
NNtRp205
ag2
(Vhttp://www.okkam.org/oaie/restaurant1-Address52
tRp206
ag2
(Vhttp://www.okkam.org/oaie/restaurant1-Address42
tRp207
ag4
(V160 central park s
NNtRp208
ag2
(Vhttp://www.okkam.org/oaie/restaurant1-Address98
tRp209
ag2
(Vhttp://www.okkam.org/oaie/restaurant1-City98
tRp210
ag2
(Vhttp://www.okkam.org/oaie/restaurant1-Restaurant66
tRp211
ag2
(Vhttp://www.okkam.org/oaie/restaurant1-Restaurant45
tRp212
ag4
(V212/ 371-7777
NNtRp213
ag2
(Vhttp://www.okkam.org/oaie/restaurant1-City12
tRp214
ag2
(Vhttp://www.okkam.org/oaie/restaurant1-Restaurant72
tRp215
ag2
(Vhttp://www.okkam.org/oaie/restaurant1-Address72
tRp216
ag2
(Vhttp://www.okkam.org/oaie/restaurant1-Address102
tRp217
ag4
(V22 hawthorne st.
NNtRp218
ag2
(Vhttp://www.okkam.org/oaie/restaurant1-Address30
tRp219
ag4
(V2 harrison st.  near hudson st.
NNtRp220
ag2
(Vhttp://www.okkam.org/oaie/restaurant1-Restaurant46
tRp221
ag2
(Vhttp://www.okkam.org/oaie/restaurant1-Address46
tRp222
ag2
(Vhttp://www.okkam.org/oaie/restaurant1-Restaurant59
tRp223
ag2
(Vhttp://www.okkam.org/oaie/restaurant1-Address93
tRp224
ag2
(Vhttp://www.okkam.org/oaie/restaurant1-Restaurant76
tRp225
ag4
(V404/237-2663
NNtRp226
ag2
(Vhttp://www.okkam.org/oaie/restaurant1-Address40
tRp227
ag2
(Vhttp://www.okkam.org/oaie/restaurant1-Address50
tRp228
ag2
(Vhttp://www.okkam.org/oaie/restaurant1-City40
tRp229
ag2
(Vhttp://www.okkam.org/oaie/restaurant1-Address53
tRp230
ag2
(Vhttp://www.okkam.org/oaie/restaurant1-Address29
tRp231
ag2
(Vhttp://www.okkam.org/oaie/restaurant1-City29
tRp232
ag2
(Vhttp://www.okkam.org/oaie/restaurant1-Address105
tRp233
ag2
(Vhttp://www.okkam.org/oaie/restaurant1-Address6
tRp234
ag2
(Vhttp://www.okkam.org/oaie/restaurant1-City6
tRp235
ag2
(Vhttp://www.okkam.org/oaie/restaurant1-Restaurant42
tRp236
ag2
(Vhttp://www.okkam.org/oaie/restaurant1-Address34
tRp237
ag2
(Vhttp://www.okkam.org/oaie/restaurant1-City34
tRp238
ag2
(Vhttp://www.okkam.org/oaie/restaurant1-Restaurant50
tRp239
ag4
(V212/759-5941
NNtRp240
ag2
(Vhttp://www.okkam.org/oaie/restaurant1-Restaurant104
tRp241
ag4
(Vla folie
NNtRp242
ag2
(Vhttp://www.okkam.org/oaie/restaurant1-Restaurant29
tRp243
ag4
(V212/757-2245
NNtRp244
ag2
(Vhttp://www.okkam.org/oaie/restaurant1-City32
tRp245
ag2
(Vhttp://www.okkam.org/oaie/restaurant1-Address32
tRp246
ag2
(Vhttp://www.okkam.org/oaie/restaurant1-Restaurant21
tRp247
ag2
(Vhttp://www.okkam.org/oaie/restaurant1-Address59
tRp248
ag2
(Vhttp://www.okkam.org/oaie/restaurant1-City59
tRp249
ag4
(Vyujean kang's gourmet chinese cuisine
NNtRp250
ag2
(Vhttp://www.okkam.org/oaie/restaurant1-Restaurant111
tRp251
ag2
(Vhttp://www.okkam.org/oaie/restaurant1-City85
tRp252
ag2
(Vhttp://www.okkam.org/oaie/restaurant1-Restaurant105
tRp253
ag2
(Vhttp://www.okkam.org/oaie/restaurant1-Restaurant73
tRp254
ag2
(Vhttp://www.okkam.org/oaie/restaurant1-Restaurant24
tRp255
ag4
(V212/307-7311
NNtRp256
ag2
(Vhttp://www.okkam.org/oaie/restaurant1-Restaurant83
tRp257
ag4
(V404/876-4408
NNtRp258
ag4
(V13 w. 54th st.
NNtRp259
ag2
(Vhttp://www.okkam.org/oaie/restaurant1-Restaurant20
tRp260
ag4
(Vspago
NNtRp261
ag2
(Vhttp://www.okkam.org/oaie/restaurant1-Address91
tRp262
ag4
(V181 peachtree st.
NNtRp263
ag2
(Vhttp://www.okkam.org/oaie/restaurant1-Restaurant108
tRp264
ag2
(Vhttp://www.okkam.org/oaie/restaurant1-Address48
tRp265
ag2
(Vhttp://www.okkam.org/oaie/restaurant1-City48
tRp266
ag2
(Vhttp://www.okkam.org/oaie/restaurant1-City102
tRp267
ag2
(Vhttp://www.okkam.org/oaie/restaurant1-Restaurant49
tRp268
ag2
(Vhttp://www.okkam.org/oaie/restaurant1-Address49
tRp269
ag2
(Vhttp://www.okkam.org/oaie/restaurant1-City22
tRp270
ag4
(Vseryna
NNtRp271
ag2
(Vhttp://www.okkam.org/oaie/restaurant1-Restaurant51
tRp272
ag4
(V212/644-1900
NNtRp273
ag2
(Vhttp://www.okkam.org/oaie/restaurant1-City97
tRp274
ag4
(Vbacchanalia
NNtRp275
ag2
(Vhttp://www.okkam.org/oaie/restaurant1-Address71
tRp276
ag2
(Vhttp://www.okkam.org/oaie/restaurant1-City71
tRp277
ag4
(V415/563-4755
NNtRp278
ag2
(Vhttp://www.okkam.org/oaie/restaurant1-City30
tRp279
ag4
(V11 e. 53rd st.
NNtRp280
ag2
(Vhttp://www.okkam.org/oaie/restaurant1-Restaurant12
tRp281
ag4
(Vle chardonnay
NNtRp282
ag2
(Vhttp://www.okkam.org/oaie/restaurant1-Address31
tRp283
ag4
(V20 e. 76th st.
NNtRp284
ag2
(Vhttp://www.okkam.org/oaie/restaurant1-Restaurant52
tRp285
ag4
(V212/245-2214
NNtRp286
ag4
(V30 rockefeller plaza
NNtRp287
ag2
(Vhttp://www.okkam.org/oaie/restaurant1-City54
tRp288
ag2
(Vhttp://www.okkam.org/oaie/restaurant1-Restaurant7
tRp289
ag4
(Vfenix
NNtRp290
ag2
(Vhttp://www.okkam.org/oaie/restaurant1-City46
tRp291
ag4
(Vor 212/632-5100 american
NNtRp292
ag2
(Vhttp://www.okkam.org/oaie/restaurant1-Restaurant32
tRp293
ag4
(Vdawat
NNtRp294
ag2
(Vhttp://www.okkam.org/oaie/restaurant1-Address20
tRp295
ag4
(V212/489-1515
NNtRp296
ag2
(Vhttp://www.okkam.org/oaie/restaurant1-Restaurant0
tRp297
ag4
(Varnie morton's of chicago
NNtRp298
ag4
(V200 e. fremont st.
NNtRp299
ag2
(Vhttp://www.okkam.org/oaie/restaurant1-Address13
tRp300
ag2
(Vhttp://www.okkam.org/oaie/restaurant1-City13
tRp301
ag2
(Vhttp://www.okkam.org/oaie/restaurant1-Restaurant97
tRp302
ag2
(Vhttp://www.okkam.org/oaie/restaurant1-Address97
tRp303
ag2
(Vhttp://www.okkam.org/oaie/restaurant1-City25
tRp304
ag2
(Vhttp://www.okkam.org/oaie/restaurant1-Address104
tRp305
ag2
(Vhttp://www.okkam.org/oaie/restaurant1-City104
tRp306
ag2
(Vhttp://www.okkam.org/oaie/restaurant1-Address76
tRp307
ag2
(Vhttp://www.okkam.org/oaie/restaurant1-Restaurant77
tRp308
ag2
(Vhttp://www.okkam.org/oaie/restaurant1-City101
tRp309
ag2
(Vhttp://www.okkam.org/oaie/restaurant1-Address28
tRp310
ag2
(Vhttp://www.okkam.org/oaie/restaurant1-Restaurant39
tRp311
ag4
(Vla caravelle
NNtRp312
ag4
(Vsteak house
NNtRp313
ag4
(V212/980-9393
NNtRp314
ag2
(Vhttp://www.okkam.org/oaie/restaurant1-City86
tRp315
ag2
(Vhttp://www.okkam.org/oaie/restaurant1-Restaurant82
tRp316
ag2
(Vhttp://www.okkam.org/oaie/restaurant1-Address82
tRp317
ag2
(Vhttp://www.okkam.org/oaie/restaurant1-City49
tRp318
ag2
(Vhttp://www.okkam.org/oaie/restaurant1-Address64
tRp319
ag4
(Vfour seasons grill room
NNtRp320
ag2
(Vhttp://www.okkam.org/oaie/restaurant1-Restaurant101
tRp321
ag4
(Vcafe  ritz-carlton  buckhead
NNtRp322
ag2
(Vhttp://www.okkam.org/oaie/restaurant1-Restaurant13
tRp323
ag2
(Vhttp://www.okkam.org/oaie/restaurant1-Restaurant86
tRp324
ag4
(V404/876-1800
NNtRp325
ag4
(Vthe palm
NNtRp326
ag2
(Vhttp://www.okkam.org/oaie/restaurant1-Restaurant60
tRp327
ag2
(Vhttp://www.okkam.org/oaie/restaurant1-Restaurant79
tRp328
ag4
(V404/874-7600
NNtRp329
ag4
(Vle bernardin
NNtRp330
ag4
(Vshun lee west
NNtRp331
ag4
(V1397 n. highland ave.
NNtRp332
ag2
(Vhttp://www.okkam.org/oaie/restaurant1-City37
tRp333
ag2
(Vhttp://www.okkam.org/oaie/restaurant1-Address1
tRp334
ag2
(Vhttp://www.okkam.org/oaie/restaurant1-City1
tRp335
ag2
(Vhttp://www.okkam.org/oaie/restaurant1-City109
tRp336
ag4
(V240 central park s
NNtRp337
ag4
(V2316 polk st.
NNtRp338
ag4
(Vkhan toke thai house
NNtRp339
ag2
(Vhttp://www.okkam.org/oaie/restaurant1-Address108
tRp340
ag4
(V804 northpoint
NNtRp341
ag4
(Vvirgil's
NNtRp342
ag4
(V12969 ventura blvd.
NNtRp343
ag2
(Vhttp://www.okkam.org/oaie/restaurant1-Restaurant6
tRp344
ag4
(Vcitrus
NNtRp345
ag2
(Vhttp://www.okkam.org/oaie/restaurant1-Restaurant9
tRp346
ag4
(Vadriano's ristorante
NNtRp347
ag4
(V212/753-1530
NNtRp348
ag4
(V404/237-2700
NNtRp349
ag4
(V12224 ventura blvd.
NNtRp350
ag2
(Vhttp://www.okkam.org/oaie/restaurant1-City107
tRp351
ag4
(Vmesa grill
NNtRp352
ag2
(Vhttp://www.okkam.org/oaie/restaurant1-City53
tRp353
ag2
(Vhttp://www.okkam.org/oaie/restaurant1-Restaurant16
tRp354
ag4
(Vpatina
NNtRp355
ag2
(Vhttp://www.okkam.org/oaie/restaurant1-Restaurant92
tRp356
ag4
(Vtoulouse
NNtRp357
ag4
(V213/848-6677
NNtRp358
ag4
(V255 courtland st.  at harris st.
NNtRp359
ag2
(Vhttp://www.okkam.org/oaie/restaurant1-Address5
tRp360
ag4
(V2709 main st.
NNtRp361
ag2
(Vhttp://www.okkam.org/oaie/restaurant1-City93
tRp362
ag4
(Vcafe lalo
NNtRp363
ag4
(V415/776-5577
NNtRp364
ag2
(Vhttp://www.okkam.org/oaie/restaurant1-Restaurant69
tRp365
ag4
(V3201 fillmore st.
NNtRp366
ag2
(Vhttp://www.okkam.org/oaie/restaurant1-Restaurant81
tRp367
ag4
(V404/352-3517
NNtRp368
ag2
(Vhttp://www.okkam.org/oaie/restaurant1-City94
tRp369
ag4
(V404/876-0676
NNtRp370
ag2
(Vhttp://www.okkam.org/oaie/restaurant1-Address106
tRp371
ag2
(Vhttp://www.okkam.org/oaie/restaurant1-City106
tRp372
ag4
(V3799 las vegas blvd. s
NNtRp373
ag2
(Vhttp://www.okkam.org/oaie/restaurant1-Restaurant11
tRp374
ag4
(V310/652-9770
NNtRp375
ag2
(Vhttp://www.okkam.org/oaie/restaurant1-Address16
tRp376
ag2
(Vhttp://www.okkam.org/oaie/restaurant1-Address75
tRp377
ag2
(Vhttp://www.okkam.org/oaie/restaurant1-Restaurant44
tRp378
ag2
(Vhttp://www.okkam.org/oaie/restaurant1-City15
tRp379
ag2
(Vhttp://www.okkam.org/oaie/restaurant1-City78
tRp380
ag2
(Vhttp://www.okkam.org/oaie/restaurant1-Address111
tRp381
ag4
(V404/262-3336
NNtRp382
ag2
(Vhttp://www.okkam.org/oaie/restaurant1-Address22
tRp383
ag4
(V67 n. raymond ave.
NNtRp384
ag2
(Vhttp://www.okkam.org/oaie/restaurant1-Restaurant31
tRp385
ag4
(V212/288-0033
NNtRp386
ag2
(Vhttp://www.okkam.org/oaie/restaurant1-City95
tRp387
ag2
(Vhttp://www.okkam.org/oaie/restaurant1-Address27
tRp388
ag2
(Vhttp://www.okkam.org/oaie/restaurant1-City27
tRp389
ag2
(Vhttp://www.okkam.org/oaie/restaurant1-City108
tRp390
ag2
(Vhttp://www.okkam.org/oaie/restaurant1-City56
tRp391
ag4
(V2880 las vegas blvd. s
NNtRp392
ag2
(Vhttp://www.okkam.org/oaie/restaurant1-City51
tRp393
ag4
(Vhedgerose heights inn
NNtRp394
ag4
(Vlespinasse
NNtRp395
ag2
(Vhttp://www.okkam.org/oaie/restaurant1-Restaurant30
tRp396
ag2
(Vhttp://www.okkam.org/oaie/restaurant1-City16
tRp397
ag4
(Vlutece
NNtRp398
ag4
(V702/731-7547
NNtRp399
ag2
(Vhttp://www.okkam.org/oaie/restaurant1-City4
tRp400
ag2
(Vhttp://www.okkam.org/oaie/restaurant1-City28
tRp401
ag4
(V818/585-0855
NNtRp402
ag4
(V404/351-9533
NNtRp403
ag2
(Vhttp://www.okkam.org/oaie/restaurant1-Restaurant35
tRp404
ag4
(V212/484-5113
NNtRp405
ag4
(V1110 3rd ave. at 65th st.
NNtRp406
ag4
(Vcoyote cafe
NNtRp407
ag2
(Vhttp://www.okkam.org/oaie/restaurant1-Restaurant93
tRp408
ag2
(Vhttp://www.okkam.org/oaie/restaurant1-Address3
tRp409
ag4
(V14016 ventura blvd.
NNtRp410
ag2
(Vhttp://www.okkam.org/oaie/restaurant1-Restaurant33
tRp411
ag4
(Vuncle nick's
NNtRp412
ag2
(Vhttp://www.okkam.org/oaie/restaurant1-City80
tRp413
ag2
(Vhttp://www.okkam.org/oaie/restaurant1-Address47
tRp414
ag4
(V102 5th ave.  between 15th and 16th sts.
NNtRp415
ag4
(V415/673-7779
NNtRp416
ag4
(V3115 pico blvd.
NNtRp417
ag2
(Vhttp://www.okkam.org/oaie/restaurant1-Address65
tRp418
ag4
(V239 w. broadway  between walker and white sts.
NNtRp419
ag4
(Vrose pistola
NNtRp420
ag2
(Vhttp://www.okkam.org/oaie/restaurant1-Address79
tRp421
ag2
(Vhttp://www.okkam.org/oaie/restaurant1-City79
tRp422
ag4
(V747 9th ave.  between 50th and 51st sts.
NNtRp423
ag4
(Vmanhattan ocean club
NNtRp424
ag2
(Vhttp://www.okkam.org/oaie/restaurant1-City2
tRp425
ag4
(V404/365-0410
NNtRp426
ag4
(V21 e. 16th st.
NNtRp427
ag4
(V34 e. 61st st.
NNtRp428
ag4
(V1529 piedmont ave.
NNtRp429
ag2
(Vhttp://www.okkam.org/oaie/restaurant1-Address2
tRp430
ag4
(V701 stone canyon rd.
NNtRp431
ag2
(Vhttp://www.okkam.org/oaie/restaurant1-Address69
tRp432
ag4
(V3000 w. paradise rd.
NNtRp433
ag2
(Vhttp://www.okkam.org/oaie/restaurant1-Address62
tRp434
ag4
(V310/829-4313
NNtRp435
ag4
(V213/627-2300
NNtRp436
ag2
(Vhttp://www.okkam.org/oaie/restaurant1-City31
tRp437
ag2
(Vhttp://www.okkam.org/oaie/restaurant1-Restaurant102
tRp438
ag4
(V404/231-1368
NNtRp439
ag4
(V415/955-5555
NNtRp440
ag2
(Vhttp://www.okkam.org/oaie/restaurant1-Restaurant1
tRp441
ag4
(V213/655-8880
NNtRp442
ag2
(Vhttp://www.okkam.org/oaie/restaurant1-City19
tRp443
ag2
(Vhttp://www.okkam.org/oaie/restaurant1-Address12
tRp444
ag2
(Vhttp://www.okkam.org/oaie/restaurant1-Restaurant38
tRp445
ag2
(Vhttp://www.okkam.org/oaie/restaurant1-Address80
tRp446
ag4
(V57 jane st.  off hudson st.
NNtRp447
ag2
(Vhttp://www.okkam.org/oaie/restaurant1-Address15
tRp448
ag4
(Vbone's
NNtRp449
ag2
(Vhttp://www.okkam.org/oaie/restaurant1-Address89
tRp450
ag2
(Vhttp://www.okkam.org/oaie/restaurant1-City89
tRp451
ag2
(Vhttp://www.okkam.org/oaie/restaurant1-City87
tRp452
ag2
(Vhttp://www.okkam.org/oaie/restaurant1-Restaurant3
tRp453
ag4
(V818/788-3536
NNtRp454
ag2
(Vhttp://www.okkam.org/oaie/restaurant1-Address45
tRp455
ag4
(V310/472-1211
NNtRp456
ag4
(V415/495-5775
NNtRp457
ag2
(Vhttp://www.okkam.org/oaie/restaurant1-City64
tRp458
ag2
(Vhttp://www.okkam.org/oaie/restaurant1-City38
tRp459
ag2
(Vhttp://www.okkam.org/oaie/restaurant1-City35
tRp460
ag2
(Vhttp://www.okkam.org/oaie/restaurant1-City14
tRp461
ag2
(Vhttp://www.okkam.org/oaie/restaurant1-Address74
tRp462
ag2
(Vhttp://www.okkam.org/oaie/restaurant1-Address86
tRp463
ag4
(V224 ponce de leon ave.
NNtRp464
ag2
(Vhttp://www.okkam.org/oaie/restaurant1-City72
tRp465
ag2
(Vhttp://www.okkam.org/oaie/restaurant1-Address0
tRp466
ag2
(Vhttp://www.okkam.org/oaie/restaurant1-City0
tRp467
ag4
(Vcafe bizou
NNtRp468
ag2
(Vhttp://www.okkam.org/oaie/restaurant1-Address33
tRp469
ag2
(Vhttp://www.okkam.org/oaie/restaurant1-Restaurant88
tRp470
ag4
(V404/261-3662
NNtRp471
ag2
(Vhttp://www.okkam.org/oaie/restaurant1-Restaurant91
tRp472
ag4
(V404/659-0400
NNtRp473
ag2
(Vhttp://www.okkam.org/oaie/restaurant1-Address77
tRp474
ag2
(Vhttp://www.okkam.org/oaie/restaurant1-Restaurant53
tRp475
ag2
(Vhttp://www.okkam.org/oaie/restaurant1-City5
tRp476
ag2
(Vhttp://www.okkam.org/oaie/restaurant1-Address90
tRp477
ag4
(V3434 peachtree rd.
NNtRp478
ag2
(Vhttp://www.okkam.org/oaie/restaurant1-Address38
tRp479
ag2
(Vhttp://www.okkam.org/oaie/restaurant1-City3
tRp480
ag4
(V404/233-7673
NNtRp481
ag4
(V702/891-7349
NNtRp482
ag2
(Vhttp://www.okkam.org/oaie/restaurant1-City58
tRp483
ag4
(V2355 peachtree rd.  peachtree battle shopping center
NNtRp484
ag4
(V702/731-4036
NNtRp485
ag2
(Vhttp://www.okkam.org/oaie/restaurant1-Address8
tRp486
ag2
(Vhttp://www.okkam.org/oaie/restaurant1-City8
tRp487
ag4
(V415/392-3505
NNtRp488
ag2
(Vhttp://www.okkam.org/oaie/restaurant1-Address26
tRp489
ag2
(Vhttp://www.okkam.org/oaie/restaurant1-Restaurant23
tRp490
ag2
(Vhttp://www.okkam.org/oaie/restaurant1-City57
tRp491
ag2
(Vhttp://www.okkam.org/oaie/restaurant1-Address10
tRp492
ag2
(Vhttp://www.okkam.org/oaie/restaurant1-City10
tRp493
ag2
(Vhttp://www.okkam.org/oaie/restaurant1-City26
tRp494
ag4
(V212/688-6525
NNtRp495
ag4
(Vciboulette
NNtRp496
ag2
(Vhttp://www.okkam.org/oaie/restaurant1-Address95
tRp497
ag4
(V3130 piedmont road
NNtRp498
ag2
(Vhttp://www.okkam.org/oaie/restaurant1-Address36
tRp499
ag2
(Vhttp://www.okkam.org/oaie/restaurant1-City69
tRp500
ag4
(Vart's delicatessen
NNtRp501
ag4
(V201 e. 49th st.
NNtRp502
ag2
(Vhttp://www.okkam.org/oaie/restaurant1-Restaurant99
tRp503
ag4
(V7 claude la.
NNtRp504
ag2
(Vhttp://www.okkam.org/oaie/restaurant1-Restaurant90
tRp505
ag4
(Vdining room  ritz-carlton  buckhead
NNtRp506
ag4
(V212/754-6272
NNtRp507
ag2
(Vhttp://www.okkam.org/oaie/restaurant1-City92
tRp508
ag4
(V212/223-5656
NNtRp509
ag2
(Vhttp://www.okkam.org/oaie/restaurant1-Restaurant37
tRp510
ag4
(V212/765-1737
NNtRp511
ag4
(Vlulu
NNtRp512
ag4
(V415/922-0337
NNtRp513
ag2
(Vhttp://www.okkam.org/oaie/restaurant1-Restaurant8
tRp514
ag4
(Vpark avenue cafe
NNtRp515
ag2
(Vhttp://www.okkam.org/oaie/restaurant1-City47
tRp516
ag4
(V310/456-0488
NNtRp517
ag2
(Vhttp://www.okkam.org/oaie/restaurant1-City67
tRp518
ag2
(Vhttp://www.okkam.org/oaie/restaurant1-Address66
tRp519
ag4
(V152 w. 44th st.
NNtRp520
ag2
(Vhttp://www.okkam.org/oaie/restaurant1-City63
tRp521
ag2
(Vhttp://www.okkam.org/oaie/restaurant1-City90
tRp522
ag4
(Vunion square cafe
NNtRp523
ag2
(Vhttp://www.okkam.org/oaie/restaurant1-Restaurant71
tRp524
ag4
(Vsecond street grille
NNtRp525
ag4
(V404/266-1440
NNtRp526
ag4
(V60 w. 55th st.  between 5th and 6th ave.
NNtRp527
ag2
(Vhttp://www.okkam.org/oaie/restaurant1-City42
tRp528
ag4
(V404/681-2909
NNtRp529
ag2
(Vhttp://www.okkam.org/oaie/restaurant1-Address81
tRp530
ag2
(Vhttp://www.okkam.org/oaie/restaurant1-City81
tRp531
ag4
(V212/ 319-1660
NNtRp532
ag2
(Vhttp://www.okkam.org/oaie/restaurant1-City112
tRp533
ag2
(Vhttp://www.okkam.org/oaie/restaurant1-City11
tRp534
ag4
(V252 california st.
NNtRp535
ag2
(Vhttp://www.okkam.org/oaie/restaurant1-Address37
tRp536
ag2
(Vhttp://www.okkam.org/oaie/restaurant1-City50
tRp537
ag4
(Vpisces
NNtRp538
ag2
(Vhttp://www.okkam.org/oaie/restaurant1-City74
tRp539
ag2
(Vhttp://www.okkam.org/oaie/restaurant1-Address112
tRp540
ag4
(V2930 beverly glen circle
NNtRp541
ag4
(V1972 n. hillhurst ave.
NNtRp542
ag4
(Vhawthorne lane
NNtRp543
ag4
(V310/652-4025
NNtRp544
ag2
(Vhttp://www.okkam.org/oaie/restaurant1-City62
tRp545
ag4
(V212/355-7555
NNtRp546
ag4
(V1001 n. alameda st.
NNtRp547
ag4
(V415/543-0573
NNtRp548
ag4
(V648 bush st.
NNtRp549
ag4
(V212/873-3200
NNtRp550
ag4
(V210 e. 58th st.
NNtRp551
ag4
(V702/385-3232
NNtRp552
ag4
(V212/632-5000
NNtRp553
ag4
(V310/276-0615
NNtRp554
ag2
(Vhttp://www.okkam.org/oaie/restaurant1-City68
tRp555
ag4
(V212/265-5959
NNtRp556
ag4
(V212/620-4020
NNtRp557
ag4
(V3393 peachtree rd.  lenox square mall  near neiman marcus
NNtRp558
ag4
(V404/261-8186
NNtRp559
ag2
(Vhttp://www.okkam.org/oaie/restaurant1-City91
tRp560
ag4
(V212/724-8585
NNtRp561
ag4
(V213/665-1891
NNtRp562
ag4
(V415/399-0499
NNtRp563
ag4
(V2637 peachtree rd.  peachtree house condominium
NNtRp564
ag4
(V212/ 921-9494
NNtRp565
ag4
(V213/938-1447
NNtRp566
ag4
(V415/543-6084
NNtRp567
ag2
(Vhttp://www.okkam.org/oaie/restaurant1-City75
tRp568
ag4
(V212/758-1479
NNtRp569
ag4
(V818/762-1221
NNtRp570
ag4
(Vpano's and paul's
NNtRp571
ag4
(V490 e. paces ferry rd.
NNtRp572
ag4
(Vtillerman
NNtRp573
ag4
(V310/274-1893
NNtRp574
ag4
(V435 s. la cienega blv.
NNtRp575
ag4
(V213/857-0034
NNtRp576
ag4
(V415/956-9662
NNtRp577
ag4
(V405 e. 58th st.
NNtRp578
ag4
(V212/371-8844
NNtRp579
ag4
(V310/246-1501
NNtRp580
ag4
(V42 e. 20th st.  between park ave. s and broadway
NNtRp581
ag4
(Vhotel bel-air
NNtRp582
ag4
(V854 7th ave.  between 54th and 55th sts.
NNtRp583
ag4
(V702/732-5111
NNtRp584
ag4
(V212/627-8273
NNtRp585
ag4
(V212/677-0606
NNtRp586
ag4
(V3125 piedmont rd.  near peachtree rd.
NNtRp587
ag2
(Vhttp://www.okkam.org/oaie/restaurant1-City83
tRp588
ag4
(V212/752-2225
NNtRp589
ag2
(Vhttp://www.okkam.org/oaie/restaurant1-City77
tRp590
ag4
(V156 2nd ave. at 10th st.
NNtRp591
ag4
(Vgrill on the alley
NNtRp592
ag2
(Vhttp://www.okkam.org/oaie/restaurant1-City20
tRp593
ag4
(V415/777-9779
NNtRp594
ag4
(V33 w. 55th st.
NNtRp595
ag4
(Vtel caribbean
NNtRp596
ag4
(V213/467-1108
NNtRp597
ag4
(V2290 peachtree rd.  peachtree square shopping center
NNtRp598
ag2
(Vhttp://www.okkam.org/oaie/restaurant1-City111
tRp599
ag4
(V404/875-8424
NNtRp600
ag4
(Vrestaurant  ritz-carlton  atlanta
NNtRp601
ag4
(V212/582-7200
NNtRp602
ag4
(Vle montrachet
NNtRp603
ag4
(V415/775-7036
NNtRp604
ag4
(V3073 piedmont road
NNtRp605
ag2
(Vhttp://www.okkam.org/oaie/restaurant1-City105
tRp606
ag4
(V212/586-4252
NNtRp607
ag4
(V43 w. 65th st.
NNtRp608
ag4
(V310/392-9025
NNtRp609
ag4
(V212/966-6960
NNtRp610
ag4
(V1114 horn ave.
NNtRp611
ag4
(V2450 broadway  between 90th and 91st sts.
NNtRp612
ag4
(V415/296-7465
NNtRp613
ag4
(V212/ 219-2777
NNtRp614
a.