(dp1
crdflib.term
URIRef
p2
(Vhttp://dbpedia.org/ontology/TMDB/numberOfEpisodes
tRp3
I14
sg2
(Vhttps://www.scads.de/movieBenchmark/ontology/name
tRp4
I25
sg2
(Vhttp://dbpedia.org/ontology/TMDB/releaseDate
tRp5
I13
sg2
(Vhttp://dbpedia.org/ontology/TMDB/runtime
tRp6
I16
sg2
(Vhttps://www.scads.de/movieBenchmark/ontology/runtimeMinutes
tRp7
I29
sg2
(Vhttps://www.scads.de/movieBenchmark/ontology/endYear
tRp8
I35
sg2
(Vhttp://dbpedia.org/ontology/TMDB/abstract
tRp9
I9
sg2
(Vhttp://dbpedia.org/ontology/TMDB/birthDate
tRp10
I37
sg2
(Vhttps://www.scads.de/movieBenchmark/ontology/TMDB/known_for_department
tRp11
I3
sg2
(Vhttps://www.scads.de/movieBenchmark/ontology/TMDB/last_air_date
tRp12
I8
sg2
(Vhttp://dbpedia.org/ontology/birthYear
tRp13
I23
sg2
(Vhttps://www.scads.de/movieBenchmark/ontology/TMDB/revenue
tRp14
I31
sg2
(Vhttp://xmlns.com/foaf/0.1/TMDB/gender
tRp15
I24
sg2
(Vhttp://dbpedia.org/ontology/TMDB/numberOfSeasons
tRp16
I10
sg2
(Vhttps://www.scads.de/movieBenchmark/ontology/isAdult
tRp17
I28
sg2
(Vhttps://www.scads.de/movieBenchmark/ontology/participated_in
tRp18
I21
sg2
(Vhttp://dbpedia.org/ontology/seasonNumber
tRp19
I4
sg2
(Vhttps://www.scads.de/movieBenchmark/ontology/startYear
tRp20
I2
sg2
(Vhttp://dbpedia.org/ontology/episodeNumber
tRp21
I22
sg2
(Vhttps://www.scads.de/movieBenchmark/ontology/TMDB/languages
tRp22
I15
sg2
(Vhttps://www.scads.de/movieBenchmark/ontology/genre_list
tRp23
I5
sg2
(Vhttp://dbpedia.org/ontology/deathYear
tRp24
I1
sg2
(Vhttps://www.scads.de/movieBenchmark/ontology/is_episode_of
tRp25
I6
sg2
(Vhttps://www.scads.de/movieBenchmark/ontology/TMDB/birthPlace
tRp26
I38
sg2
(Vhttps://www.scads.de/movieBenchmark/ontology/TMDB/status
tRp27
I7
sg2
(Vhttps://www.scads.de/movieBenchmark/ontology/TMDB/in_production
tRp28
I12
sg2
(Vhttp://dbpedia.org/ontology/TMDB/budget
tRp29
I33
sg2
(Vhttps://www.scads.de/movieBenchmark/ontology/TMDB/release_year
tRp30
I20
sg2
(Vhttps://www.scads.de/movieBenchmark/ontology/title
tRp31
I11
sg2
(Vhttps://www.scads.de/movieBenchmark/ontology/TMDB/tagline
tRp32
I34
sg2
(Vhttps://www.scads.de/movieBenchmark/ontology/TMDB/original_language
tRp33
I17
sg2
(Vhttp://xmlns.com/foaf/0.1/TMDB/homepage
tRp34
I27
sg2
(Vhttps://www.scads.de/movieBenchmark/ontology/TMDB/also_known_as
tRp35
I36
sg2
(Vhttps://www.scads.de/movieBenchmark/ontology/primaryProfessions
tRp36
I26
sg2
(Vhttps://www.scads.de/movieBenchmark/ontology/originalTitle
tRp37
I18
sg2
(Vhttps://www.scads.de/movieBenchmark/ontology/TMDB/spoken_languages
tRp38
I30
sg2
(Vhttps://www.scads.de/movieBenchmark/ontology/TMDB/origin_country
tRp39
I19
sg2
(Vhttps://www.scads.de/movieBenchmark/ontology/TMDB/production_countries
tRp40
I32
sS'<NONE>'
p41
I0
s.